 main

 Timestamp is 5ee0d912 (Wed Jun 10 08:58:58 2020)

 Preferred load address is 0000000140000000

 Start         Length     Name                   Class
 0001:00000000 00000410H .text$di                CODE
 0001:00000410 0010a790H .text$mn                CODE
 0001:0010aba0 00000020H .text$mn$00             CODE
 0001:0010abc0 00002d40H .text$x                 CODE
 0001:0010d900 000001b3H .text$yd                CODE
 0002:00000000 00000a30H .idata$5                DATA
 0002:00000a30 00000010H .00cfg                  DATA
 0002:00000a40 00000008H .CRT$XCA                DATA
 0002:00000a48 00000008H .CRT$XCAA               DATA
 0002:00000a50 00000008H .CRT$XCL                DATA
 0002:00000a58 00000018H .CRT$XCU                DATA
 0002:00000a70 00000008H .CRT$XCZ                DATA
 0002:00000a78 00000008H .CRT$XIA                DATA
 0002:00000a80 00000008H .CRT$XIAA               DATA
 0002:00000a88 00000008H .CRT$XIAC               DATA
 0002:00000a90 00000008H .CRT$XIC                DATA
 0002:00000a98 00000008H .CRT$XIZ                DATA
 0002:00000aa0 00000008H .CRT$XLA                DATA
 0002:00000aa8 00000008H .CRT$XLZ                DATA
 0002:00000ab0 00000008H .CRT$XPA                DATA
 0002:00000ab8 00000008H .CRT$XPZ                DATA
 0002:00000ac0 00000008H .CRT$XTA                DATA
 0002:00000ac8 00000008H .CRT$XTZ                DATA
 0002:00000ad0 00000000H .gfids$y                DATA
 0002:00000ad0 0004c598H .rdata                  DATA
 0002:0004d068 00000028H .rdata$T                DATA
 0002:0004d090 000001f4H .rdata$r                DATA
 0002:0004d284 0000039cH .rdata$zzzdbg           DATA
 0002:0004d620 00000008H .rtc$IAA                DATA
 0002:0004d628 00000008H .rtc$IZZ                DATA
 0002:0004d630 00000008H .rtc$TAA                DATA
 0002:0004d638 00000008H .rtc$TZZ                DATA
 0002:0004d640 00000004H .tls                    DATA
 0002:0004d644 00000004H .tls$                   DATA
 0002:0004d648 00000008H .tls$ZZZ                DATA
 0002:0004d650 00006dc0H .xdata                  DATA
 0002:00054410 00000284H .xdata$x                DATA
 0002:00054694 00000000H .edata                  DATA
 0002:00054694 00000168H .idata$2                DATA
 0002:000547fc 00000014H .idata$3                DATA
 0002:00054810 00000a30H .idata$4                DATA
 0002:00055240 0000230aH .idata$6                DATA
 0003:00000000 0000b158H .data                   DATA
 0003:0000b158 000001a8H .data$r                 DATA
 0003:0000b300 0000a5e8H .bss                    DATA
 0004:00000000 00009b58H .pdata                  DATA

  Address         Publics by Value              Rva+Base               Lib:Object

 0000:00000000       __AbsoluteZero             0000000000000000     <absolute>
 0000:00000000       __hybrid_code_map_count    0000000000000000     <absolute>
 0000:00000000       ___safe_se_handler_table   0000000000000000     <absolute>
 0000:00000000       __hybrid_code_map          0000000000000000     <absolute>
 0000:00000000       __guard_iat_count          0000000000000000     <absolute>
 0000:00000000       __guard_fids_table         0000000000000000     <absolute>
 0000:00000000       __volatile_metadata        0000000000000000     <absolute>
 0000:00000000       __guard_fids_count         0000000000000000     <absolute>
 0000:00000000       __guard_longjmp_count      0000000000000000     <absolute>
 0000:00000000       __enclave_config           0000000000000000     <absolute>
 0000:00000000       __guard_longjmp_table      0000000000000000     <absolute>
 0000:00000000       ___safe_se_handler_count   0000000000000000     <absolute>
 0000:00000000       __hybrid_auxiliary_iat     0000000000000000     <absolute>
 0000:00000000       __guard_iat_table          0000000000000000     <absolute>
 0000:00000000       __dynamic_value_reloc_table 0000000000000000     <absolute>
 0000:00000100       __guard_flags              0000000000000100     <absolute>
 0000:00000000       __ImageBase                0000000140000000     <linker-defined>
 0001:00000410       ?processInput@@YAXPEAUGLFWwindow@@HHHH@Z 0000000140001410 f   main.obj
 0001:000004d0       ?mouse_callback@@YAXPEAUGLFWwindow@@NN@Z 00000001400014d0 f   main.obj
 0001:000005a0       ?mouse_button_callback@@YAXPEAUGLFWwindow@@HHH@Z 00000001400015a0 f   main.obj
 0001:000005e0       ?scroll_callback@@YAXPEAUGLFWwindow@@NN@Z 00000001400015e0 f   main.obj
 0001:00000630       ?gamepad_callback@@YAXHH@Z 0000000140001630 f   main.obj
 0001:00000640       main                       0000000140001640 f   main.obj
 0001:00000ad0       ??$?6U?$char_traits@D@std@@@std@@YAAEAV?$basic_ostream@DU?$char_traits@D@std@@@0@AEAV10@PEBD@Z 0000000140001ad0 f i main.obj
 0001:00000ee0       ??0_Sentry_base@?$basic_ostream@DU?$char_traits@D@std@@@std@@QEAA@AEAV12@@Z 0000000140001ee0 f i main.obj
 0001:00000f50       ??0sentry@?$basic_ostream@DU?$char_traits@D@std@@@std@@QEAA@AEAV12@@Z 0000000140001f50 f i main.obj
 0001:00001030       ??1_Sentry_base@?$basic_ostream@DU?$char_traits@D@std@@@std@@QEAA@XZ 0000000140002030 f i main.obj
 0001:00001090       ??1sentry@?$basic_ostream@DU?$char_traits@D@std@@@std@@QEAA@XZ 0000000140002090 f i main.obj
 0001:000010d0       ??Bsentry@?$basic_ostream@DU?$char_traits@D@std@@@std@@QEBA_NXZ 00000001400020d0 f i main.obj
 0001:000010e0       ??_H@YAXPEAX_K1P6APEAX0@Z@Z 00000001400020e0 f i main.obj
 0001:00001150       ?GetSecondsElapsed@@YAMT_LARGE_INTEGER@@0@Z 0000000140002150 f i main.obj
 0001:00001190       ?GetWallClock@@YA?AT_LARGE_INTEGER@@XZ 0000000140002190 f i main.obj
 0001:000011b0       ?eof@?$_Narrow_char_traits@DH@std@@SAHXZ 00000001400021b0 f i main.obj
 0001:000011c0       ?eq_int_type@?$_Narrow_char_traits@DH@std@@SA_NAEBH0@Z 00000001400021c0 f i main.obj
 0001:00001200       ?length@?$_Narrow_char_traits@DH@std@@SA_KQEBD@Z 0000000140002200 f i main.obj
 0001:00001240       __local_stdio_printf_options 0000000140002240 f i main.obj
 0001:00001250       _vfprintf_l                0000000140002250 f i main.obj
 0001:000012a0       fprintf                    00000001400022a0 f i main.obj
 0001:000012f0       gladLoadGL                 00000001400022f0 f   glad.obj
 0001:00001330       gladLoadGLLoader           0000000140002330 f   glad.obj
 0001:00006a10       __local_stdio_scanf_options 0000000140007a10 f i glad.obj
 0001:00006a20       _vsscanf_s_l               0000000140007a20 f i glad.obj
 0001:00006a80       sscanf_s                   0000000140007a80 f i glad.obj
 0001:00006ad0       vsscanf_s                  0000000140007ad0 f i glad.obj
 0001:00006b00       stbi_load_from_memory      0000000140007b00 f   stb_image.obj
 0001:00006ba0       stbi_load_from_callbacks   0000000140007ba0 f   stb_image.obj
 0001:00006c40       stbi_load                  0000000140007c40 f   stb_image.obj
 0001:00006cf0       stbi_load_from_file        0000000140007cf0 f   stb_image.obj
 0001:00006dc0       stbi_load_gif_from_memory  0000000140007dc0 f   stb_image.obj
 0001:00006ec0       stbi_load_16_from_memory   0000000140007ec0 f   stb_image.obj
 0001:00006f60       stbi_load_16_from_callbacks 0000000140007f60 f   stb_image.obj
 0001:00007000       stbi_load_16               0000000140008000 f   stb_image.obj
 0001:000070b0       stbi_load_from_file_16     00000001400080b0 f   stb_image.obj
 0001:00007180       stbi_loadf_from_memory     0000000140008180 f   stb_image.obj
 0001:00007220       stbi_loadf_from_callbacks  0000000140008220 f   stb_image.obj
 0001:000072c0       stbi_loadf                 00000001400082c0 f   stb_image.obj
 0001:00007370       stbi_loadf_from_file       0000000140008370 f   stb_image.obj
 0001:00007400       stbi_hdr_to_ldr_gamma      0000000140008400 f   stb_image.obj
 0001:00007430       stbi_hdr_to_ldr_scale      0000000140008430 f   stb_image.obj
 0001:00007460       stbi_ldr_to_hdr_gamma      0000000140008460 f   stb_image.obj
 0001:00007480       stbi_ldr_to_hdr_scale      0000000140008480 f   stb_image.obj
 0001:000074a0       stbi_is_hdr_from_callbacks 00000001400084a0 f   stb_image.obj
 0001:00007510       stbi_is_hdr_from_memory    0000000140008510 f   stb_image.obj
 0001:00007580       stbi_is_hdr                0000000140008580 f   stb_image.obj
 0001:000075e0       stbi_is_hdr_from_file      00000001400085e0 f   stb_image.obj
 0001:00007670       stbi_failure_reason        0000000140008670 f   stb_image.obj
 0001:00007680       stbi_image_free            0000000140008680 f   stb_image.obj
 0001:000076a0       stbi_info_from_memory      00000001400086a0 f   stb_image.obj
 0001:00007730       stbi_info_from_callbacks   0000000140008730 f   stb_image.obj
 0001:000077c0       stbi_is_16_bit_from_memory 00000001400087c0 f   stb_image.obj
 0001:00007830       stbi_is_16_bit_from_callbacks 0000000140008830 f   stb_image.obj
 0001:000078a0       stbi_info                  00000001400088a0 f   stb_image.obj
 0001:00007920       stbi_info_from_file        0000000140008920 f   stb_image.obj
 0001:000079d0       stbi_is_16_bit             00000001400089d0 f   stb_image.obj
 0001:00007a30       stbi_is_16_bit_from_file   0000000140008a30 f   stb_image.obj
 0001:00007ac0       stbi_set_unpremultiply_on_load 0000000140008ac0 f   stb_image.obj
 0001:00007ae0       stbi_convert_iphone_png_to_rgb 0000000140008ae0 f   stb_image.obj
 0001:00007b00       stbi_set_flip_vertically_on_load 0000000140008b00 f   stb_image.obj
 0001:00007b20       stbi_zlib_decode_malloc_guesssize 0000000140008b20 f   stb_image.obj
 0001:00007c20       stbi_zlib_decode_malloc_guesssize_headerflag 0000000140008c20 f   stb_image.obj
 0001:00007d30       stbi_zlib_decode_malloc    0000000140008d30 f   stb_image.obj
 0001:00007d70       stbi_zlib_decode_buffer    0000000140008d70 f   stb_image.obj
 0001:00007e30       stbi_zlib_decode_noheader_malloc 0000000140008e30 f   stb_image.obj
 0001:00007f30       stbi_zlib_decode_noheader_buffer 0000000140008f30 f   stb_image.obj
 0001:00020e30       ??0Game@finnsie@@QEAA@AEAUGLFWwindow@@@Z 0000000140021e30 f   game.obj
 0001:000217b0       ?Render@Game@finnsie@@QEAAXXZ 00000001400227b0 f   game.obj
 0001:000218f0       ?Update@Game@finnsie@@QEAAXM@Z 00000001400228f0 f   game.obj
 0001:00021950       ?ProcessInput@Game@finnsie@@QEAAXHHHHM@Z 0000000140022950 f   game.obj
 0001:00021970       ?ProcessMouseButtons@Game@finnsie@@QEAAXHHH@Z 0000000140022970 f   game.obj
 0001:00021a00       ?Shutdown@Game@finnsie@@QEAAXXZ 0000000140022a00 f   game.obj
 0001:00021b60       ?processCamera@Game@finnsie@@AEAAXM@Z 0000000140022b60 f   game.obj
 0001:00021ce0       ??$?0$$V@?$_Compressed_pair@V?$allocator@D@std@@V?$_String_val@U?$_Simple_types@D@std@@@2@$00@std@@QEAA@U_Zero_then_variadic_args_t@1@@Z 0000000140022ce0 f i game.obj
 0001:00021ce0       ??$?0$$V@?$_Compressed_pair@V?$allocator@_W@std@@V?$_String_val@U?$_Simple_types@_W@std@@@2@$00@std@@QEAA@U_Zero_then_variadic_args_t@1@@Z 0000000140022ce0 f i gui.obj
 0001:00021d10       ??$?0$$V@?$_Compressed_pair@V?$allocator@I@std@@V?$_Vector_val@U?$_Simple_types@I@std@@@2@$00@std@@QEAA@U_Zero_then_variadic_args_t@1@@Z 0000000140022d10 f i game.obj
 0001:00021d10       ??$?0$$V@?$_Compressed_pair@V?$allocator@U_Find_file_handle@filesystem@std@@@std@@V?$_Vector_val@U?$_Simple_types@U_Find_file_handle@filesystem@std@@@std@@@2@$00@std@@QEAA@U_Zero_then_variadic_args_t@1@@Z 0000000140022d10 f i gui.obj
 0001:00021d10       ??$?0$$V@?$_Compressed_pair@V?$allocator@VMesh@finnsie@@@std@@V?$_Vector_val@U?$_Simple_types@VMesh@finnsie@@@std@@@2@$00@std@@QEAA@U_Zero_then_variadic_args_t@1@@Z 0000000140022d10 f i game.obj
 0001:00021d10       ??$?0$$V@?$_Compressed_pair@V?$allocator@Uuniform@finnsie@@@std@@V?$_Vector_val@U?$_Simple_types@Uuniform@finnsie@@@std@@@2@$00@std@@QEAA@U_Zero_then_variadic_args_t@1@@Z 0000000140022d10 f i resource_manager.obj
 0001:00021d10       ??$?0$$V@?$_Compressed_pair@V?$allocator@PEAVGameObject@finnsie@@@std@@V?$_Vector_val@U?$_Simple_types@PEAVGameObject@finnsie@@@std@@@2@$00@std@@QEAA@U_Zero_then_variadic_args_t@1@@Z 0000000140022d10 f i utils.obj
 0001:00021d10       ??$?0$$V@?$_Compressed_pair@V?$allocator@UobjFile@finnsie@@@std@@V?$_Vector_val@U?$_Simple_types@UobjFile@finnsie@@@std@@@2@$00@std@@QEAA@U_Zero_then_variadic_args_t@1@@Z 0000000140022d10 f i game.obj
 0001:00021d10       ??$?0$$V@?$_Compressed_pair@V?$allocator@UTexture@finnsie@@@std@@V?$_Vector_val@U?$_Simple_types@UTexture@finnsie@@@std@@@2@$00@std@@QEAA@U_Zero_then_variadic_args_t@1@@Z 0000000140022d10 f i game.obj
 0001:00021d10       ??$?0$$V@?$_Compressed_pair@V?$allocator@UVertex@finnsie@@@std@@V?$_Vector_val@U?$_Simple_types@UVertex@finnsie@@@std@@@2@$00@std@@QEAA@U_Zero_then_variadic_args_t@1@@Z 0000000140022d10 f i game.obj
 0001:00021d40       ??$?0$$V@?$_Compressed_pair@V?$allocator@U?$_Tree_node@U?$pair@$$CBHVShader@finnsie@@@std@@PEAX@std@@@std@@V?$_Tree_val@U?$_Tree_simple_types@U?$pair@$$CBHVShader@finnsie@@@std@@@std@@@2@$00@std@@QEAA@U_Zero_then_variadic_args_t@1@@Z 0000000140022d40 f i game.obj
 0001:00021d40       ??$?0$$V@?$_Compressed_pair@V?$allocator@U?$_Tree_node@U?$pair@$$CBHUTexture2D@finnsie@@@std@@PEAX@std@@@std@@V?$_Tree_val@U?$_Tree_simple_types@U?$pair@$$CBHUTexture2D@finnsie@@@std@@@std@@@2@$00@std@@QEAA@U_Zero_then_variadic_args_t@1@@Z 0000000140022d40 f i game.obj
 0001:00021d70       ??$?0AEBU?$less@H@std@@U_Zero_then_variadic_args_t@1@@?$_Compressed_pair@U?$less@H@std@@V?$_Compressed_pair@V?$allocator@U?$_Tree_node@U?$pair@$$CBHUTexture2D@finnsie@@@std@@PEAX@std@@@std@@V?$_Tree_val@U?$_Tree_simple_types@U?$pair@$$CBHUTexture2D@finnsie@@@std@@@std@@@2@$00@2@$00@std@@QEAA@U_One_then_variadic_args_t@1@AEBU?$less@H@1@$$QEAU_Zero_then_variadic_args_t@1@@Z 0000000140022d70 f i game.obj
 0001:00021d70       ??$?0AEBU?$less@H@std@@U_Zero_then_variadic_args_t@1@@?$_Compressed_pair@U?$less@H@std@@V?$_Compressed_pair@V?$allocator@U?$_Tree_node@U?$pair@$$CBHVShader@finnsie@@@std@@PEAX@std@@@std@@V?$_Tree_val@U?$_Tree_simple_types@U?$pair@$$CBHVShader@finnsie@@@std@@@std@@@2@$00@2@$00@std@@QEAA@U_One_then_variadic_args_t@1@AEBU?$less@H@1@$$QEAU_Zero_then_variadic_args_t@1@@Z 0000000140022d70 f i game.obj
 0001:00021dc0       ??$?0AEBV?$allocator@_W@std@@$$V@?$_Compressed_pair@V?$allocator@_W@std@@V?$_String_val@U?$_Simple_types@_W@std@@@2@$00@std@@QEAA@U_One_then_variadic_args_t@1@AEBV?$allocator@_W@1@@Z 0000000140022dc0 f i gui.obj
 0001:00021dc0       ??$?0V?$allocator@D@std@@$$V@?$_Compressed_pair@V?$allocator@D@std@@V?$_String_val@U?$_Simple_types@D@std@@@2@$00@std@@QEAA@U_One_then_variadic_args_t@1@$$QEAV?$allocator@D@1@@Z 0000000140022dc0 f i game.obj
 0001:00021dc0       ??$?0AEBV?$allocator@D@std@@$$V@?$_Compressed_pair@V?$allocator@D@std@@V?$_String_val@U?$_Simple_types@D@std@@@2@$00@std@@QEAA@U_One_then_variadic_args_t@1@AEBV?$allocator@D@1@@Z 0000000140022dc0 f i game.obj
 0001:00021dc0       ??$?0V?$allocator@_W@std@@$$V@?$_Compressed_pair@V?$allocator@_W@std@@V?$_String_val@U?$_Simple_types@_W@std@@@2@$00@std@@QEAA@U_One_then_variadic_args_t@1@$$QEAV?$allocator@_W@1@@Z 0000000140022dc0 f i gui.obj
 0001:00021e00       ??$?0V?$allocator@UVertex@finnsie@@@std@@$$V@?$_Compressed_pair@V?$allocator@UVertex@finnsie@@@std@@V?$_Vector_val@U?$_Simple_types@UVertex@finnsie@@@std@@@2@$00@std@@QEAA@U_One_then_variadic_args_t@1@$$QEAV?$allocator@UVertex@finnsie@@@1@@Z 0000000140022e00 f i game.obj
 0001:00021e00       ??$?0V?$allocator@UTexture@finnsie@@@std@@$$V@?$_Compressed_pair@V?$allocator@UTexture@finnsie@@@std@@V?$_Vector_val@U?$_Simple_types@UTexture@finnsie@@@std@@@2@$00@std@@QEAA@U_One_then_variadic_args_t@1@$$QEAV?$allocator@UTexture@finnsie@@@1@@Z 0000000140022e00 f i game.obj
 0001:00021e00       ??$?0V?$allocator@I@std@@$$V@?$_Compressed_pair@V?$allocator@I@std@@V?$_Vector_val@U?$_Simple_types@I@std@@@2@$00@std@@QEAA@U_One_then_variadic_args_t@1@$$QEAV?$allocator@I@1@@Z 0000000140022e00 f i game.obj
 0001:00021e00       ??$?0V?$allocator@Uuniform@finnsie@@@std@@$$V@?$_Compressed_pair@V?$allocator@Uuniform@finnsie@@@std@@V?$_Vector_val@U?$_Simple_types@Uuniform@finnsie@@@std@@@2@$00@std@@QEAA@U_One_then_variadic_args_t@1@$$QEAV?$allocator@Uuniform@finnsie@@@1@@Z 0000000140022e00 f i resource_manager.obj
 0001:00021e40       ??$?HDU?$char_traits@D@std@@V?$allocator@D@1@@std@@YA?AV?$basic_string@DU?$char_traits@D@std@@V?$allocator@D@2@@0@$$QEAV10@AEBV10@@Z 0000000140022e40 f i game.obj
 0001:00021ea0       ??$?HDU?$char_traits@D@std@@V?$allocator@D@1@@std@@YA?AV?$basic_string@DU?$char_traits@D@std@@V?$allocator@D@2@@0@AEBV10@D@Z 0000000140022ea0 f i game.obj
 0001:00021f50       ??$_Adl_verify_range@PEAUVertex@finnsie@@PEAU12@@std@@YAXAEBQEAUVertex@finnsie@@0@Z 0000000140022f50 f i game.obj
 0001:00021f50       ??$_Adl_verify_range@V?$reverse_iterator@PEB_W@std@@V12@@std@@YAXAEBV?$reverse_iterator@PEB_W@0@0@Z 0000000140022f50 f i gui.obj
 0001:00021f50       ??$_Adl_verify_range@PEADPEAD@std@@YAXAEBQEAD0@Z 0000000140022f50 f i renderer.obj
 0001:00021f50       ??$_Pocca@V?$allocator@_W@std@@@std@@YAXAEAV?$allocator@_W@0@AEBV10@@Z 0000000140022f50 f i gui.obj
 0001:00021f50       ??$_Pocca@V?$allocator@UVertex@finnsie@@@std@@@std@@YAXAEAV?$allocator@UVertex@finnsie@@@0@AEBV10@@Z 0000000140022f50 f i game.obj
 0001:00021f50       ??$_Pocca@V?$allocator@Uuniform@finnsie@@@std@@@std@@YAXAEAV?$allocator@Uuniform@finnsie@@@0@AEBV10@@Z 0000000140022f50 f i resource_manager.obj
 0001:00021f50       ??$_Adl_verify_range@PEAIPEAI@std@@YAXAEBQEAI0@Z 0000000140022f50 f i game.obj
 0001:00021f50       ??$_Adl_verify_range@PEB_WPEB_W@std@@YAXAEBQEB_W0@Z 0000000140022f50 f i gui.obj
 0001:00021f50       ?_Alloc_proxy@_Container_base0@std@@QEAAXAEBU_Fake_allocator@2@@Z 0000000140022f50 f i game.obj
 0001:00021f50       ??$_Adl_verify_range@V?$_String_const_iterator@V?$_String_val@U?$_Simple_types@_W@std@@@std@@@std@@V12@@std@@YAXAEBV?$_String_const_iterator@V?$_String_val@U?$_Simple_types@_W@std@@@std@@@0@0@Z 0000000140022f50 f i gui.obj
 0001:00021f50       ??$_Adl_verify_range@PEAUTexture@finnsie@@PEAU12@@std@@YAXAEBQEAUTexture@finnsie@@0@Z 0000000140022f50 f i game.obj
 0001:00021f50       ??$_Adl_verify_range@V?$_Vector_iterator@V?$_Vector_val@U?$_Simple_types@PEAVGameObject@finnsie@@@std@@@std@@@std@@V12@@std@@YAXAEBV?$_Vector_iterator@V?$_Vector_val@U?$_Simple_types@PEAVGameObject@finnsie@@@std@@@std@@@0@0@Z 0000000140022f50 f i utils.obj
 0001:00021f50       ??$_Adl_verify_range@V?$_Vector_iterator@V?$_Vector_val@U?$_Simple_types@UTexture@finnsie@@@std@@@std@@@std@@V12@@std@@YAXAEBV?$_Vector_iterator@V?$_Vector_val@U?$_Simple_types@UTexture@finnsie@@@std@@@std@@@0@0@Z 0000000140022f50 f i game.obj
 0001:00021f50       ??$_Pocca@V?$allocator@UTexture@finnsie@@@std@@@std@@YAXAEAV?$allocator@UTexture@finnsie@@@0@AEBV10@@Z 0000000140022f50 f i game.obj
 0001:00021f50       ?_Adopt@_Iterator_base0@std@@QEAAXPEBX@Z 0000000140022f50 f i game.obj
 0001:00021f50       ?_Verify_offset@?$_String_const_iterator@V?$_String_val@U?$_Simple_types@_W@std@@@std@@@std@@QEBAX_J@Z 0000000140022f50 f i gui.obj
 0001:00021f50       ??$_Pocca@V?$allocator@D@std@@@std@@YAXAEAV?$allocator@D@0@AEBV10@@Z 0000000140022f50 f i game.obj
 0001:00021f50       ??$destroy@U?$pair@$$CBHUTexture2D@finnsie@@@std@@@?$_Default_allocator_traits@V?$allocator@U?$_Tree_node@U?$pair@$$CBHUTexture2D@finnsie@@@std@@PEAX@std@@@std@@@std@@SAXAEAV?$allocator@U?$_Tree_node@U?$pair@$$CBHUTexture2D@finnsie@@@std@@PEAX@std@@@1@QEAU?$pair@$$CBHUTexture2D@finnsie@@@1@@Z 0000000140022f50 f i game.obj
 0001:00021f50       ??$_Pocca@V?$allocator@I@std@@@std@@YAXAEAV?$allocator@I@0@AEBV10@@Z 0000000140022f50 f i game.obj
 0001:00021f50       ??$_Adl_verify_range@PEAUuniform@finnsie@@PEAU12@@std@@YAXAEBQEAUuniform@finnsie@@0@Z 0000000140022f50 f i resource_manager.obj
 0001:00021f50       ?_Swap_proxy_and_iterators@_Container_base0@std@@QEAAXAEAU12@@Z 0000000140022f50 f i game.obj
 0001:00021f60       ??$_Allocate@$0BA@U_Default_allocate_traits@std@@$0A@@std@@YAPEAX_K@Z 0000000140022f60 f i game.obj
 0001:00021fa0       ??$_Allocate_manually_vector_aligned@U_Default_allocate_traits@std@@@std@@YAPEAX_K@Z 0000000140022fa0 f i game.obj
 0001:00022030       ??$_Assign_range@PEAI@?$vector@IV?$allocator@I@std@@@std@@AEAAXPEAI0Uforward_iterator_tag@1@@Z 0000000140023030 f i game.obj
 0001:00022110       ??$_Assign_range@PEAUTexture@finnsie@@@?$vector@UTexture@finnsie@@V?$allocator@UTexture@finnsie@@@std@@@std@@AEAAXPEAUTexture@finnsie@@0Uforward_iterator_tag@1@@Z 0000000140023110 f i game.obj
 0001:000222c0       ??$_Assign_range@PEAUVertex@finnsie@@@?$vector@UVertex@finnsie@@V?$allocator@UVertex@finnsie@@@std@@@std@@AEAAXPEAUVertex@finnsie@@0Uforward_iterator_tag@1@@Z 00000001400232c0 f i game.obj
 0001:000223a0       ??$_Buyheadnode@V?$allocator@U?$_Tree_node@U?$pair@$$CBHUTexture2D@finnsie@@@std@@PEAX@std@@@std@@@?$_Tree_node@U?$pair@$$CBHUTexture2D@finnsie@@@std@@PEAX@std@@SAPEAU01@AEAV?$allocator@U?$_Tree_node@U?$pair@$$CBHUTexture2D@finnsie@@@std@@PEAX@std@@@1@@Z 00000001400233a0 f i game.obj
 0001:000223a0       ??$_Buyheadnode@V?$allocator@U?$_Tree_node@U?$pair@$$CBHVShader@finnsie@@@std@@PEAX@std@@@std@@@?$_Tree_node@U?$pair@$$CBHVShader@finnsie@@@std@@PEAX@std@@SAPEAU01@AEAV?$allocator@U?$_Tree_node@U?$pair@$$CBHVShader@finnsie@@@std@@PEAX@std@@@1@@Z 00000001400233a0 f i game.obj
 0001:00022420       ??$_Construct_in_place@PEAU?$_Tree_node@U?$pair@$$CBHVShader@finnsie@@@std@@PEAX@std@@AEAPEAU12@@std@@YAXAEAPEAU?$_Tree_node@U?$pair@$$CBHVShader@finnsie@@@std@@PEAX@0@0@Z 0000000140023420 f i resource_manager.obj
 0001:00022420       ??$_Construct_in_place@PEA_WAEBQEA_W@std@@YAXAEAPEA_WAEBQEA_W@Z 0000000140023420 f i gui.obj
 0001:00022420       ??$_Construct_in_place@PEAU?$_Tree_node@U?$pair@$$CBHUTexture2D@finnsie@@@std@@PEAX@std@@AEAPEAU12@@std@@YAXAEAPEAU?$_Tree_node@U?$pair@$$CBHUTexture2D@finnsie@@@std@@PEAX@0@0@Z 0000000140023420 f i resource_manager.obj
 0001:00022420       ??$_Construct_in_place@PEAU?$_Tree_node@U?$pair@$$CBHUTexture2D@finnsie@@@std@@PEAX@std@@AEBQEAU12@@std@@YAXAEAPEAU?$_Tree_node@U?$pair@$$CBHUTexture2D@finnsie@@@std@@PEAX@0@AEBQEAU10@@Z 0000000140023420 f i game.obj
 0001:00022420       ??$_Construct_in_place@PEAU?$_Tree_node@U?$pair@$$CBHVShader@finnsie@@@std@@PEAX@std@@AEBQEAU12@@std@@YAXAEAPEAU?$_Tree_node@U?$pair@$$CBHVShader@finnsie@@@std@@PEAX@0@AEBQEAU10@@Z 0000000140023420 f i game.obj
 0001:00022420       ??$_Construct_in_place@PEADAEBQEAD@std@@YAXAEAPEADAEBQEAD@Z 0000000140023420 f i game.obj
 0001:00022470       ?_Get_first@?$_Compressed_pair@V?$allocator@I@std@@V?$_Vector_val@U?$_Simple_types@I@std@@@2@$00@std@@QEBAAEBV?$allocator@I@2@XZ 0000000140023470 f i game.obj
 0001:00022470       ??$forward@AEBV?$allocator@_W@std@@@std@@YAAEBV?$allocator@_W@0@AEBV10@@Z 0000000140023470 f i gui.obj
 0001:00022470       ??0?$allocator@D@std@@QEAA@XZ 0000000140023470 f i game.obj
 0001:00022470       ??$move@AEAU_Creator@_Dir_enum_impl@filesystem@std@@@std@@YA$$QEAU_Creator@_Dir_enum_impl@filesystem@0@AEAU1230@@Z 0000000140023470 f i gui.obj
 0001:00022470       ?_Get_first@?$_Compressed_pair@V?$allocator@D@std@@V?$_String_val@U?$_Simple_types@D@std@@@2@$00@std@@QEBAAEBV?$allocator@D@2@XZ 0000000140023470 f i game.obj
 0001:00022470       ??$_Unfancy@UTexture@finnsie@@@std@@YAPEAUTexture@finnsie@@PEAU12@@Z 0000000140023470 f i game.obj
 0001:00022470       ??0?$allocator@VMesh@finnsie@@@std@@QEAA@XZ 0000000140023470 f i game.obj
 0001:00022470       ??$forward@V?$allocator@_W@std@@@std@@YA$$QEAV?$allocator@_W@0@AEAV10@@Z 0000000140023470 f i gui.obj
 0001:00022470       ??$_Get_unwrapped@I@std@@YAPEAIQEAI@Z 0000000140023470 f i game.obj
 0001:00022470       ??$_Refancy@PEAI$0A@@std@@YAPEAIPEAI@Z 0000000140023470 f i game.obj
 0001:00022470       ??$_Unfancy@D@std@@YAPEADPEAD@Z 0000000140023470 f i game.obj
 0001:00022470       ??$forward@U_Creator@_Dir_enum_impl@filesystem@std@@@std@@YA$$QEAU_Creator@_Dir_enum_impl@filesystem@0@AEAU1230@@Z 0000000140023470 f i gui.obj
 0001:00022470       ??$_Get_unwrapped@Uuniform@finnsie@@@std@@YAPEAUuniform@finnsie@@QEAU12@@Z 0000000140023470 f i shader_manager.obj
 0001:00022470       ??$addressof@PEA_W@std@@YAPEAPEA_WAEAPEA_W@Z 0000000140023470 f i gui.obj
 0001:00022470       ??0?$allocator@UVertex@finnsie@@@std@@QEAA@XZ 0000000140023470 f i game.obj
 0001:00022470       ??$move@AEAV?$allocator@Uuniform@finnsie@@@std@@@std@@YA$$QEAV?$allocator@Uuniform@finnsie@@@0@AEAV10@@Z 0000000140023470 f i renderer.obj
 0001:00022470       ??$addressof@$$CBV?$vector@UTexture@finnsie@@V?$allocator@UTexture@finnsie@@@std@@@std@@@std@@YAPEBV?$vector@UTexture@finnsie@@V?$allocator@UTexture@finnsie@@@std@@@0@AEBV10@@Z 0000000140023470 f i game.obj
 0001:00022470       ??$addressof@V?$basic_stringbuf@DU?$char_traits@D@std@@V?$allocator@D@2@@std@@@std@@YAPEAV?$basic_stringbuf@DU?$char_traits@D@std@@V?$allocator@D@2@@0@AEAV10@@Z 0000000140023470 f i shader_manager.obj
 0001:00022470       ??$addressof@V?$_Tree_val@U?$_Tree_simple_types@U?$pair@$$CBHUTexture2D@finnsie@@@std@@@std@@@std@@@std@@YAPEAV?$_Tree_val@U?$_Tree_simple_types@U?$pair@$$CBHUTexture2D@finnsie@@@std@@@std@@@0@AEAV10@@Z 0000000140023470 f i game.obj
 0001:00022470       ?_Get_first@?$_Compressed_pair@V?$allocator@PEAVGameObject@finnsie@@@std@@V?$_Vector_val@U?$_Simple_types@PEAVGameObject@finnsie@@@std@@@2@$00@std@@QEAAAEAV?$allocator@PEAVGameObject@finnsie@@@2@XZ 0000000140023470 f i utils.obj
 0001:00022470       ??$addressof@U?$pair@$$CBHUTexture2D@finnsie@@@std@@@std@@YAPEAU?$pair@$$CBHUTexture2D@finnsie@@@0@AEAU10@@Z 0000000140023470 f i game.obj
 0001:00022470       ??$addressof@V?$_Tree_val@U?$_Tree_simple_types@U?$pair@$$CBHVShader@finnsie@@@std@@@std@@@std@@@std@@YAPEAV?$_Tree_val@U?$_Tree_simple_types@U?$pair@$$CBHVShader@finnsie@@@std@@@std@@@0@AEAV10@@Z 0000000140023470 f i game.obj
 0001:00022470       ??$_Get_unwrapped@D@std@@YAPEADQEAD@Z 0000000140023470 f i renderer.obj
 0001:00022470       ?_Get_first@?$_Compressed_pair@V?$allocator@UVertex@finnsie@@@std@@V?$_Vector_val@U?$_Simple_types@UVertex@finnsie@@@std@@@2@$00@std@@QEBAAEBV?$allocator@UVertex@finnsie@@@2@XZ 0000000140023470 f i game.obj
 0001:00022470       ??$forward@PEAU?$_Tree_node@U?$pair@$$CBHVShader@finnsie@@@std@@PEAX@std@@@std@@YA$$QEAPEAU?$_Tree_node@U?$pair@$$CBHVShader@finnsie@@@std@@PEAX@0@AEAPEAU10@@Z 0000000140023470 f i resource_manager.obj
 0001:00022470       ??$_Unfancy@UVertex@finnsie@@@std@@YAPEAUVertex@finnsie@@PEAU12@@Z 0000000140023470 f i game.obj
 0001:00022470       ?_Get_first@?$_Compressed_pair@V?$allocator@U_Find_file_handle@filesystem@std@@@std@@V?$_Vector_val@U?$_Simple_types@U_Find_file_handle@filesystem@std@@@std@@@2@$00@std@@QEAAAEAV?$allocator@U_Find_file_handle@filesystem@std@@@2@XZ 0000000140023470 f i gui.obj
 0001:00022470       ??$addressof@D@std@@YAPEADAEAD@Z 0000000140023470 f i shader_manager.obj
 0001:00022470       ??$addressof@U_Recursive_dir_enum_impl@filesystem@std@@@std@@YAPEAU_Recursive_dir_enum_impl@filesystem@0@AEAU120@@Z 0000000140023470 f i gui.obj
 0001:00022470       ??$addressof@V?$vector@Uuniform@finnsie@@V?$allocator@Uuniform@finnsie@@@std@@@std@@@std@@YAPEAV?$vector@Uuniform@finnsie@@V?$allocator@Uuniform@finnsie@@@std@@@0@AEAV10@@Z 0000000140023470 f i renderer.obj
 0001:00022470       ??$addressof@$$CBV?$_String_val@U?$_Simple_types@_W@std@@@std@@@std@@YAPEBV?$_String_val@U?$_Simple_types@_W@std@@@0@AEBV10@@Z 0000000140023470 f i gui.obj
 0001:00022470       ??0?$allocator@U?$_Tree_node@U?$pair@$$CBHUTexture2D@finnsie@@@std@@PEAX@std@@@std@@QEAA@XZ 0000000140023470 f i game.obj
 0001:00022470       ?_Get_first@?$_Compressed_pair@V?$allocator@UVertex@finnsie@@@std@@V?$_Vector_val@U?$_Simple_types@UVertex@finnsie@@@std@@@2@$00@std@@QEAAAEAV?$allocator@UVertex@finnsie@@@2@XZ 0000000140023470 f i game.obj
 0001:00022470       ??$forward@AEBQEAD@std@@YAAEBQEADAEBQEAD@Z 0000000140023470 f i game.obj
 0001:00022470       ??$_Unfancy@I@std@@YAPEAIPEAI@Z 0000000140023470 f i game.obj
 0001:00022470       ?_Get_first@?$_Compressed_pair@V?$allocator@UobjFile@finnsie@@@std@@V?$_Vector_val@U?$_Simple_types@UobjFile@finnsie@@@std@@@2@$00@std@@QEBAAEBV?$allocator@UobjFile@finnsie@@@2@XZ 0000000140023470 f i gui.obj
 0001:00022470       ?_Get_first@?$_Compressed_pair@V?$allocator@U?$_Tree_node@U?$pair@$$CBHVShader@finnsie@@@std@@PEAX@std@@@std@@V?$_Tree_val@U?$_Tree_simple_types@U?$pair@$$CBHVShader@finnsie@@@std@@@std@@@2@$00@std@@QEBAAEBV?$allocator@U?$_Tree_node@U?$pair@$$CBHVShader@finnsie@@@std@@PEAX@std@@@2@XZ 0000000140023470 f i resource_manager.obj
 0001:00022470       ??$_Unfancy@Uuniform@finnsie@@@std@@YAPEAUuniform@finnsie@@PEAU12@@Z 0000000140023470 f i shader_manager.obj
 0001:00022470       ??$addressof@$$CBV?$vector@Uuniform@finnsie@@V?$allocator@Uuniform@finnsie@@@std@@@std@@@std@@YAPEBV?$vector@Uuniform@finnsie@@V?$allocator@Uuniform@finnsie@@@std@@@0@AEBV10@@Z 0000000140023470 f i resource_manager.obj
 0001:00022470       ??0?$allocator@Uuniform@finnsie@@@std@@QEAA@XZ 0000000140023470 f i resource_manager.obj
 0001:00022470       ??$addressof@$$CBV?$_Tree_val@U?$_Tree_simple_types@U?$pair@$$CBHVShader@finnsie@@@std@@@std@@@std@@@std@@YAPEBV?$_Tree_val@U?$_Tree_simple_types@U?$pair@$$CBHVShader@finnsie@@@std@@@std@@@0@AEBV10@@Z 0000000140023470 f i resource_manager.obj
 0001:00022470       ??$move@AEAV?$basic_string@DU?$char_traits@D@std@@V?$allocator@D@2@@std@@@std@@YA$$QEAV?$basic_string@DU?$char_traits@D@std@@V?$allocator@D@2@@0@AEAV10@@Z 0000000140023470 f i game.obj
 0001:00022470       ??$addressof@$$CBV?$_Tree_val@U?$_Tree_simple_types@U?$pair@$$CBHUTexture2D@finnsie@@@std@@@std@@@std@@@std@@YAPEBV?$_Tree_val@U?$_Tree_simple_types@U?$pair@$$CBHUTexture2D@finnsie@@@std@@@std@@@0@AEBV10@@Z 0000000140023470 f i resource_manager.obj
 0001:00022470       ??$addressof@U?$pair@$$CBHVShader@finnsie@@@std@@@std@@YAPEAU?$pair@$$CBHVShader@finnsie@@@0@AEAU10@@Z 0000000140023470 f i resource_manager.obj
 0001:00022470       ??$forward@AEAUTexture@finnsie@@@std@@YAAEAUTexture@finnsie@@AEAU12@@Z 0000000140023470 f i game.obj
 0001:00022470       ??$_Unfancy@U_Find_file_handle@filesystem@std@@@std@@YAPEAU_Find_file_handle@filesystem@0@PEAU120@@Z 0000000140023470 f i gui.obj
 0001:00022470       ??0?$allocator@U_Find_file_handle@filesystem@std@@@std@@QEAA@XZ 0000000140023470 f i gui.obj
 0001:00022470       ??$_Unfancy@PEAVGameObject@finnsie@@@std@@YAPEAPEAVGameObject@finnsie@@PEAPEAV12@@Z 0000000140023470 f i utils.obj
 0001:00022470       ??$addressof@$$CBV?$vector@IV?$allocator@I@std@@@std@@@std@@YAPEBV?$vector@IV?$allocator@I@std@@@0@AEBV10@@Z 0000000140023470 f i game.obj
 0001:00022470       ?_Get_first@?$_Compressed_pair@V?$allocator@_W@std@@V?$_String_val@U?$_Simple_types@_W@std@@@2@$00@std@@QEAAAEAV?$allocator@_W@2@XZ 0000000140023470 f i gui.obj
 0001:00022470       ??$addressof@V?$_String_val@U?$_Simple_types@D@std@@@std@@@std@@YAPEAV?$_String_val@U?$_Simple_types@D@std@@@0@AEAV10@@Z 0000000140023470 f i game.obj
 0001:00022470       ??$_Get_unwrapped_unverified@$$CBD@std@@YAPEBDQEBD@Z 0000000140023470 f i gui.obj
 0001:00022470       ??$_Unfancy@VMesh@finnsie@@@std@@YAPEAVMesh@finnsie@@PEAV12@@Z 0000000140023470 f i game.obj
 0001:00022470       ??0?$tuple@$$V@std@@QEAA@XZ 0000000140023470 f i resource_manager.obj
 0001:00022470       ??$move@AEAUTexture@finnsie@@@std@@YA$$QEAUTexture@finnsie@@AEAU12@@Z 0000000140023470 f i game.obj
 0001:00022470       ??$addressof@$$CBV?$vector@UVertex@finnsie@@V?$allocator@UVertex@finnsie@@@std@@@std@@@std@@YAPEBV?$vector@UVertex@finnsie@@V?$allocator@UVertex@finnsie@@@std@@@0@AEBV10@@Z 0000000140023470 f i game.obj
 0001:00022470       ?_Get_first@?$_Compressed_pair@V?$allocator@Uuniform@finnsie@@@std@@V?$_Vector_val@U?$_Simple_types@Uuniform@finnsie@@@std@@@2@$00@std@@QEBAAEBV?$allocator@Uuniform@finnsie@@@2@XZ 0000000140023470 f i shader_manager.obj
 0001:00022470       ??$addressof@V?$_Vector_val@U?$_Simple_types@UTexture@finnsie@@@std@@@std@@@std@@YAPEAV?$_Vector_val@U?$_Simple_types@UTexture@finnsie@@@std@@@0@AEAV10@@Z 0000000140023470 f i game.obj
 0001:00022470       ??$_Get_unwrapped@UTexture@finnsie@@@std@@YAPEAUTexture@finnsie@@QEAU12@@Z 0000000140023470 f i game.obj
 0001:00022470       ??$addressof@$$CBV?$codecvt@DDU_Mbstatet@@@std@@@std@@YAPEBV?$codecvt@DDU_Mbstatet@@@0@AEBV10@@Z 0000000140023470 f i shader_manager.obj
 0001:00022470       ??0?$allocator@UobjFile@finnsie@@@std@@QEAA@XZ 0000000140023470 f i game.obj
 0001:00022470       ??$_Unfancy@UobjFile@finnsie@@@std@@YAPEAUobjFile@finnsie@@PEAU12@@Z 0000000140023470 f i game.obj
 0001:00022470       ??$move@AEAVMesh@finnsie@@@std@@YA$$QEAVMesh@finnsie@@AEAV12@@Z 0000000140023470 f i game.obj
 0001:00022470       ??$_Get_unwrapped@$$CB_W@std@@YAPEB_WQEB_W@Z 0000000140023470 f i gui.obj
 0001:00022470       ??$forward@AEBQEA_W@std@@YAAEBQEA_WAEBQEA_W@Z 0000000140023470 f i gui.obj
 0001:00022470       ??$forward@AEBW4directory_options@filesystem@std@@@std@@YAAEBW4directory_options@filesystem@0@AEBW4120@@Z 0000000140023470 f i gui.obj
 0001:00022470       ??$forward@AEBUVertex@finnsie@@@std@@YAAEBUVertex@finnsie@@AEBU12@@Z 0000000140023470 f i game.obj
 0001:00022470       ??$_Get_unwrapped@VMesh@finnsie@@@std@@YAPEAVMesh@finnsie@@QEAV12@@Z 0000000140023470 f i game.obj
 0001:00022470       ?_Get_first@?$_Compressed_pair@V?$allocator@PEAVGameObject@finnsie@@@std@@V?$_Vector_val@U?$_Simple_types@PEAVGameObject@finnsie@@@std@@@2@$00@std@@QEBAAEBV?$allocator@PEAVGameObject@finnsie@@@2@XZ 0000000140023470 f i utils.obj
 0001:00022470       ??$forward@AEAPEAU?$_Tree_node@U?$pair@$$CBHVShader@finnsie@@@std@@PEAX@std@@@std@@YAAEAPEAU?$_Tree_node@U?$pair@$$CBHVShader@finnsie@@@std@@PEAX@0@AEAPEAU10@@Z 0000000140023470 f i resource_manager.obj
 0001:00022470       ??$addressof@PEAU?$_Tree_node@U?$pair@$$CBHUTexture2D@finnsie@@@std@@PEAX@std@@@std@@YAPEAPEAU?$_Tree_node@U?$pair@$$CBHUTexture2D@finnsie@@@std@@PEAX@0@AEAPEAU10@@Z 0000000140023470 f i game.obj
 0001:00022470       ??0?$allocator@UTexture@finnsie@@@std@@QEAA@XZ 0000000140023470 f i game.obj
 0001:00022470       ??$forward@AEAUuniform@finnsie@@@std@@YAAEAUuniform@finnsie@@AEAU12@@Z 0000000140023470 f i resource_manager.obj
 0001:00022470       ?_Get_first@?$_Compressed_pair@V?$allocator@U?$_Tree_node@U?$pair@$$CBHUTexture2D@finnsie@@@std@@PEAX@std@@@std@@V?$_Tree_val@U?$_Tree_simple_types@U?$pair@$$CBHUTexture2D@finnsie@@@std@@@std@@@2@$00@std@@QEBAAEBV?$allocator@U?$_Tree_node@U?$pair@$$CBHUTexture2D@finnsie@@@std@@PEAX@std@@@2@XZ 0000000140023470 f i resource_manager.obj
 0001:00022470       ??$forward@VMesh@finnsie@@@std@@YA$$QEAVMesh@finnsie@@AEAV12@@Z 0000000140023470 f i game.obj
 0001:00022470       ?_Get_first@?$_Compressed_pair@V?$allocator@VMesh@finnsie@@@std@@V?$_Vector_val@U?$_Simple_types@VMesh@finnsie@@@std@@@2@$00@std@@QEAAAEAV?$allocator@VMesh@finnsie@@@2@XZ 0000000140023470 f i game.obj
 0001:00022470       ??$addressof@V?$basic_filebuf@DU?$char_traits@D@std@@@std@@@std@@YAPEAV?$basic_filebuf@DU?$char_traits@D@std@@@0@AEAV10@@Z 0000000140023470 f i shader_manager.obj
 0001:00022470       ?native@path@filesystem@std@@QEBAAEBV?$basic_string@_WU?$char_traits@_W@std@@V?$allocator@_W@2@@3@XZ 0000000140023470 f i gui.obj
 0001:00022470       ??$forward@AEBH@std@@YAAEBHAEBH@Z 0000000140023470 f i resource_manager.obj
 0001:00022470       ??$forward@_N@std@@YA$$QEA_NAEA_N@Z 0000000140023470 f i resource_manager.obj
 0001:00022470       ??0_Bxty@?$_String_val@U?$_Simple_types@D@std@@@std@@QEAA@XZ 0000000140023470 f i game.obj
 0001:00022470       ??$addressof@V?$_String_val@U?$_Simple_types@_W@std@@@std@@@std@@YAPEAV?$_String_val@U?$_Simple_types@_W@std@@@0@AEAV10@@Z 0000000140023470 f i gui.obj
 0001:00022470       ??$forward@AEAPEAU?$_Tree_node@U?$pair@$$CBHUTexture2D@finnsie@@@std@@PEAX@std@@@std@@YAAEAPEAU?$_Tree_node@U?$pair@$$CBHUTexture2D@finnsie@@@std@@PEAX@0@AEAPEAU10@@Z 0000000140023470 f i resource_manager.obj
 0001:00022470       ?_Get_first@?$_Compressed_pair@V?$allocator@_W@std@@V?$_String_val@U?$_Simple_types@_W@std@@@2@$00@std@@QEBAAEBV?$allocator@_W@2@XZ 0000000140023470 f i gui.obj
 0001:00022470       ??$forward@V?$allocator@D@std@@@std@@YA$$QEAV?$allocator@D@0@AEAV10@@Z 0000000140023470 f i game.obj
 0001:00022470       ?_Get_first@?$_Compressed_pair@V?$allocator@U?$_Tree_node@U?$pair@$$CBHVShader@finnsie@@@std@@PEAX@std@@@std@@V?$_Tree_val@U?$_Tree_simple_types@U?$pair@$$CBHVShader@finnsie@@@std@@@std@@@2@$00@std@@QEAAAEAV?$allocator@U?$_Tree_node@U?$pair@$$CBHVShader@finnsie@@@std@@PEAX@std@@@2@XZ 0000000140023470 f i game.obj
 0001:00022470       ??$addressof@$$CBV?$basic_filebuf@DU?$char_traits@D@std@@@std@@@std@@YAPEBV?$basic_filebuf@DU?$char_traits@D@std@@@0@AEBV10@@Z 0000000140023470 f i shader_manager.obj
 0001:00022470       ??$move@AEAV?$allocator@UTexture@finnsie@@@std@@@std@@YA$$QEAV?$allocator@UTexture@finnsie@@@0@AEAV10@@Z 0000000140023470 f i game.obj
 0001:00022470       ??$_Refancy@PEA_W$0A@@std@@YAPEA_WPEA_W@Z 0000000140023470 f i gui.obj
 0001:00022470       ??$addressof@V?$basic_string@_WU?$char_traits@_W@std@@V?$allocator@_W@2@@std@@@std@@YAPEAV?$basic_string@_WU?$char_traits@_W@std@@V?$allocator@_W@2@@0@AEAV10@@Z 0000000140023470 f i gui.obj
 0001:00022470       ??0?$allocator@I@std@@QEAA@XZ 0000000140023470 f i game.obj
 0001:00022470       ??$forward@AEBUpiecewise_construct_t@std@@@std@@YAAEBUpiecewise_construct_t@0@AEBU10@@Z 0000000140023470 f i resource_manager.obj
 0001:00022470       ??$_Get_unwrapped@UVertex@finnsie@@@std@@YAPEAUVertex@finnsie@@QEAU12@@Z 0000000140023470 f i game.obj
 0001:00022470       ??$move@AEAV?$allocator@D@std@@@std@@YA$$QEAV?$allocator@D@0@AEAV10@@Z 0000000140023470 f i game.obj
 0001:00022470       ?_Get_first@?$_Compressed_pair@V?$allocator@U_Find_file_handle@filesystem@std@@@std@@V?$_Vector_val@U?$_Simple_types@U_Find_file_handle@filesystem@std@@@std@@@2@$00@std@@QEBAAEBV?$allocator@U_Find_file_handle@filesystem@std@@@2@XZ 0000000140023470 f i gui.obj
 0001:00022470       ??$forward@V?$tuple@$$V@std@@@std@@YA$$QEAV?$tuple@$$V@0@AEAV10@@Z 0000000140023470 f i resource_manager.obj
 0001:00022470       ??$addressof@V?$basic_string@DU?$char_traits@D@std@@V?$allocator@D@2@@std@@@std@@YAPEAV?$basic_string@DU?$char_traits@D@std@@V?$allocator@D@2@@0@AEAV10@@Z 0000000140023470 f i game.obj
 0001:00022470       ??$_Get_unwrapped@U_Find_file_handle@filesystem@std@@@std@@YAPEAU_Find_file_handle@filesystem@0@QEAU120@@Z 0000000140023470 f i gui.obj
 0001:00022470       ??$forward@V?$allocator@Uuniform@finnsie@@@std@@@std@@YA$$QEAV?$allocator@Uuniform@finnsie@@@0@AEAV10@@Z 0000000140023470 f i resource_manager.obj
 0001:00022470       ??$_Kfn@$$CBHVShader@finnsie@@@?$_Tmap_traits@HVShader@finnsie@@U?$less@H@std@@V?$allocator@U?$pair@$$CBHVShader@finnsie@@@std@@@4@$0A@@std@@SAAEBHAEBU?$pair@$$CBHVShader@finnsie@@@1@@Z 0000000140023470 f i resource_manager.obj
 0001:00022470       ?_Get_first@?$_Compressed_pair@V?$allocator@D@std@@V?$_String_val@U?$_Simple_types@D@std@@@2@$00@std@@QEAAAEAV?$allocator@D@2@XZ 0000000140023470 f i game.obj
 0001:00022470       ??$forward@AEBV?$allocator@D@std@@@std@@YAAEBV?$allocator@D@0@AEBV10@@Z 0000000140023470 f i game.obj
 0001:00022470       ??$_Get_unwrapped@PEAVGameObject@finnsie@@@std@@YAPEAPEAVGameObject@finnsie@@QEAPEAV12@@Z 0000000140023470 f i utils.obj
 0001:00022470       ?_Get_first@?$_Compressed_pair@V?$allocator@UTexture@finnsie@@@std@@V?$_Vector_val@U?$_Simple_types@UTexture@finnsie@@@std@@@2@$00@std@@QEAAAEAV?$allocator@UTexture@finnsie@@@2@XZ 0000000140023470 f i game.obj
 0001:00022470       ??$forward@V?$tuple@AEBH@std@@@std@@YA$$QEAV?$tuple@AEBH@0@AEAV10@@Z 0000000140023470 f i resource_manager.obj
 0001:00022470       ??0?$allocator@_W@std@@QEAA@XZ 0000000140023470 f i gui.obj
 0001:00022470       ??$_Get_unwrapped@V?$reverse_iterator@PEB_W@std@@$0A@@std@@YAAEBV?$reverse_iterator@PEB_W@0@AEBV10@@Z 0000000140023470 f i gui.obj
 0001:00022470       ??$_Refancy@PEAUVertex@finnsie@@$0A@@std@@YAPEAUVertex@finnsie@@PEAU12@@Z 0000000140023470 f i game.obj
 0001:00022470       ??$forward@AEBUTexture@finnsie@@@std@@YAAEBUTexture@finnsie@@AEBU12@@Z 0000000140023470 f i game.obj
 0001:00022470       ??$_Kfn@$$CBHUTexture2D@finnsie@@@?$_Tmap_traits@HUTexture2D@finnsie@@U?$less@H@std@@V?$allocator@U?$pair@$$CBHUTexture2D@finnsie@@@std@@@4@$0A@@std@@SAAEBHAEBU?$pair@$$CBHUTexture2D@finnsie@@@1@@Z 0000000140023470 f i resource_manager.obj
 0001:00022470       ??$_Unfancy@_W@std@@YAPEA_WPEA_W@Z 0000000140023470 f i gui.obj
 0001:00022470       ??$forward@AEBI@std@@YAAEBIAEBI@Z 0000000140023470 f i game.obj
 0001:00022470       ??$addressof@PEAD@std@@YAPEAPEADAEAPEAD@Z 0000000140023470 f i game.obj
 0001:00022470       ?_Get_first@?$_Compressed_pair@V?$allocator@U?$_Tree_node@U?$pair@$$CBHUTexture2D@finnsie@@@std@@PEAX@std@@@std@@V?$_Tree_val@U?$_Tree_simple_types@U?$pair@$$CBHUTexture2D@finnsie@@@std@@@std@@@2@$00@std@@QEAAAEAV?$allocator@U?$_Tree_node@U?$pair@$$CBHUTexture2D@finnsie@@@std@@PEAX@std@@@2@XZ 0000000140023470 f i game.obj
 0001:00022470       ??$forward@V?$allocator@I@std@@@std@@YA$$QEAV?$allocator@I@0@AEAV10@@Z 0000000140023470 f i game.obj
 0001:00022470       ??$addressof@$$CBV?$basic_string@DU?$char_traits@D@std@@V?$allocator@D@2@@std@@@std@@YAPEBV?$basic_string@DU?$char_traits@D@std@@V?$allocator@D@2@@0@AEBV10@@Z 0000000140023470 f i game.obj
 0001:00022470       ??$move@AEAPEAVGameObject@finnsie@@@std@@YA$$QEAPEAVGameObject@finnsie@@AEAPEAV12@@Z 0000000140023470 f i utils.obj
 0001:00022470       ??$forward@AEBQEAU?$_Tree_node@U?$pair@$$CBHVShader@finnsie@@@std@@PEAX@std@@@std@@YAAEBQEAU?$_Tree_node@U?$pair@$$CBHVShader@finnsie@@@std@@PEAX@0@AEBQEAU10@@Z 0000000140023470 f i game.obj
 0001:00022470       ??$addressof@V?$_Vector_val@U?$_Simple_types@PEAVGameObject@finnsie@@@std@@@std@@@std@@YAPEAV?$_Vector_val@U?$_Simple_types@PEAVGameObject@finnsie@@@std@@@0@AEAV10@@Z 0000000140023470 f i utils.obj
 0001:00022470       ??$forward@U_Zero_then_variadic_args_t@std@@@std@@YA$$QEAU_Zero_then_variadic_args_t@0@AEAU10@@Z 0000000140023470 f i game.obj
 0001:00022470       ??$_Convert_size@_K@std@@YA_K_K@Z 0000000140023470 f i game.obj
 0001:00022470       ??$forward@UobjFile@finnsie@@@std@@YA$$QEAUobjFile@finnsie@@AEAU12@@Z 0000000140023470 f i gui.obj
 0001:00022470       ?_Get_first@?$_Compressed_pair@V?$allocator@Uuniform@finnsie@@@std@@V?$_Vector_val@U?$_Simple_types@Uuniform@finnsie@@@std@@@2@$00@std@@QEAAAEAV?$allocator@Uuniform@finnsie@@@2@XZ 0000000140023470 f i shader_manager.obj
 0001:00022470       ??$addressof@$$CBV?$basic_string@_WU?$char_traits@_W@std@@V?$allocator@_W@2@@std@@@std@@YAPEBV?$basic_string@_WU?$char_traits@_W@std@@V?$allocator@_W@2@@0@AEBV10@@Z 0000000140023470 f i gui.obj
 0001:00022470       ?_Get_first@?$_Compressed_pair@V?$allocator@I@std@@V?$_Vector_val@U?$_Simple_types@I@std@@@2@$00@std@@QEAAAEAV?$allocator@I@2@XZ 0000000140023470 f i game.obj
 0001:00022470       ?_Get_first@?$_Compressed_pair@U?$default_delete@V_Facet_base@std@@@std@@PEAV_Facet_base@2@$00@std@@QEAAAEAU?$default_delete@V_Facet_base@std@@@2@XZ 0000000140023470 f i shader_manager.obj
 0001:00022470       ??$forward@AEBU?$less@H@std@@@std@@YAAEBU?$less@H@0@AEBU10@@Z 0000000140023470 f i game.obj
 0001:00022470       ??$move@AEAPEAU_Recursive_dir_enum_impl@filesystem@std@@@std@@YA$$QEAPEAU_Recursive_dir_enum_impl@filesystem@0@AEAPEAU120@@Z 0000000140023470 f i gui.obj
 0001:00022470       ??0?$allocator@U?$_Tree_node@U?$pair@$$CBHVShader@finnsie@@@std@@PEAX@std@@@std@@QEAA@XZ 0000000140023470 f i game.obj
 0001:00022470       ??$move@AEAPEAV_Ref_count_base@std@@@std@@YA$$QEAPEAV_Ref_count_base@0@AEAPEAV10@@Z 0000000140023470 f i gui.obj
 0001:00022470       ??$addressof@$$CBV?$_String_val@U?$_Simple_types@D@std@@@std@@@std@@YAPEBV?$_String_val@U?$_Simple_types@D@std@@@0@AEBV10@@Z 0000000140023470 f i game.obj
 0001:00022470       ??$forward@AEBQEAVGameObject@finnsie@@@std@@YAAEBQEAVGameObject@finnsie@@AEBQEAV12@@Z 0000000140023470 f i utils.obj
 0001:00022470       ??$move@AEAUuniform@finnsie@@@std@@YA$$QEAUuniform@finnsie@@AEAU12@@Z 0000000140023470 f i shader_manager.obj
 0001:00022470       ??$move@AEAV?$allocator@_W@std@@@std@@YA$$QEAV?$allocator@_W@0@AEAV10@@Z 0000000140023470 f i gui.obj
 0001:00022470       ??$move@AEAPEB_W@std@@YA$$QEAPEB_WAEAPEB_W@Z 0000000140023470 f i gui.obj
 0001:00022470       ??$forward@AEBUobjFile@finnsie@@@std@@YAAEBUobjFile@finnsie@@AEBU12@@Z 0000000140023470 f i gui.obj
 0001:00022470       ??$move@AEAVpath@filesystem@std@@@std@@YA$$QEAVpath@filesystem@0@AEAV120@@Z 0000000140023470 f i gui.obj
 0001:00022470       ??$_Refancy@PEAPEAVGameObject@finnsie@@$0A@@std@@YAPEAPEAVGameObject@finnsie@@PEAPEAV12@@Z 0000000140023470 f i utils.obj
 0001:00022470       ??$addressof@PEAU?$_Tree_node@U?$pair@$$CBHVShader@finnsie@@@std@@PEAX@std@@@std@@YAPEAPEAU?$_Tree_node@U?$pair@$$CBHVShader@finnsie@@@std@@PEAX@0@AEAPEAU10@@Z 0000000140023470 f i game.obj
 0001:00022470       ?_Get_first@?$_Compressed_pair@V?$allocator@VMesh@finnsie@@@std@@V?$_Vector_val@U?$_Simple_types@VMesh@finnsie@@@std@@@2@$00@std@@QEBAAEBV?$allocator@VMesh@finnsie@@@2@XZ 0000000140023470 f i game.obj
 0001:00022470       ?_Get_first@?$_Compressed_pair@U?$less@H@std@@V?$_Compressed_pair@V?$allocator@U?$_Tree_node@U?$pair@$$CBHUTexture2D@finnsie@@@std@@PEAX@std@@@std@@V?$_Tree_val@U?$_Tree_simple_types@U?$pair@$$CBHUTexture2D@finnsie@@@std@@@std@@@2@$00@2@$00@std@@QEBAAEBU?$less@H@2@XZ 0000000140023470 f i resource_manager.obj
 0001:00022470       ??$move@AEAV?$tuple@AEBH@std@@@std@@YA$$QEAV?$tuple@AEBH@0@AEAV10@@Z 0000000140023470 f i resource_manager.obj
 0001:00022470       ??$move@AEAV?$allocator@I@std@@@std@@YA$$QEAV?$allocator@I@0@AEAV10@@Z 0000000140023470 f i game.obj
 0001:00022470       ??0_Bxty@?$_String_val@U?$_Simple_types@_W@std@@@std@@QEAA@XZ 0000000140023470 f i gui.obj
 0001:00022470       ?_Get_first@?$_Compressed_pair@U?$less@H@std@@V?$_Compressed_pair@V?$allocator@U?$_Tree_node@U?$pair@$$CBHVShader@finnsie@@@std@@PEAX@std@@@std@@V?$_Tree_val@U?$_Tree_simple_types@U?$pair@$$CBHVShader@finnsie@@@std@@@std@@@2@$00@2@$00@std@@QEBAAEBU?$less@H@2@XZ 0000000140023470 f i resource_manager.obj
 0001:00022470       ??$forward@V?$allocator@UTexture@finnsie@@@std@@@std@@YA$$QEAV?$allocator@UTexture@finnsie@@@0@AEAV10@@Z 0000000140023470 f i game.obj
 0001:00022470       ??$forward@PEAU?$_Tree_node@U?$pair@$$CBHUTexture2D@finnsie@@@std@@PEAX@std@@@std@@YA$$QEAPEAU?$_Tree_node@U?$pair@$$CBHUTexture2D@finnsie@@@std@@PEAX@0@AEAPEAU10@@Z 0000000140023470 f i resource_manager.obj
 0001:00022470       ??$move@AEAV?$allocator@UVertex@finnsie@@@std@@@std@@YA$$QEAV?$allocator@UVertex@finnsie@@@0@AEAV10@@Z 0000000140023470 f i game.obj
 0001:00022470       ?_Get_first@?$_Compressed_pair@V?$allocator@UobjFile@finnsie@@@std@@V?$_Vector_val@U?$_Simple_types@UobjFile@finnsie@@@std@@@2@$00@std@@QEAAAEAV?$allocator@UobjFile@finnsie@@@2@XZ 0000000140023470 f i game.obj
 0001:00022470       ??$move@AEAV?$shared_ptr@U_Recursive_dir_enum_impl@filesystem@std@@@std@@@std@@YA$$QEAV?$shared_ptr@U_Recursive_dir_enum_impl@filesystem@std@@@0@AEAV10@@Z 0000000140023470 f i gui.obj
 0001:00022470       ??$move@AEAU_Find_file_handle@filesystem@std@@@std@@YA$$QEAU_Find_file_handle@filesystem@0@AEAU120@@Z 0000000140023470 f i gui.obj
 0001:00022470       ??$forward@V?$allocator@UVertex@finnsie@@@std@@@std@@YA$$QEAV?$allocator@UVertex@finnsie@@@0@AEAV10@@Z 0000000140023470 f i game.obj
 0001:00022470       ??$_Get_unwrapped@UobjFile@finnsie@@@std@@YAPEAUobjFile@finnsie@@QEAU12@@Z 0000000140023470 f i gui.obj
 0001:00022470       ??$forward@U_Find_file_handle@filesystem@std@@@std@@YA$$QEAU_Find_file_handle@filesystem@0@AEAU120@@Z 0000000140023470 f i gui.obj
 0001:00022470       ??$move@AEAUobjFile@finnsie@@@std@@YA$$QEAUobjFile@finnsie@@AEAU12@@Z 0000000140023470 f i gui.obj
 0001:00022470       ??$_Unfancy@$$CB_W@std@@YAPEB_WPEB_W@Z 0000000140023470 f i gui.obj
 0001:00022470       ??$forward@UTexture@finnsie@@@std@@YA$$QEAUTexture@finnsie@@AEAU12@@Z 0000000140023470 f i game.obj
 0001:00022470       ??0?$allocator@PEAVGameObject@finnsie@@@std@@QEAA@XZ 0000000140023470 f i utils.obj
 0001:00022470       ??$forward@Uuniform@finnsie@@@std@@YA$$QEAUuniform@finnsie@@AEAU12@@Z 0000000140023470 f i shader_manager.obj
 0001:00022470       ??$_Refancy@PEB_W$0A@@std@@YAPEB_WPEB_W@Z 0000000140023470 f i gui.obj
 0001:00022470       ?_Get_first@?$_Compressed_pair@V?$allocator@UTexture@finnsie@@@std@@V?$_Vector_val@U?$_Simple_types@UTexture@finnsie@@@std@@@2@$00@std@@QEBAAEBV?$allocator@UTexture@finnsie@@@2@XZ 0000000140023470 f i game.obj
 0001:00022470       ??$forward@AEBQEAU?$_Tree_node@U?$pair@$$CBHUTexture2D@finnsie@@@std@@PEAX@std@@@std@@YAAEBQEAU?$_Tree_node@U?$pair@$$CBHUTexture2D@finnsie@@@std@@PEAX@0@AEBQEAU10@@Z 0000000140023470 f i game.obj
 0001:00022470       ??$forward@AEAPEAV_Facet_base@std@@@std@@YAAEAPEAV_Facet_base@0@AEAPEAV10@@Z 0000000140023470 f i shader_manager.obj
 0001:00022480       ??$_Copy_memmove@PEAUVertex@finnsie@@PEAU12@@std@@YAPEAUVertex@finnsie@@PEAU12@00@Z 0000000140023480 f i game.obj
 0001:00022480       ??$_Copy_memmove@PEAPEAVGameObject@finnsie@@PEAPEAV12@@std@@YAPEAPEAVGameObject@finnsie@@PEAPEAV12@00@Z 0000000140023480 f i utils.obj
 0001:00022480       ??$_Copy_memmove@PEAIPEAI@std@@YAPEAIPEAI00@Z 0000000140023480 f i game.obj
 0001:000224f0       ??$_Copy_unchecked@PEAUTexture@finnsie@@PEAU12@@std@@YAPEAUTexture@finnsie@@PEAU12@00@Z 00000001400234f0 f i game.obj
 0001:00022550       ??$_Deallocate@$0BA@$0A@@std@@YAXPEAX_K@Z 0000000140023550 f i game.obj
 0001:00022590       ??1_Ref_count_base@std@@UEAA@XZ 0000000140023590 f i gui.obj
 0001:00022590       ?_Orphan_all@_Container_base0@std@@QEAAXXZ 0000000140023590 f i game.obj
 0001:00022590       ??$_Destroy_in_place@PEA_W@std@@YAXAEAPEA_W@Z 0000000140023590 f i gui.obj
 0001:00022590       ??$_Destroy_in_place@PEAU?$_Tree_node@U?$pair@$$CBHVShader@finnsie@@@std@@PEAX@std@@@std@@YAXAEAPEAU?$_Tree_node@U?$pair@$$CBHVShader@finnsie@@@std@@PEAX@0@@Z 0000000140023590 f i resource_manager.obj
 0001:00022590       ??1_Bxty@?$_String_val@U?$_Simple_types@_W@std@@@std@@QEAA@XZ 0000000140023590 f i gui.obj
 0001:00022590       ?_Release@_Fake_proxy_ptr_impl@std@@QEAAXXZ 0000000140023590 f i game.obj
 0001:00022590       ??1_Bxty@?$_String_val@U?$_Simple_types@D@std@@@std@@QEAA@XZ 0000000140023590 f i game.obj
 0001:00022590       ??$_Destroy_in_place@PEAU?$_Tree_node@U?$pair@$$CBHUTexture2D@finnsie@@@std@@PEAX@std@@@std@@YAXAEAPEAU?$_Tree_node@U?$pair@$$CBHUTexture2D@finnsie@@@std@@PEAX@0@@Z 0000000140023590 f i game.obj
 0001:00022590       ??$_Destroy_in_place@PEAD@std@@YAXAEAPEAD@Z 0000000140023590 f i game.obj
 0001:00022590       ??1error_category@std@@UEAA@XZ 0000000140023590 f i gui.obj
 0001:000225a0       ?_Orphan_range@?$vector@Uuniform@finnsie@@V?$allocator@Uuniform@finnsie@@@std@@@std@@AEBAXPEAUuniform@finnsie@@0@Z 00000001400235a0 f i shader_manager.obj
 0001:000225a0       ??$_Destroy_range@V?$allocator@PEAVGameObject@finnsie@@@std@@@std@@YAXPEAPEAVGameObject@finnsie@@QEAPEAV12@AEAV?$allocator@PEAVGameObject@finnsie@@@0@@Z 00000001400235a0 f i utils.obj
 0001:000225a0       ??$_Destroy_range@V?$allocator@UVertex@finnsie@@@std@@@std@@YAXPEAUVertex@finnsie@@QEAU12@AEAV?$allocator@UVertex@finnsie@@@0@@Z 00000001400235a0 f i game.obj
 0001:000225a0       ?_Orphan_range@?$vector@IV?$allocator@I@std@@@std@@AEBAXPEAI0@Z 00000001400235a0 f i game.obj
 0001:000225a0       ?_Orphan_range@?$vector@UobjFile@finnsie@@V?$allocator@UobjFile@finnsie@@@std@@@std@@AEBAXPEAUobjFile@finnsie@@0@Z 00000001400235a0 f i gui.obj
 0001:000225a0       ?_Orphan_range@?$vector@VMesh@finnsie@@V?$allocator@VMesh@finnsie@@@std@@@std@@AEBAXPEAVMesh@finnsie@@0@Z 00000001400235a0 f i game.obj
 0001:000225a0       ?_Orphan_range@?$vector@UTexture@finnsie@@V?$allocator@UTexture@finnsie@@@std@@@std@@AEBAXPEAUTexture@finnsie@@0@Z 00000001400235a0 f i game.obj
 0001:000225a0       ?_Orphan_range@?$vector@U_Find_file_handle@filesystem@std@@V?$allocator@U_Find_file_handle@filesystem@std@@@3@@std@@AEBAXPEAU_Find_file_handle@filesystem@2@0@Z 00000001400235a0 f i gui.obj
 0001:000225a0       ?_Orphan_range@?$vector@PEAVGameObject@finnsie@@V?$allocator@PEAVGameObject@finnsie@@@std@@@std@@AEBAXPEAPEAVGameObject@finnsie@@0@Z 00000001400235a0 f i utils.obj
 0001:000225a0       ?_Orphan_range@?$vector@UVertex@finnsie@@V?$allocator@UVertex@finnsie@@@std@@@std@@AEBAXPEAUVertex@finnsie@@0@Z 00000001400235a0 f i game.obj
 0001:000225a0       ??$_Destroy_range@V?$allocator@I@std@@@std@@YAXPEAIQEAIAEAV?$allocator@I@0@@Z 00000001400235a0 f i game.obj
 0001:000225b0       ??$_Destroy_range@V?$allocator@UTexture@finnsie@@@std@@@std@@YAXPEAUTexture@finnsie@@QEAU12@AEAV?$allocator@UTexture@finnsie@@@0@@Z 00000001400235b0 f i game.obj
 0001:00022600       ??$_Destroy_range@V?$allocator@UobjFile@finnsie@@@std@@@std@@YAXPEAUobjFile@finnsie@@QEAU12@AEAV?$allocator@UobjFile@finnsie@@@0@@Z 0000000140023600 f i game.obj
 0001:00022650       ??$_Destroy_range@V?$allocator@VMesh@finnsie@@@std@@@std@@YAXPEAVMesh@finnsie@@QEAV12@AEAV?$allocator@VMesh@finnsie@@@0@@Z 0000000140023650 f i game.obj
 0001:000226a0       ??$_Emplace_back@AEAUTexture@finnsie@@@?$_Uninitialized_backout_al@V?$allocator@UTexture@finnsie@@@std@@@std@@QEAAXAEAUTexture@finnsie@@@Z 00000001400236a0 f i game.obj
 0001:00022710       ??$_Emplace_back@UTexture@finnsie@@@?$_Uninitialized_backout_al@V?$allocator@UTexture@finnsie@@@std@@@std@@QEAAX$$QEAUTexture@finnsie@@@Z 0000000140023710 f i game.obj
 0001:00022780       ??$_Emplace_back@VMesh@finnsie@@@?$_Uninitialized_backout_al@V?$allocator@VMesh@finnsie@@@std@@@std@@QEAAX$$QEAVMesh@finnsie@@@Z 0000000140023780 f i game.obj
 0001:000227f0       ??$_Emplace_back_with_unused_capacity@AEBI@?$vector@IV?$allocator@I@std@@@std@@AEAAAEAIAEBI@Z 00000001400237f0 f i game.obj
 0001:000228a0       ??$_Emplace_back_with_unused_capacity@AEBUTexture@finnsie@@@?$vector@UTexture@finnsie@@V?$allocator@UTexture@finnsie@@@std@@@std@@AEAAAEAUTexture@finnsie@@AEBU23@@Z 00000001400238a0 f i game.obj
 0001:00022950       ??$_Emplace_back_with_unused_capacity@AEBUVertex@finnsie@@@?$vector@UVertex@finnsie@@V?$allocator@UVertex@finnsie@@@std@@@std@@AEAAAEAUVertex@finnsie@@AEBU23@@Z 0000000140023950 f i game.obj
 0001:00022a00       ??$_Emplace_back_with_unused_capacity@VMesh@finnsie@@@?$vector@VMesh@finnsie@@V?$allocator@VMesh@finnsie@@@std@@@std@@AEAAAEAVMesh@finnsie@@$$QEAV23@@Z 0000000140023a00 f i game.obj
 0001:00022ab0       ??$_Emplace_reallocate@AEBI@?$vector@IV?$allocator@I@std@@@std@@QEAAPEAIQEAIAEBI@Z 0000000140023ab0 f i game.obj
 0001:00022cd0       ??$_Emplace_reallocate@AEBUTexture@finnsie@@@?$vector@UTexture@finnsie@@V?$allocator@UTexture@finnsie@@@std@@@std@@QEAAPEAUTexture@finnsie@@QEAU23@AEBU23@@Z 0000000140023cd0 f i game.obj
 0001:00022f00       ??$_Emplace_reallocate@AEBUVertex@finnsie@@@?$vector@UVertex@finnsie@@V?$allocator@UVertex@finnsie@@@std@@@std@@QEAAPEAUVertex@finnsie@@QEAU23@AEBU23@@Z 0000000140023f00 f i game.obj
 0001:00023130       ??$_Emplace_reallocate@VMesh@finnsie@@@?$vector@VMesh@finnsie@@V?$allocator@VMesh@finnsie@@@std@@@std@@QEAAPEAVMesh@finnsie@@QEAV23@$$QEAV23@@Z 0000000140024130 f i game.obj
 0001:00023360       ??$_Erase_head@V?$allocator@U?$_Tree_node@U?$pair@$$CBHUTexture2D@finnsie@@@std@@PEAX@std@@@std@@@?$_Tree_val@U?$_Tree_simple_types@U?$pair@$$CBHUTexture2D@finnsie@@@std@@@std@@@std@@QEAAXAEAV?$allocator@U?$_Tree_node@U?$pair@$$CBHUTexture2D@finnsie@@@std@@PEAX@std@@@1@@Z 0000000140024360 f i game.obj
 0001:000233b0       ??$_Erase_tree@V?$allocator@U?$_Tree_node@U?$pair@$$CBHUTexture2D@finnsie@@@std@@PEAX@std@@@std@@@?$_Tree_val@U?$_Tree_simple_types@U?$pair@$$CBHUTexture2D@finnsie@@@std@@@std@@@std@@QEAAXAEAV?$allocator@U?$_Tree_node@U?$pair@$$CBHUTexture2D@finnsie@@@std@@PEAX@std@@@1@PEAU?$_Tree_node@U?$pair@$$CBHUTexture2D@finnsie@@@std@@PEAX@1@@Z 00000001400243b0 f i game.obj
 0001:00023420       ??$_Freenode0@V?$allocator@U?$_Tree_node@U?$pair@$$CBHUTexture2D@finnsie@@@std@@PEAX@std@@@std@@@?$_Tree_node@U?$pair@$$CBHUTexture2D@finnsie@@@std@@PEAX@std@@SAXAEAV?$allocator@U?$_Tree_node@U?$pair@$$CBHUTexture2D@finnsie@@@std@@PEAX@std@@@1@PEAU01@@Z 0000000140024420 f i game.obj
 0001:00023420       ??$_Freenode0@V?$allocator@U?$_Tree_node@U?$pair@$$CBHVShader@finnsie@@@std@@PEAX@std@@@std@@@?$_Tree_node@U?$pair@$$CBHVShader@finnsie@@@std@@PEAX@std@@SAXAEAV?$allocator@U?$_Tree_node@U?$pair@$$CBHVShader@finnsie@@@std@@PEAX@std@@@1@PEAU01@@Z 0000000140024420 f i renderer.obj
 0001:00023480       ??$_Freenode@V?$allocator@U?$_Tree_node@U?$pair@$$CBHUTexture2D@finnsie@@@std@@PEAX@std@@@std@@@?$_Tree_node@U?$pair@$$CBHUTexture2D@finnsie@@@std@@PEAX@std@@SAXAEAV?$allocator@U?$_Tree_node@U?$pair@$$CBHUTexture2D@finnsie@@@std@@PEAX@std@@@1@PEAU01@@Z 0000000140024480 f i game.obj
 0001:000234d0       ??$_Get_size_of_n@$00@std@@YA_K_K@Z 00000001400244d0 f i game.obj
 0001:000234f0       ??$_Get_size_of_n@$03@std@@YA_K_K@Z 00000001400244f0 f i game.obj
 0001:00023540       ??$_Get_size_of_n@$0DI@@std@@YA_K_K@Z 0000000140024540 f i game.obj
 0001:00023580       ??$_Get_size_of_n@$0EI@@std@@YA_K_K@Z 0000000140024580 f i game.obj
 0001:000235c0       ??$_Get_size_of_n@$0FI@@std@@YA_K_K@Z 00000001400245c0 f i game.obj
 0001:00023600       ??$_Get_unwrapped@V?$_Vector_iterator@V?$_Vector_val@U?$_Simple_types@UTexture@finnsie@@@std@@@std@@@std@@$0A@@std@@YAPEAUTexture@finnsie@@AEBV?$_Vector_iterator@V?$_Vector_val@U?$_Simple_types@UTexture@finnsie@@@std@@@std@@@0@@Z 0000000140024600 f i game.obj
 0001:00023600       ??$_Get_unwrapped@V?$_Vector_iterator@V?$_Vector_val@U?$_Simple_types@PEAVGameObject@finnsie@@@std@@@std@@@std@@$0A@@std@@YAPEAPEAVGameObject@finnsie@@AEBV?$_Vector_iterator@V?$_Vector_val@U?$_Simple_types@PEAVGameObject@finnsie@@@std@@@std@@@0@@Z 0000000140024600 f i utils.obj
 0001:00023600       ??$_Get_unwrapped@V?$_String_const_iterator@V?$_String_val@U?$_Simple_types@_W@std@@@std@@@std@@$0A@@std@@YAPEB_WAEBV?$_String_const_iterator@V?$_String_val@U?$_Simple_types@_W@std@@@std@@@0@@Z 0000000140024600 f i gui.obj
 0001:00023620       ??$_Insert_range@PEAUTexture@finnsie@@@?$vector@UTexture@finnsie@@V?$allocator@UTexture@finnsie@@@std@@@std@@AEAAXV?$_Vector_const_iterator@V?$_Vector_val@U?$_Simple_types@UTexture@finnsie@@@std@@@std@@@1@PEAUTexture@finnsie@@1Uforward_iterator_tag@1@@Z 0000000140024620 f i game.obj
 0001:00023a40       ??$_Max_value@PEAD@std@@YAAEBQEADAEBQEAD0@Z 0000000140024a40 f i shader_manager.obj
 0001:00023a40       ??$_Max_value@_K@std@@YAAEB_KAEB_K0@Z 0000000140024a40 f i game.obj
 0001:00023a90       ??$_Min_value@_K@std@@YAAEB_KAEB_K0@Z 0000000140024a90 f i game.obj
 0001:00023ae0       ??$_Move_backward_unchecked@PEAUTexture@finnsie@@PEAU12@@std@@YAPEAUTexture@finnsie@@PEAU12@00@Z 0000000140024ae0 f i game.obj
 0001:00023b40       ??$_Move_unchecked@PEAUTexture@finnsie@@PEAU12@@std@@YAPEAUTexture@finnsie@@PEAU12@00@Z 0000000140024b40 f i game.obj
 0001:00023ba0       ??$_Pocma@V?$allocator@D@std@@@std@@YAXAEAV?$allocator@D@0@0@Z 0000000140024ba0 f i game.obj
 0001:00023ba0       ??$_Pocma@V?$allocator@Uuniform@finnsie@@@std@@@std@@YAXAEAV?$allocator@Uuniform@finnsie@@@0@0@Z 0000000140024ba0 f i renderer.obj
 0001:00023ba0       ??$_Pocma@V?$allocator@_W@std@@@std@@YAXAEAV?$allocator@_W@0@0@Z 0000000140024ba0 f i gui.obj
 0001:00023bc0       ??$_Reallocate_for@V<lambda_66f57f934f28d61049862f64df852ff0>@@PEBD@?$basic_string@DU?$char_traits@D@std@@V?$allocator@D@2@@std@@AEAAAEAV01@_KV<lambda_66f57f934f28d61049862f64df852ff0>@@PEBD@Z 0000000140024bc0 f i game.obj
 0001:00023ce0       ??$_Reallocate_grow_by@V<lambda_319d5e083f45f90dcdce5dce53cbb275>@@D@?$basic_string@DU?$char_traits@D@std@@V?$allocator@D@2@@std@@AEAAAEAV01@_KV<lambda_319d5e083f45f90dcdce5dce53cbb275>@@D@Z 0000000140024ce0 f i game.obj
 0001:00023e90       ??$_Reallocate_grow_by@V<lambda_65e615be2a453ca0576c979606f46740>@@PEBD_K@?$basic_string@DU?$char_traits@D@std@@V?$allocator@D@2@@std@@AEAAAEAV01@_KV<lambda_65e615be2a453ca0576c979606f46740>@@PEBD_K@Z 0000000140024e90 f i game.obj
 0001:00024060       ??$_Reallocate_grow_by@V<lambda_9013ee9e23efe4882b67eff5b0ecf103>@@$$V@?$basic_string@DU?$char_traits@D@std@@V?$allocator@D@2@@std@@AEAAAEAV01@_KV<lambda_9013ee9e23efe4882b67eff5b0ecf103>@@@Z 0000000140025060 f i game.obj
 0001:000241f0       ??$_Traits_rfind_ch@U?$char_traits@D@std@@@std@@YA_KQEBD_K1D@Z 00000001400251f0 f i game.obj
 0001:000242a0       ??$_Ucopy@PEAI@?$vector@IV?$allocator@I@std@@@std@@AEAAPEAIPEAI00@Z 00000001400252a0 f i game.obj
 0001:000242e0       ??$_Ucopy@PEAUTexture@finnsie@@@?$vector@UTexture@finnsie@@V?$allocator@UTexture@finnsie@@@std@@@std@@AEAAPEAUTexture@finnsie@@PEAU23@00@Z 00000001400252e0 f i game.obj
 0001:00024320       ??$_Ucopy@PEAUVertex@finnsie@@@?$vector@UVertex@finnsie@@V?$allocator@UVertex@finnsie@@@std@@@std@@AEAAPEAUVertex@finnsie@@PEAU23@00@Z 0000000140025320 f i game.obj
 0001:00024360       ??$_Uninitialized_copy@PEAIV?$allocator@I@std@@@std@@YAPEAIQEAI0PEAIAEAV?$allocator@I@0@@Z 0000000140025360 f i game.obj
 0001:000243e0       ??$_Uninitialized_copy@PEAUTexture@finnsie@@V?$allocator@UTexture@finnsie@@@std@@@std@@YAPEAUTexture@finnsie@@QEAU12@0PEAU12@AEAV?$allocator@UTexture@finnsie@@@0@@Z 00000001400253e0 f i game.obj
 0001:00024480       ??$_Uninitialized_copy@PEAUVertex@finnsie@@V?$allocator@UVertex@finnsie@@@std@@@std@@YAPEAUVertex@finnsie@@QEAU12@0PEAU12@AEAV?$allocator@UVertex@finnsie@@@0@@Z 0000000140025480 f i game.obj
 0001:00024510       ??$_Uninitialized_move@PEAIV?$allocator@I@std@@@std@@YAPEAIQEAI0PEAIAEAV?$allocator@I@0@@Z 0000000140025510 f i game.obj
 0001:00024590       ??$_Uninitialized_move@PEAUTexture@finnsie@@V?$allocator@UTexture@finnsie@@@std@@@std@@YAPEAUTexture@finnsie@@QEAU12@0PEAU12@AEAV?$allocator@UTexture@finnsie@@@0@@Z 0000000140025590 f i game.obj
 0001:00024640       ??$_Uninitialized_move@PEAUVertex@finnsie@@V?$allocator@UVertex@finnsie@@@std@@@std@@YAPEAUVertex@finnsie@@QEAU12@0PEAU12@AEAV?$allocator@UVertex@finnsie@@@0@@Z 0000000140025640 f i game.obj
 0001:000246c0       ??$_Uninitialized_move@PEAVMesh@finnsie@@V?$allocator@VMesh@finnsie@@@std@@@std@@YAPEAVMesh@finnsie@@QEAV12@0PEAV12@AEAV?$allocator@VMesh@finnsie@@@0@@Z 00000001400256c0 f i game.obj
 0001:00024770       ??$advance@PEAUTexture@finnsie@@_J@std@@YAXAEAPEAUTexture@finnsie@@_J@Z 0000000140025770 f i game.obj
 0001:000247a0       ??$assign@PEAIX@?$vector@IV?$allocator@I@std@@@std@@QEAAXPEAI0@Z 00000001400257a0 f i game.obj
 0001:00024830       ??$assign@PEAUTexture@finnsie@@X@?$vector@UTexture@finnsie@@V?$allocator@UTexture@finnsie@@@std@@@std@@QEAAXPEAUTexture@finnsie@@0@Z 0000000140025830 f i game.obj
 0001:000248c0       ??$assign@PEAUVertex@finnsie@@X@?$vector@UVertex@finnsie@@V?$allocator@UVertex@finnsie@@@std@@@std@@QEAAXPEAUVertex@finnsie@@0@Z 00000001400258c0 f i game.obj
 0001:00024950       ??$construct@IAEBI@?$_Default_allocator_traits@V?$allocator@I@std@@@std@@SAXAEAV?$allocator@I@1@QEAIAEBI@Z 0000000140025950 f i game.obj
 0001:00024990       ??$construct@UTexture@finnsie@@AEAU12@@?$_Default_allocator_traits@V?$allocator@UTexture@finnsie@@@std@@@std@@SAXAEAV?$allocator@UTexture@finnsie@@@1@QEAUTexture@finnsie@@AEAU34@@Z 0000000140025990 f i game.obj
 0001:00024990       ??$construct@UTexture@finnsie@@AEBU12@@?$_Default_allocator_traits@V?$allocator@UTexture@finnsie@@@std@@@std@@SAXAEAV?$allocator@UTexture@finnsie@@@1@QEAUTexture@finnsie@@AEBU34@@Z 0000000140025990 f i game.obj
 0001:000249e0       ??$construct@UTexture@finnsie@@U12@@?$_Default_allocator_traits@V?$allocator@UTexture@finnsie@@@std@@@std@@SAXAEAV?$allocator@UTexture@finnsie@@@1@QEAUTexture@finnsie@@$$QEAU34@@Z 00000001400259e0 f i game.obj
 0001:00024a30       ??$construct@UVertex@finnsie@@AEBU12@@?$_Default_allocator_traits@V?$allocator@UVertex@finnsie@@@std@@@std@@SAXAEAV?$allocator@UVertex@finnsie@@@1@QEAUVertex@finnsie@@AEBU34@@Z 0000000140025a30 f i game.obj
 0001:00024a80       ??$construct@VMesh@finnsie@@V12@@?$_Default_allocator_traits@V?$allocator@VMesh@finnsie@@@std@@@std@@SAXAEAV?$allocator@VMesh@finnsie@@@1@QEAVMesh@finnsie@@$$QEAV34@@Z 0000000140025a80 f i game.obj
 0001:00024ad0       ??$destroy@UTexture@finnsie@@@?$_Default_allocator_traits@V?$allocator@UTexture@finnsie@@@std@@@std@@SAXAEAV?$allocator@UTexture@finnsie@@@1@QEAUTexture@finnsie@@@Z 0000000140025ad0 f i game.obj
 0001:00024af0       ??$destroy@UobjFile@finnsie@@@?$_Default_allocator_traits@V?$allocator@UobjFile@finnsie@@@std@@@std@@SAXAEAV?$allocator@UobjFile@finnsie@@@1@QEAUobjFile@finnsie@@@Z 0000000140025af0 f i game.obj
 0001:00024b10       ??$destroy@VMesh@finnsie@@@?$_Default_allocator_traits@V?$allocator@VMesh@finnsie@@@std@@@std@@SAXAEAV?$allocator@VMesh@finnsie@@@1@QEAVMesh@finnsie@@@Z 0000000140025b10 f i game.obj
 0001:00024b30       ??$distance@PEAI@std@@YA_JPEAI0@Z 0000000140025b30 f i game.obj
 0001:00024b50       ??$distance@PEAUTexture@finnsie@@@std@@YA_JPEAUTexture@finnsie@@0@Z 0000000140025b50 f i game.obj
 0001:00024b80       ??$distance@PEAUVertex@finnsie@@@std@@YA_JPEAUVertex@finnsie@@0@Z 0000000140025b80 f i game.obj
 0001:00024bb0       ??$emplace_back@AEBI@?$vector@IV?$allocator@I@std@@@std@@QEAAAEAIAEBI@Z 0000000140025bb0 f i game.obj
 0001:00024c50       ??$emplace_back@AEBUTexture@finnsie@@@?$vector@UTexture@finnsie@@V?$allocator@UTexture@finnsie@@@std@@@std@@QEAAAEAUTexture@finnsie@@AEBU23@@Z 0000000140025c50 f i game.obj
 0001:00024cf0       ??$emplace_back@AEBUVertex@finnsie@@@?$vector@UVertex@finnsie@@V?$allocator@UVertex@finnsie@@@std@@@std@@QEAAAEAUVertex@finnsie@@AEBU23@@Z 0000000140025cf0 f i game.obj
 0001:00024d90       ??$emplace_back@VMesh@finnsie@@@?$vector@VMesh@finnsie@@V?$allocator@VMesh@finnsie@@@std@@@std@@QEAAAEAVMesh@finnsie@@$$QEAV23@@Z 0000000140025d90 f i game.obj
 0001:00024e30       ??$exchange@PEAV_Facet_base@std@@PEAV12@@std@@YAPEAV_Facet_base@0@AEAPEAV10@$$QEAPEAV10@@Z 0000000140025e30 f i shader_manager.obj
 0001:00024e30       ??$exchange@PEAU?$_Tree_node@U?$pair@$$CBHUTexture2D@finnsie@@@std@@PEAX@std@@AEAPEAU12@@std@@YAPEAU?$_Tree_node@U?$pair@$$CBHUTexture2D@finnsie@@@std@@PEAX@0@AEAPEAU10@0@Z 0000000140025e30 f i game.obj
 0001:00024e30       ??$exchange@W4__std_fs_dir_handle@@AEAW41@@std@@YA?AW4__std_fs_dir_handle@@AEAW41@0@Z 0000000140025e30 f i gui.obj
 0001:00024e30       ??$exchange@W4__std_fs_dir_handle@@W41@@std@@YA?AW4__std_fs_dir_handle@@AEAW41@$$QEAW41@@Z 0000000140025e30 f i gui.obj
 0001:00024e30       ??$exchange@PEAU?$_Tree_node@U?$pair@$$CBHUTexture2D@finnsie@@@std@@PEAX@std@@$$T@std@@YAPEAU?$_Tree_node@U?$pair@$$CBHUTexture2D@finnsie@@@std@@PEAX@0@AEAPEAU10@$$QEA$$T@Z 0000000140025e30 f i resource_manager.obj
 0001:00024e30       ??$exchange@PEAU?$_Tree_node@U?$pair@$$CBHVShader@finnsie@@@std@@PEAX@std@@$$T@std@@YAPEAU?$_Tree_node@U?$pair@$$CBHVShader@finnsie@@@std@@PEAX@0@AEAPEAU10@$$QEA$$T@Z 0000000140025e30 f i resource_manager.obj
 0001:00024e30       ??$exchange@PEAU?$_Tree_node@U?$pair@$$CBHVShader@finnsie@@@std@@PEAX@std@@AEAPEAU12@@std@@YAPEAU?$_Tree_node@U?$pair@$$CBHVShader@finnsie@@@std@@PEAX@0@AEAPEAU10@0@Z 0000000140025e30 f i renderer.obj
 0001:00024e70       ??$insert@V?$_Vector_iterator@V?$_Vector_val@U?$_Simple_types@UTexture@finnsie@@@std@@@std@@@std@@X@?$vector@UTexture@finnsie@@V?$allocator@UTexture@finnsie@@@std@@@std@@QEAA?AV?$_Vector_iterator@V?$_Vector_val@U?$_Simple_types@UTexture@finnsie@@@std@@@std@@@1@V?$_Vector_const_iterator@V?$_Vector_val@U?$_Simple_types@UTexture@finnsie@@@std@@@std@@@1@V21@1@Z 0000000140025e70 f i game.obj
 0001:00024f80       ??$next@PEAUTexture@finnsie@@@std@@YAPEAUTexture@finnsie@@PEAU12@_J@Z 0000000140025f80 f i game.obj
 0001:00024fb0       ??$radians@M@glm@@YAMM@Z   0000000140025fb0 f i game.obj
 0001:00024fd0       ??0?$_String_val@U?$_Simple_types@_W@std@@@std@@QEAA@XZ 0000000140025fd0 f i gui.obj
 0001:00024fd0       ??0?$_String_val@U?$_Simple_types@D@std@@@std@@QEAA@XZ 0000000140025fd0 f i game.obj
 0001:00025010       ??0?$_Tree@V?$_Tmap_traits@HUTexture2D@finnsie@@U?$less@H@std@@V?$allocator@U?$pair@$$CBHUTexture2D@finnsie@@@std@@@4@$0A@@std@@@std@@QEAA@AEBU?$less@H@1@@Z 0000000140026010 f i game.obj
 0001:00025010       ??0?$_Tree@V?$_Tmap_traits@HVShader@finnsie@@U?$less@H@std@@V?$allocator@U?$pair@$$CBHVShader@finnsie@@@std@@@4@$0A@@std@@@std@@QEAA@AEBU?$less@H@1@@Z 0000000140026010 f i game.obj
 0001:00025060       ??0?$_Tree_val@U?$_Tree_simple_types@U?$pair@$$CBHUTexture2D@finnsie@@@std@@@std@@@std@@QEAA@XZ 0000000140026060 f i game.obj
 0001:00025060       ??0?$_Tree_val@U?$_Tree_simple_types@U?$pair@$$CBHVShader@finnsie@@@std@@@std@@@std@@QEAA@XZ 0000000140026060 f i game.obj
 0001:00025060       ??0?$_Ptr_base@U_Recursive_dir_enum_impl@filesystem@std@@@std@@IEAA@XZ 0000000140026060 f i gui.obj
 0001:00025090       ??0?$_Uninitialized_backout_al@V?$allocator@UTexture@finnsie@@@std@@@std@@QEAA@PEAUTexture@finnsie@@AEAV?$allocator@UTexture@finnsie@@@1@@Z 0000000140026090 f i game.obj
 0001:00025090       ??0?$_Uninitialized_backout_al@V?$allocator@UobjFile@finnsie@@@std@@@std@@QEAA@PEAUobjFile@finnsie@@AEAV?$allocator@UobjFile@finnsie@@@1@@Z 0000000140026090 f i gui.obj
 0001:00025090       ??0?$_Uninitialized_backout_al@V?$allocator@VMesh@finnsie@@@std@@@std@@QEAA@PEAVMesh@finnsie@@AEAV?$allocator@VMesh@finnsie@@@1@@Z 0000000140026090 f i game.obj
 0001:00025090       ??0?$_Uninitialized_backout_al@V?$allocator@U_Find_file_handle@filesystem@std@@@std@@@std@@QEAA@PEAU_Find_file_handle@filesystem@1@AEAV?$allocator@U_Find_file_handle@filesystem@std@@@1@@Z 0000000140026090 f i gui.obj
 0001:00025090       ??0?$_Uninitialized_backout_al@V?$allocator@Uuniform@finnsie@@@std@@@std@@QEAA@PEAUuniform@finnsie@@AEAV?$allocator@Uuniform@finnsie@@@1@@Z 0000000140026090 f i shader_manager.obj
 0001:000250d0       ??0?$_Vector_const_iterator@V?$_Vector_val@U?$_Simple_types@UTexture@finnsie@@@std@@@std@@@std@@QEAA@PEAUTexture@finnsie@@PEBU_Container_base0@1@@Z 00000001400260d0 f i game.obj
 0001:000250d0       ??0?$_Tree_unchecked_const_iterator@V?$_Tree_val@U?$_Tree_simple_types@U?$pair@$$CBHUTexture2D@finnsie@@@std@@@std@@@std@@U_Iterator_base0@2@@std@@QEAA@PEAU?$_Tree_node@U?$pair@$$CBHUTexture2D@finnsie@@@std@@PEAX@1@PEBV?$_Tree_val@U?$_Tree_simple_types@U?$pair@$$CBHUTexture2D@finnsie@@@std@@@std@@@1@@Z 00000001400260d0 f i resource_manager.obj
 0001:000250d0       ??0?$_Vector_const_iterator@V?$_Vector_val@U?$_Simple_types@PEAVGameObject@finnsie@@@std@@@std@@@std@@QEAA@PEAPEAVGameObject@finnsie@@PEBU_Container_base0@1@@Z 00000001400260d0 f i utils.obj
 0001:000250d0       ??0?$_Tree_unchecked_const_iterator@V?$_Tree_val@U?$_Tree_simple_types@U?$pair@$$CBHVShader@finnsie@@@std@@@std@@@std@@U_Iterator_base0@2@@std@@QEAA@PEAU?$_Tree_node@U?$pair@$$CBHVShader@finnsie@@@std@@PEAX@1@PEBV?$_Tree_val@U?$_Tree_simple_types@U?$pair@$$CBHVShader@finnsie@@@std@@@std@@@1@@Z 00000001400260d0 f i resource_manager.obj
 0001:000250d0       ??0?$_String_const_iterator@V?$_String_val@U?$_Simple_types@_W@std@@@std@@@std@@QEAA@PEB_WPEBU_Container_base0@1@@Z 00000001400260d0 f i gui.obj
 0001:00025110       ??0?$_Tree_unchecked_iterator@V?$_Tree_val@U?$_Tree_simple_types@U?$pair@$$CBHVShader@finnsie@@@std@@@std@@@std@@@std@@QEAA@PEAU?$_Tree_node@U?$pair@$$CBHVShader@finnsie@@@std@@PEAX@1@PEBV?$_Tree_val@U?$_Tree_simple_types@U?$pair@$$CBHVShader@finnsie@@@std@@@std@@@1@@Z 0000000140026110 f i resource_manager.obj
 0001:00025110       ??0?$_String_iterator@V?$_String_val@U?$_Simple_types@_W@std@@@std@@@std@@QEAA@PEB_WPEBU_Container_base0@1@@Z 0000000140026110 f i gui.obj
 0001:00025110       ??0?$_Vector_iterator@V?$_Vector_val@U?$_Simple_types@UTexture@finnsie@@@std@@@std@@@std@@QEAA@PEAUTexture@finnsie@@PEBU_Container_base0@1@@Z 0000000140026110 f i game.obj
 0001:00025110       ??0?$_Vector_iterator@V?$_Vector_val@U?$_Simple_types@PEAVGameObject@finnsie@@@std@@@std@@@std@@QEAA@PEAPEAVGameObject@finnsie@@PEBU_Container_base0@1@@Z 0000000140026110 f i utils.obj
 0001:00025110       ??0?$_Tree_unchecked_iterator@V?$_Tree_val@U?$_Tree_simple_types@U?$pair@$$CBHUTexture2D@finnsie@@@std@@@std@@@std@@@std@@QEAA@PEAU?$_Tree_node@U?$pair@$$CBHUTexture2D@finnsie@@@std@@PEAX@1@PEBV?$_Tree_val@U?$_Tree_simple_types@U?$pair@$$CBHUTexture2D@finnsie@@@std@@@std@@@1@@Z 0000000140026110 f i resource_manager.obj
 0001:00025150       ??0?$_Vector_val@U?$_Simple_types@PEAVGameObject@finnsie@@@std@@@std@@QEAA@XZ 0000000140026150 f i utils.obj
 0001:00025150       ??0?$_Vector_val@U?$_Simple_types@I@std@@@std@@QEAA@XZ 0000000140026150 f i game.obj
 0001:00025150       ??0?$_Vector_val@U?$_Simple_types@U_Find_file_handle@filesystem@std@@@std@@@std@@QEAA@XZ 0000000140026150 f i gui.obj
 0001:00025150       ??0?$_Vector_val@U?$_Simple_types@UobjFile@finnsie@@@std@@@std@@QEAA@XZ 0000000140026150 f i game.obj
 0001:00025150       ??0?$_Vector_val@U?$_Simple_types@UTexture@finnsie@@@std@@@std@@QEAA@XZ 0000000140026150 f i game.obj
 0001:00025150       ??0?$_Vector_val@U?$_Simple_types@VMesh@finnsie@@@std@@@std@@QEAA@XZ 0000000140026150 f i game.obj
 0001:00025150       ??0?$_Vector_val@U?$_Simple_types@UVertex@finnsie@@@std@@@std@@QEAA@XZ 0000000140026150 f i game.obj
 0001:00025150       ??0?$_Vector_val@U?$_Simple_types@Uuniform@finnsie@@@std@@@std@@QEAA@XZ 0000000140026150 f i resource_manager.obj
 0001:00025190       ??0?$basic_string@DU?$char_traits@D@std@@V?$allocator@D@2@@std@@QEAA@$$QEAV01@@Z 0000000140026190 f i game.obj
 0001:00025230       ??0?$basic_string@DU?$char_traits@D@std@@V?$allocator@D@2@@std@@QEAA@AEBV01@@Z 0000000140026230 f i game.obj
 0001:000252d0       ??0?$basic_string@DU?$char_traits@D@std@@V?$allocator@D@2@@std@@QEAA@AEBV01@_K1AEBV?$allocator@D@1@@Z 00000001400262d0 f i game.obj
 0001:00025360       ??0?$basic_string@DU?$char_traits@D@std@@V?$allocator@D@2@@std@@QEAA@QEBD@Z 0000000140026360 f i game.obj
 0001:000253e0       ??0?$basic_string@DU?$char_traits@D@std@@V?$allocator@D@2@@std@@QEAA@XZ 00000001400263e0 f i game.obj
 0001:00025440       ??0?$map@HVShader@finnsie@@U?$less@H@std@@V?$allocator@U?$pair@$$CBHVShader@finnsie@@@std@@@4@@std@@QEAA@XZ 0000000140026440 f i game.obj
 0001:00025440       ??0?$map@HUTexture2D@finnsie@@U?$less@H@std@@V?$allocator@U?$pair@$$CBHUTexture2D@finnsie@@@std@@@4@@std@@QEAA@XZ 0000000140026440 f i game.obj
 0001:00025470       ??0ImVec2@@QEAA@MM@Z       0000000140026470 f i gui.obj
 0001:00025470       ??0?$vec@$01M$0A@@glm@@QEAA@MM@Z 0000000140026470 f i game.obj
 0001:000254b0       ??0?$vec@$02M$0A@@glm@@QEAA@MMM@Z 00000001400264b0 f i game.obj
 0001:00025500       ??0?$vector@UTexture@finnsie@@V?$allocator@UTexture@finnsie@@@std@@@std@@QEAA@$$QEAV01@@Z 0000000140026500 f i game.obj
 0001:00025500       ??0?$vector@UVertex@finnsie@@V?$allocator@UVertex@finnsie@@@std@@@std@@QEAA@$$QEAV01@@Z 0000000140026500 f i game.obj
 0001:00025500       ??0?$vector@IV?$allocator@I@std@@@std@@QEAA@$$QEAV01@@Z 0000000140026500 f i game.obj
 0001:000255a0       ??0?$vector@IV?$allocator@I@std@@@std@@QEAA@AEBV01@@Z 00000001400265a0 f i game.obj
 0001:000256e0       ??0?$vector@U_Find_file_handle@filesystem@std@@V?$allocator@U_Find_file_handle@filesystem@std@@@3@@std@@QEAA@XZ 00000001400266e0 f i gui.obj
 0001:000256e0       ??0?$vector@VMesh@finnsie@@V?$allocator@VMesh@finnsie@@@std@@@std@@QEAA@XZ 00000001400266e0 f i game.obj
 0001:000256e0       ??0?$vector@IV?$allocator@I@std@@@std@@QEAA@XZ 00000001400266e0 f i game.obj
 0001:000256e0       ??0?$vector@UobjFile@finnsie@@V?$allocator@UobjFile@finnsie@@@std@@@std@@QEAA@XZ 00000001400266e0 f i game.obj
 0001:000256e0       ??0?$vector@Uuniform@finnsie@@V?$allocator@Uuniform@finnsie@@@std@@@std@@QEAA@XZ 00000001400266e0 f i resource_manager.obj
 0001:000256e0       ??0?$vector@UVertex@finnsie@@V?$allocator@UVertex@finnsie@@@std@@@std@@QEAA@XZ 00000001400266e0 f i game.obj
 0001:000256e0       ??0?$vector@UTexture@finnsie@@V?$allocator@UTexture@finnsie@@@std@@@std@@QEAA@XZ 00000001400266e0 f i game.obj
 0001:000256e0       ??0?$vector@PEAVGameObject@finnsie@@V?$allocator@PEAVGameObject@finnsie@@@std@@@std@@QEAA@XZ 00000001400266e0 f i utils.obj
 0001:00025730       ??0?$vector@UTexture@finnsie@@V?$allocator@UTexture@finnsie@@@std@@@std@@QEAA@AEBV01@@Z 0000000140026730 f i game.obj
 0001:00025870       ??0?$vector@UVertex@finnsie@@V?$allocator@UVertex@finnsie@@@std@@@std@@QEAA@AEBV01@@Z 0000000140026870 f i game.obj
 0001:000259b0       ??0Camera@finnsie@@QEAA@U?$vec@$02M$0A@@glm@@0MM@Z 00000001400269b0 f i game.obj
 0001:00025a90       ??0GameObject@finnsie@@QEAA@V?$basic_string@DU?$char_traits@D@std@@V?$allocator@D@2@@std@@U?$vec@$02M$0A@@glm@@1M0@Z 0000000140026a90 f i game.obj
 0001:00025bb0       ??0Gui@finnsie@@QEAA@XZ    0000000140026bb0 f i game.obj
 0001:00025c10       ??0Mesh@finnsie@@QEAA@$$QEAV01@@Z 0000000140026c10 f i game.obj
 0001:00025cc0       ??0Mesh@finnsie@@QEAA@V?$vector@UVertex@finnsie@@V?$allocator@UVertex@finnsie@@@std@@@std@@V?$vector@IV?$allocator@I@std@@@3@V?$vector@UTexture@finnsie@@V?$allocator@UTexture@finnsie@@@std@@@3@@Z 0000000140026cc0 f i game.obj
 0001:00025d80       ??0Model@finnsie@@QEAA@AEBV?$basic_string@DU?$char_traits@D@std@@V?$allocator@D@2@@std@@_N@Z 0000000140026d80 f i game.obj
 0001:00025df0       ??0ResourceManager@finnsie@@QEAA@XZ 0000000140026df0 f i game.obj
 0001:00025e30       ??0Texture@finnsie@@QEAA@$$QEAU01@@Z 0000000140026e30 f i game.obj
 0001:00025ea0       ??0Texture@finnsie@@QEAA@AEBU01@@Z 0000000140026ea0 f i game.obj
 0001:00025f10       ??0Texture@finnsie@@QEAA@XZ 0000000140026f10 f i game.obj
 0001:00025f50       ??0_Fake_proxy_ptr_impl@std@@QEAA@AEBU_Fake_allocator@1@AEBU_Container_base0@1@@Z 0000000140026f50 f i game.obj
 0001:00025f70       ??0aiFace@@QEAA@AEBU0@@Z   0000000140026f70 f i game.obj
 0001:00025fb0       ??0aiString@@QEAA@XZ       0000000140026fb0 f i game.obj
 0001:00026000       ??0bad_alloc@std@@AEAA@QEBD@Z 0000000140027000 f i game.obj
 0001:00026040       ??0bad_alloc@std@@QEAA@AEBV01@@Z 0000000140027040 f i game.obj
 0001:00026080       ??0bad_array_new_length@std@@QEAA@AEBV01@@Z 0000000140027080 f i game.obj
 0001:000260c0       ??0bad_array_new_length@std@@QEAA@XZ 00000001400270c0 f i game.obj
 0001:00026100       ??0draw_info@finnsie@@QEAA@XZ 0000000140027100 f i game.obj
 0001:00026140       ??0exception@std@@QEAA@AEBV01@@Z 0000000140027140 f i game.obj
 0001:000261a0       ??0exception@std@@QEAA@QEBDH@Z 00000001400271a0 f i game.obj
 0001:000261f0       ??0gui_state@finnsie@@QEAA@XZ 00000001400271f0 f i game.obj
 0001:00026210       ??0light_info@finnsie@@QEAA@XZ 0000000140027210 f i game.obj
 0001:00026250       ??0water_info@finnsie@@QEAA@XZ 0000000140027250 f i game.obj
 0001:00026320       ??1?$_Compressed_pair@V?$allocator@_W@std@@V?$_String_val@U?$_Simple_types@_W@std@@@2@$00@std@@QEAA@XZ 0000000140027320 f i gui.obj
 0001:00026320       ??1?$_Compressed_pair@V?$allocator@D@std@@V?$_String_val@U?$_Simple_types@D@std@@@2@$00@std@@QEAA@XZ 0000000140027320 f i game.obj
 0001:00026340       ??1?$_String_val@U?$_Simple_types@_W@std@@@std@@QEAA@XZ 0000000140027340 f i gui.obj
 0001:00026340       ??1?$_String_val@U?$_Simple_types@D@std@@@std@@QEAA@XZ 0000000140027340 f i game.obj
 0001:00026340       ?_Orphan_all@?$basic_string@_WU?$char_traits@_W@std@@V?$allocator@_W@2@@std@@QEAAXXZ 0000000140027340 f i gui.obj
 0001:00026360       ??1?$_Tidy_guard@V?$vector@IV?$allocator@I@std@@@std@@@std@@QEAA@XZ 0000000140027360 f i game.obj
 0001:00026390       ??1?$_Tidy_guard@V?$vector@UTexture@finnsie@@V?$allocator@UTexture@finnsie@@@std@@@std@@@std@@QEAA@XZ 0000000140027390 f i game.obj
 0001:000263c0       ??1?$_Tidy_guard@V?$vector@UVertex@finnsie@@V?$allocator@UVertex@finnsie@@@std@@@std@@@std@@QEAA@XZ 00000001400273c0 f i game.obj
 0001:000263f0       ??1?$_Tree@V?$_Tmap_traits@HUTexture2D@finnsie@@U?$less@H@std@@V?$allocator@U?$pair@$$CBHUTexture2D@finnsie@@@std@@@4@$0A@@std@@@std@@QEAA@XZ 00000001400273f0 f i game.obj
 0001:00026430       ??1?$_Uninitialized_backout_al@V?$allocator@UTexture@finnsie@@@std@@@std@@QEAA@XZ 0000000140027430 f i game.obj
 0001:00026460       ??1?$_Uninitialized_backout_al@V?$allocator@VMesh@finnsie@@@std@@@std@@QEAA@XZ 0000000140027460 f i game.obj
 0001:00026490       ??1?$basic_string@DU?$char_traits@D@std@@V?$allocator@D@2@@std@@QEAA@XZ 0000000140027490 f i game.obj
 0001:000264c0       ??1?$map@HUTexture2D@finnsie@@U?$less@H@std@@V?$allocator@U?$pair@$$CBHUTexture2D@finnsie@@@std@@@4@@std@@QEAA@XZ 00000001400274c0 f i game.obj
 0001:000264e0       ??1?$vector@IV?$allocator@I@std@@@std@@QEAA@XZ 00000001400274e0 f i game.obj
 0001:00026500       ??1?$vector@UTexture@finnsie@@V?$allocator@UTexture@finnsie@@@std@@@std@@QEAA@XZ 0000000140027500 f i game.obj
 0001:00026520       ??1?$vector@UVertex@finnsie@@V?$allocator@UVertex@finnsie@@@std@@@std@@QEAA@XZ 0000000140027520 f i game.obj
 0001:00026540       ??1?$vector@UobjFile@finnsie@@V?$allocator@UobjFile@finnsie@@@std@@@std@@QEAA@XZ 0000000140027540 f i game.obj
 0001:00026560       ??1?$vector@VMesh@finnsie@@V?$allocator@VMesh@finnsie@@@std@@@std@@QEAA@XZ 0000000140027560 f i game.obj
 0001:00026580       ??1GameObject@finnsie@@QEAA@XZ 0000000140027580 f i game.obj
 0001:000265e0       ??1Gui@finnsie@@QEAA@XZ    00000001400275e0 f i game.obj
 0001:00026600       ??1Mesh@finnsie@@QEAA@XZ   0000000140027600 f i game.obj
 0001:00026640       ??1Model@finnsie@@QEAA@XZ  0000000140027640 f i game.obj
 0001:00026680       ??1Texture@finnsie@@QEAA@XZ 0000000140027680 f i game.obj
 0001:000266b0       ??1aiFace@@QEAA@XZ         00000001400276b0 f i game.obj
 0001:000266e0       ??1bad_cast@std@@UEAA@XZ   00000001400276e0 f i shader_manager.obj
 0001:000266e0       ??1runtime_error@std@@UEAA@XZ 00000001400276e0 f i shader_manager.obj
 0001:000266e0       ??1bad_alloc@std@@UEAA@XZ  00000001400276e0 f i game.obj
 0001:00026700       ??1_System_error@std@@UEAA@XZ 0000000140027700 f i shader_manager.obj
 0001:00026700       ??1bad_array_new_length@std@@UEAA@XZ 0000000140027700 f i game.obj
 0001:00026720       ??1exception@std@@UEAA@XZ  0000000140027720 f i game.obj
 0001:00026750       ??1objFile@finnsie@@QEAA@XZ 0000000140027750 f i game.obj
 0001:00026780       ??2@YAPEAX_KPEAX@Z         0000000140027780 f i game.obj
 0001:00026790       ??4?$basic_string@DU?$char_traits@D@std@@V?$allocator@D@2@@std@@QEAAAEAV01@$$QEAV01@@Z 0000000140027790 f i game.obj
 0001:000267f0       ??4?$basic_string@DU?$char_traits@D@std@@V?$allocator@D@2@@std@@QEAAAEAV01@AEBV01@@Z 00000001400277f0 f i game.obj
 0001:00026850       ??4?$basic_string@DU?$char_traits@D@std@@V?$allocator@D@2@@std@@QEAAAEAV01@QEBD@Z 0000000140027850 f i game.obj
 0001:00026880       ??4?$vector@IV?$allocator@I@std@@@std@@QEAAAEAV01@AEBV01@@Z 0000000140027880 f i game.obj
 0001:000268e0       ??4?$vector@UTexture@finnsie@@V?$allocator@UTexture@finnsie@@@std@@@std@@QEAAAEAV01@AEBV01@@Z 00000001400278e0 f i game.obj
 0001:00026940       ??4?$vector@UVertex@finnsie@@V?$allocator@UVertex@finnsie@@@std@@@std@@QEAAAEAV01@AEBV01@@Z 0000000140027940 f i game.obj
 0001:000269a0       ??4Texture@finnsie@@QEAAAEAU01@$$QEAU01@@Z 00000001400279a0 f i game.obj
 0001:00026a00       ??4Texture@finnsie@@QEAAAEAU01@AEBU01@@Z 0000000140027a00 f i game.obj
 0001:00026a60       ??4aiFace@@QEAAAEAU0@AEBU0@@Z 0000000140027a60 f i game.obj
 0001:00026b40       ??A?$vector@IV?$allocator@I@std@@@std@@QEAAAEAI_K@Z 0000000140027b40 f i game.obj
 0001:00026b70       ??A?$vector@PEAVGameObject@finnsie@@V?$allocator@PEAVGameObject@finnsie@@@std@@@std@@QEAAAEAPEAVGameObject@finnsie@@_K@Z 0000000140027b70 f i game.obj
 0001:00026ba0       ??A?$vector@UTexture@finnsie@@V?$allocator@UTexture@finnsie@@@std@@@std@@QEAAAEAUTexture@finnsie@@_K@Z 0000000140027ba0 f i game.obj
 0001:00026ba0       ??A?$vector@UobjFile@finnsie@@V?$allocator@UobjFile@finnsie@@@std@@@std@@QEAAAEAUobjFile@finnsie@@_K@Z 0000000140027ba0 f i gui.obj
 0001:00026bd0       ??A?$vector@UVertex@finnsie@@V?$allocator@UVertex@finnsie@@@std@@@std@@QEAAAEAUVertex@finnsie@@_K@Z 0000000140027bd0 f i game.obj
 0001:00026c00       ??R<lambda_319d5e083f45f90dcdce5dce53cbb275>@@QEBAXQEADQEBD_KD@Z 0000000140027c00 f i game.obj
 0001:00026c70       ??R<lambda_65e615be2a453ca0576c979606f46740>@@QEBAXQEADQEBD_K12@Z 0000000140027c70 f i game.obj
 0001:00026cf0       ??R<lambda_66f57f934f28d61049862f64df852ff0>@@QEBAXQEAD_KQEBD@Z 0000000140027cf0 f i game.obj
 0001:00026d50       ??R<lambda_9013ee9e23efe4882b67eff5b0ecf103>@@QEBAXQEADQEBD_K@Z 0000000140027d50 f i game.obj
 0001:00026d90       ??Y?$basic_string@DU?$char_traits@D@std@@V?$allocator@D@2@@std@@QEAAAEAV01@AEBV01@@Z 0000000140027d90 f i game.obj
 0001:00026dc0       ??Y?$basic_string@DU?$char_traits@D@std@@V?$allocator@D@2@@std@@QEAAAEAV01@D@Z 0000000140027dc0 f i game.obj
 0001:00026df0       ??_GGameObject@finnsie@@QEAAPEAXI@Z 0000000140027df0 f i game.obj
 0001:00026e30       ??_GGui@finnsie@@QEAAPEAXI@Z 0000000140027e30 f i game.obj
 0001:00026e70       ??_GMesh@finnsie@@QEAAPEAXI@Z 0000000140027e70 f i game.obj
 0001:00026eb0       ??_GModel@finnsie@@QEAAPEAXI@Z 0000000140027eb0 f i game.obj
 0001:00026ef0       ??_GRenderer@finnsie@@QEAAPEAXI@Z 0000000140027ef0 f i game.obj
 0001:00026f30       ??_GTexture@finnsie@@QEAAPEAXI@Z 0000000140027f30 f i game.obj
 0001:00026f70       ??_Ebad_cast@std@@UEAAPEAXI@Z 0000000140027f70 f i shader_manager.obj
 0001:00026f70       ??_Gruntime_error@std@@UEAAPEAXI@Z 0000000140027f70 f i gui.obj
 0001:00026f70       ??_Gbad_alloc@std@@UEAAPEAXI@Z 0000000140027f70 f i game.obj
 0001:00026f70       ??_Gbad_cast@std@@UEAAPEAXI@Z 0000000140027f70 f i shader_manager.obj
 0001:00026f70       ??_Eruntime_error@std@@UEAAPEAXI@Z 0000000140027f70 f i gui.obj
 0001:00026f70       ??_Ebad_alloc@std@@UEAAPEAXI@Z 0000000140027f70 f i game.obj
 0001:00026fb0       ??_Gbad_array_new_length@std@@UEAAPEAXI@Z 0000000140027fb0 f i game.obj
 0001:00026fb0       ??_Ebad_array_new_length@std@@UEAAPEAXI@Z 0000000140027fb0 f i game.obj
 0001:00026ff0       ??_Gexception@std@@UEAAPEAXI@Z 0000000140027ff0 f i game.obj
 0001:00026ff0       ??_Eexception@std@@UEAAPEAXI@Z 0000000140027ff0 f i game.obj
 0001:00027030       ??_GobjFile@finnsie@@QEAAPEAXI@Z 0000000140028030 f i game.obj
 0001:00027070       ?C_Str@aiString@@QEBAPEBDXZ 0000000140028070 f i game.obj
 0001:00027080       ?GetTexture@aiMaterial@@QEBA?AW4aiReturn@@W4aiTextureType@@IPEAUaiString@@PEAW4aiTextureMapping@@PEAIPEAMPEAW4aiTextureOp@@PEAW4aiTextureMapMode@@@Z 0000000140028080 f i game.obj
 0001:00027100       ?GetTextureCount@aiMaterial@@QEBAIW4aiTextureType@@@Z 0000000140028100 f i game.obj
 0001:00027120       ?ReadFile@Importer@Assimp@@QEAAPEBUaiScene@@AEBV?$basic_string@DU?$char_traits@D@std@@V?$allocator@D@2@@std@@I@Z 0000000140028120 f i game.obj
 0001:00027160       ?TextureFromFile@Model@finnsie@@AEAAIPEBDAEBV?$basic_string@DU?$char_traits@D@std@@V?$allocator@D@2@@std@@_N@Z 0000000140028160 f i game.obj
 0001:00027480       ?_Adjust_manually_vector_aligned@std@@YAXAEAPEAXAEA_K@Z 0000000140028480 f i game.obj
 0001:00027520       ?_Alloc_sentinel_and_proxy@?$_Tree@V?$_Tmap_traits@HVShader@finnsie@@U?$less@H@std@@V?$allocator@U?$pair@$$CBHVShader@finnsie@@@std@@@4@$0A@@std@@@std@@IEAAXXZ 0000000140028520 f i game.obj
 0001:00027520       ?_Alloc_sentinel_and_proxy@?$_Tree@V?$_Tmap_traits@HUTexture2D@finnsie@@U?$less@H@std@@V?$allocator@U?$pair@$$CBHUTexture2D@finnsie@@@std@@@4@$0A@@std@@@std@@IEAAXXZ 0000000140028520 f i game.obj
 0001:00027580       ?_Allocate@_Default_allocate_traits@std@@SAPEAX_K@Z 0000000140028580 f i game.obj
 0001:000275a0       ?_Become_small@?$basic_string@DU?$char_traits@D@std@@V?$allocator@D@2@@std@@AEAAXXZ 00000001400285a0 f i game.obj
 0001:00027650       ?_Buy_raw@?$vector@IV?$allocator@I@std@@@std@@AEAAX_K@Z 0000000140028650 f i game.obj
 0001:000276f0       ?_Buy_raw@?$vector@UTexture@finnsie@@V?$allocator@UTexture@finnsie@@@std@@@std@@AEAAX_K@Z 00000001400286f0 f i game.obj
 0001:00027790       ?_Buy_raw@?$vector@UVertex@finnsie@@V?$allocator@UVertex@finnsie@@@std@@@std@@AEAAX_K@Z 0000000140028790 f i game.obj
 0001:00027830       ?_Calculate_growth@?$basic_string@DU?$char_traits@D@std@@V?$allocator@D@2@@std@@AEBA_K_K@Z 0000000140028830 f i game.obj
 0001:00027880       ?_Calculate_growth@?$basic_string@DU?$char_traits@D@std@@V?$allocator@D@2@@std@@CA_K_K00@Z 0000000140028880 f i game.obj
 0001:00027920       ?_Calculate_growth@?$vector@IV?$allocator@I@std@@@std@@AEBA_K_K@Z 0000000140028920 f i game.obj
 0001:000279b0       ?_Calculate_growth@?$vector@UobjFile@finnsie@@V?$allocator@UobjFile@finnsie@@@std@@@std@@AEBA_K_K@Z 00000001400289b0 f i gui.obj
 0001:000279b0       ?_Calculate_growth@?$vector@UTexture@finnsie@@V?$allocator@UTexture@finnsie@@@std@@@std@@AEBA_K_K@Z 00000001400289b0 f i game.obj
 0001:00027a40       ?_Calculate_growth@?$vector@UVertex@finnsie@@V?$allocator@UVertex@finnsie@@@std@@@std@@AEBA_K_K@Z 0000000140028a40 f i game.obj
 0001:00027ad0       ?_Calculate_growth@?$vector@VMesh@finnsie@@V?$allocator@VMesh@finnsie@@@std@@@std@@AEBA_K_K@Z 0000000140028ad0 f i game.obj
 0001:00027b60       ?_Change_array@?$vector@IV?$allocator@I@std@@@std@@AEAAXQEAI_K1@Z 0000000140028b60 f i game.obj
 0001:00027c70       ?_Change_array@?$vector@UTexture@finnsie@@V?$allocator@UTexture@finnsie@@@std@@@std@@AEAAXQEAUTexture@finnsie@@_K1@Z 0000000140028c70 f i game.obj
 0001:00027d90       ?_Change_array@?$vector@UVertex@finnsie@@V?$allocator@UVertex@finnsie@@@std@@@std@@AEAAXQEAUVertex@finnsie@@_K1@Z 0000000140028d90 f i game.obj
 0001:00027eb0       ?_Change_array@?$vector@VMesh@finnsie@@V?$allocator@VMesh@finnsie@@@std@@@std@@AEAAXQEAVMesh@finnsie@@_K1@Z 0000000140028eb0 f i game.obj
 0001:00027fd0       ?_Check_offset@?$_String_val@U?$_Simple_types@_W@std@@@std@@QEBAX_K@Z 0000000140028fd0 f i gui.obj
 0001:00027fd0       ?_Check_offset@?$_String_val@U?$_Simple_types@D@std@@@std@@QEBAX_K@Z 0000000140028fd0 f i game.obj
 0001:00028000       ?_Clamp_suffix_size@?$_String_val@U?$_Simple_types@D@std@@@std@@QEBA_K_K0@Z 0000000140029000 f i game.obj
 0001:00028040       ?_Clear_and_reserve_geometric@?$vector@IV?$allocator@I@std@@@std@@AEAAX_K@Z 0000000140029040 f i game.obj
 0001:00028160       ?_Clear_and_reserve_geometric@?$vector@UTexture@finnsie@@V?$allocator@UTexture@finnsie@@@std@@@std@@AEAAX_K@Z 0000000140029160 f i game.obj
 0001:00028280       ?_Clear_and_reserve_geometric@?$vector@UVertex@finnsie@@V?$allocator@UVertex@finnsie@@@std@@@std@@AEAAX_K@Z 0000000140029280 f i game.obj
 0001:000283a0       ?_Construct_lv_contents@?$basic_string@DU?$char_traits@D@std@@V?$allocator@D@2@@std@@AEAAXAEBV12@@Z 00000001400293a0 f i game.obj
 0001:000284f0       ?_Copy_assign@?$basic_string@DU?$char_traits@D@std@@V?$allocator@D@2@@std@@AEAAXAEBV12@U?$integral_constant@_N$0A@@2@@Z 00000001400294f0 f i game.obj
 0001:00028570       ?_Copy_assign@?$vector@IV?$allocator@I@std@@@std@@AEAAXAEBV12@U?$integral_constant@_N$0A@@2@@Z 0000000140029570 f i game.obj
 0001:000285e0       ?_Copy_assign@?$vector@UTexture@finnsie@@V?$allocator@UTexture@finnsie@@@std@@@std@@AEAAXAEBV12@U?$integral_constant@_N$0A@@2@@Z 00000001400295e0 f i game.obj
 0001:00028650       ?_Copy_assign@?$vector@UVertex@finnsie@@V?$allocator@UVertex@finnsie@@@std@@@std@@AEAAXAEBV12@U?$integral_constant@_N$0A@@2@@Z 0000000140029650 f i game.obj
 0001:000286c0       ?_Destroy@?$vector@PEAVGameObject@finnsie@@V?$allocator@PEAVGameObject@finnsie@@@std@@@std@@AEAAXPEAPEAVGameObject@finnsie@@0@Z 00000001400296c0 f i utils.obj
 0001:000286c0       ?_Destroy@?$vector@UVertex@finnsie@@V?$allocator@UVertex@finnsie@@@std@@@std@@AEAAXPEAUVertex@finnsie@@0@Z 00000001400296c0 f i game.obj
 0001:000286c0       ?_Destroy@?$vector@IV?$allocator@I@std@@@std@@AEAAXPEAI0@Z 00000001400296c0 f i game.obj
 0001:00028700       ?_Destroy@?$vector@UTexture@finnsie@@V?$allocator@UTexture@finnsie@@@std@@@std@@AEAAXPEAUTexture@finnsie@@0@Z 0000000140029700 f i game.obj
 0001:00028740       ?_Destroy@?$vector@UobjFile@finnsie@@V?$allocator@UobjFile@finnsie@@@std@@@std@@AEAAXPEAUobjFile@finnsie@@0@Z 0000000140029740 f i game.obj
 0001:00028780       ?_Destroy@?$vector@VMesh@finnsie@@V?$allocator@VMesh@finnsie@@@std@@@std@@AEAAXPEAVMesh@finnsie@@0@Z 0000000140029780 f i game.obj
 0001:000287c0       ?_Getal@?$vector@UVertex@finnsie@@V?$allocator@UVertex@finnsie@@@std@@@std@@AEAAAEAV?$allocator@UVertex@finnsie@@@2@XZ 00000001400297c0 f i game.obj
 0001:000287c0       ?_Get_scary@?$_Tree@V?$_Tmap_traits@HUTexture2D@finnsie@@U?$less@H@std@@V?$allocator@U?$pair@$$CBHUTexture2D@finnsie@@@std@@@4@$0A@@std@@@std@@IEAAPEAV?$_Tree_val@U?$_Tree_simple_types@U?$pair@$$CBHUTexture2D@finnsie@@@std@@@std@@@2@XZ 00000001400297c0 f i game.obj
 0001:000287c0       ?_Getcomp@?$_Tree@V?$_Tmap_traits@HVShader@finnsie@@U?$less@H@std@@V?$allocator@U?$pair@$$CBHVShader@finnsie@@@std@@@4@$0A@@std@@@std@@IEBAAEBU?$less@H@2@XZ 00000001400297c0 f i resource_manager.obj
 0001:000287c0       ?_Getal@?$_Tree@V?$_Tmap_traits@HUTexture2D@finnsie@@U?$less@H@std@@V?$allocator@U?$pair@$$CBHUTexture2D@finnsie@@@std@@@4@$0A@@std@@@std@@IEAAAEAV?$allocator@U?$_Tree_node@U?$pair@$$CBHUTexture2D@finnsie@@@std@@PEAX@std@@@2@XZ 00000001400297c0 f i game.obj
 0001:000287c0       ?_Getal@?$vector@Uuniform@finnsie@@V?$allocator@Uuniform@finnsie@@@std@@@std@@AEAAAEAV?$allocator@Uuniform@finnsie@@@2@XZ 00000001400297c0 f i shader_manager.obj
 0001:000287c0       ?_Getal@?$vector@IV?$allocator@I@std@@@std@@AEAAAEAV?$allocator@I@2@XZ 00000001400297c0 f i game.obj
 0001:000287c0       ?_Getal@?$_Tree@V?$_Tmap_traits@HUTexture2D@finnsie@@U?$less@H@std@@V?$allocator@U?$pair@$$CBHUTexture2D@finnsie@@@std@@@4@$0A@@std@@@std@@IEBAAEBV?$allocator@U?$_Tree_node@U?$pair@$$CBHUTexture2D@finnsie@@@std@@PEAX@std@@@2@XZ 00000001400297c0 f i resource_manager.obj
 0001:000287c0       ?_Getal@?$vector@U_Find_file_handle@filesystem@std@@V?$allocator@U_Find_file_handle@filesystem@std@@@3@@std@@AEAAAEAV?$allocator@U_Find_file_handle@filesystem@std@@@2@XZ 00000001400297c0 f i gui.obj
 0001:000287c0       ?_Getal@?$vector@UobjFile@finnsie@@V?$allocator@UobjFile@finnsie@@@std@@@std@@AEAAAEAV?$allocator@UobjFile@finnsie@@@2@XZ 00000001400297c0 f i game.obj
 0001:000287c0       ?_Getal@?$basic_string@_WU?$char_traits@_W@std@@V?$allocator@_W@2@@std@@AEAAAEAV?$allocator@_W@2@XZ 00000001400297c0 f i gui.obj
 0001:000287c0       ?_Getal@?$vector@UTexture@finnsie@@V?$allocator@UTexture@finnsie@@@std@@@std@@AEAAAEAV?$allocator@UTexture@finnsie@@@2@XZ 00000001400297c0 f i game.obj
 0001:000287c0       ?_Getal@?$vector@PEAVGameObject@finnsie@@V?$allocator@PEAVGameObject@finnsie@@@std@@@std@@AEBAAEBV?$allocator@PEAVGameObject@finnsie@@@2@XZ 00000001400297c0 f i utils.obj
 0001:000287c0       ?_Getal@?$vector@IV?$allocator@I@std@@@std@@AEBAAEBV?$allocator@I@2@XZ 00000001400297c0 f i game.obj
 0001:000287c0       ?_Getal@?$vector@Uuniform@finnsie@@V?$allocator@Uuniform@finnsie@@@std@@@std@@AEBAAEBV?$allocator@Uuniform@finnsie@@@2@XZ 00000001400297c0 f i shader_manager.obj
 0001:000287c0       ?_Getal@?$vector@VMesh@finnsie@@V?$allocator@VMesh@finnsie@@@std@@@std@@AEBAAEBV?$allocator@VMesh@finnsie@@@2@XZ 00000001400297c0 f i game.obj
 0001:000287c0       ?_Getal@?$vector@UVertex@finnsie@@V?$allocator@UVertex@finnsie@@@std@@@std@@AEBAAEBV?$allocator@UVertex@finnsie@@@2@XZ 00000001400297c0 f i game.obj
 0001:000287c0       ?_Getal@?$basic_string@DU?$char_traits@D@std@@V?$allocator@D@2@@std@@AEAAAEAV?$allocator@D@2@XZ 00000001400297c0 f i game.obj
 0001:000287c0       ?_Getal@?$_Tree@V?$_Tmap_traits@HVShader@finnsie@@U?$less@H@std@@V?$allocator@U?$pair@$$CBHVShader@finnsie@@@std@@@4@$0A@@std@@@std@@IEBAAEBV?$allocator@U?$_Tree_node@U?$pair@$$CBHVShader@finnsie@@@std@@PEAX@std@@@2@XZ 00000001400297c0 f i resource_manager.obj
 0001:000287c0       ?_Get_scary@?$_Tree@V?$_Tmap_traits@HVShader@finnsie@@U?$less@H@std@@V?$allocator@U?$pair@$$CBHVShader@finnsie@@@std@@@4@$0A@@std@@@std@@IEBAPEBV?$_Tree_val@U?$_Tree_simple_types@U?$pair@$$CBHVShader@finnsie@@@std@@@std@@@2@XZ 00000001400297c0 f i resource_manager.obj
 0001:000287c0       ?_Getal@?$vector@UTexture@finnsie@@V?$allocator@UTexture@finnsie@@@std@@@std@@AEBAAEBV?$allocator@UTexture@finnsie@@@2@XZ 00000001400297c0 f i game.obj
 0001:000287c0       ?_Getcomp@?$_Tree@V?$_Tmap_traits@HUTexture2D@finnsie@@U?$less@H@std@@V?$allocator@U?$pair@$$CBHUTexture2D@finnsie@@@std@@@4@$0A@@std@@@std@@IEBAAEBU?$less@H@2@XZ 00000001400297c0 f i resource_manager.obj
 0001:000287c0       ?_Getal@?$_Tree@V?$_Tmap_traits@HVShader@finnsie@@U?$less@H@std@@V?$allocator@U?$pair@$$CBHVShader@finnsie@@@std@@@4@$0A@@std@@@std@@IEAAAEAV?$allocator@U?$_Tree_node@U?$pair@$$CBHVShader@finnsie@@@std@@PEAX@std@@@2@XZ 00000001400297c0 f i game.obj
 0001:000287c0       ?_Getal@?$basic_string@DU?$char_traits@D@std@@V?$allocator@D@2@@std@@AEBAAEBV?$allocator@D@2@XZ 00000001400297c0 f i game.obj
 0001:000287c0       ?_Getal@?$vector@VMesh@finnsie@@V?$allocator@VMesh@finnsie@@@std@@@std@@AEAAAEAV?$allocator@VMesh@finnsie@@@2@XZ 00000001400297c0 f i game.obj
 0001:000287c0       ?_Getal@?$basic_string@_WU?$char_traits@_W@std@@V?$allocator@_W@2@@std@@AEBAAEBV?$allocator@_W@2@XZ 00000001400297c0 f i gui.obj
 0001:000287c0       ?_Get_scary@?$_Tree@V?$_Tmap_traits@HUTexture2D@finnsie@@U?$less@H@std@@V?$allocator@U?$pair@$$CBHUTexture2D@finnsie@@@std@@@4@$0A@@std@@@std@@IEBAPEBV?$_Tree_val@U?$_Tree_simple_types@U?$pair@$$CBHUTexture2D@finnsie@@@std@@@std@@@2@XZ 00000001400297c0 f i resource_manager.obj
 0001:000287c0       ?_Get_scary@?$_Tree@V?$_Tmap_traits@HVShader@finnsie@@U?$less@H@std@@V?$allocator@U?$pair@$$CBHVShader@finnsie@@@std@@@4@$0A@@std@@@std@@IEAAPEAV?$_Tree_val@U?$_Tree_simple_types@U?$pair@$$CBHVShader@finnsie@@@std@@@std@@@2@XZ 00000001400297c0 f i game.obj
 0001:000287c0       ?_Getal@?$vector@U_Find_file_handle@filesystem@std@@V?$allocator@U_Find_file_handle@filesystem@std@@@3@@std@@AEBAAEBV?$allocator@U_Find_file_handle@filesystem@std@@@2@XZ 00000001400297c0 f i gui.obj
 0001:000287c0       ?_Getal@?$vector@PEAVGameObject@finnsie@@V?$allocator@PEAVGameObject@finnsie@@@std@@@std@@AEAAAEAV?$allocator@PEAVGameObject@finnsie@@@2@XZ 00000001400297c0 f i utils.obj
 0001:000287c0       ?_Getal@?$vector@UobjFile@finnsie@@V?$allocator@UobjFile@finnsie@@@std@@@std@@AEBAAEBV?$allocator@UobjFile@finnsie@@@2@XZ 00000001400297c0 f i gui.obj
 0001:000287e0       ?_Large_string_engaged@?$_String_val@U?$_Simple_types@D@std@@@std@@QEBA_NXZ 00000001400297e0 f i game.obj
 0001:00028810       ?_Make_iterator_offset@?$vector@UTexture@finnsie@@V?$allocator@UTexture@finnsie@@@std@@@std@@AEAA?AV?$_Vector_iterator@V?$_Vector_val@U?$_Simple_types@UTexture@finnsie@@@std@@@std@@@2@_K@Z 0000000140029810 f i game.obj
 0001:00028870       ?_Memcpy_val_from@?$basic_string@DU?$char_traits@D@std@@V?$allocator@D@2@@std@@AEAAXAEBV12@@Z 0000000140029870 f i game.obj
 0001:00028870       ?_Memcpy_val_from@?$basic_string@_WU?$char_traits@_W@std@@V?$allocator@_W@2@@std@@AEAAXAEBV12@@Z 0000000140029870 f i gui.obj
 0001:000288c0       ?_Move_assign@?$basic_string@DU?$char_traits@D@std@@V?$allocator@D@2@@std@@AEAAXAEAV12@U_Equal_allocators@2@@Z 00000001400298c0 f i game.obj
 0001:00028940       ?_Move_construct@?$vector@IV?$allocator@I@std@@@std@@AEAAXAEAV12@U?$integral_constant@_N$00@2@@Z 0000000140029940 f i game.obj
 0001:00028940       ?_Move_construct@?$vector@UVertex@finnsie@@V?$allocator@UVertex@finnsie@@@std@@@std@@AEAAXAEAV12@U?$integral_constant@_N$00@2@@Z 0000000140029940 f i game.obj
 0001:00028940       ?_Move_construct@?$vector@UTexture@finnsie@@V?$allocator@UTexture@finnsie@@@std@@@std@@AEAAXAEAV12@U?$integral_constant@_N$00@2@@Z 0000000140029940 f i game.obj
 0001:00028980       ?_Myptr@?$_String_val@U?$_Simple_types@D@std@@@std@@QEAAPEADXZ 0000000140029980 f i game.obj
 0001:00028980       ?_Myptr@?$_String_val@U?$_Simple_types@D@std@@@std@@QEBAPEBDXZ 0000000140029980 f i game.obj
 0001:000289c0       ?_Release@?$_Uninitialized_backout_al@V?$allocator@Uuniform@finnsie@@@std@@@std@@QEAAPEAUuniform@finnsie@@XZ 00000001400299c0 f i shader_manager.obj
 0001:000289c0       ?_Release@?$_Uninitialized_backout_al@V?$allocator@U_Find_file_handle@filesystem@std@@@std@@@std@@QEAAPEAU_Find_file_handle@filesystem@2@XZ 00000001400299c0 f i gui.obj
 0001:000289c0       ?_Release@?$_Uninitialized_backout_al@V?$allocator@VMesh@finnsie@@@std@@@std@@QEAAPEAVMesh@finnsie@@XZ 00000001400299c0 f i game.obj
 0001:000289c0       ?_Release@?$_Uninitialized_backout_al@V?$allocator@UTexture@finnsie@@@std@@@std@@QEAAPEAUTexture@finnsie@@XZ 00000001400299c0 f i game.obj
 0001:000289c0       ?_Release@?$_Uninitialized_backout_al@V?$allocator@UobjFile@finnsie@@@std@@@std@@QEAAPEAUobjFile@finnsie@@XZ 00000001400299c0 f i gui.obj
 0001:000289e0       ?_Take_contents@?$_Vector_val@U?$_Simple_types@UTexture@finnsie@@@std@@@std@@QEAAXAEAV12@@Z 00000001400299e0 f i game.obj
 0001:000289e0       ?_Take_contents@?$_Vector_val@U?$_Simple_types@Uuniform@finnsie@@@std@@@std@@QEAAXAEAV12@@Z 00000001400299e0 f i renderer.obj
 0001:000289e0       ?_Take_contents@?$_Vector_val@U?$_Simple_types@UVertex@finnsie@@@std@@@std@@QEAAXAEAV12@@Z 00000001400299e0 f i game.obj
 0001:000289e0       ?_Take_contents@?$_Vector_val@U?$_Simple_types@I@std@@@std@@QEAAXAEAV12@@Z 00000001400299e0 f i game.obj
 0001:00028a60       ?_Take_contents@?$basic_string@DU?$char_traits@D@std@@V?$allocator@D@2@@std@@AEAAXAEAV12@U?$integral_constant@_N$00@2@@Z 0000000140029a60 f i game.obj
 0001:00028aa0       ?_Throw_bad_array_new_length@std@@YAXXZ 0000000140029aa0 f i game.obj
 0001:00028ad0       ?_Tidy@?$vector@IV?$allocator@I@std@@@std@@AEAAXXZ 0000000140029ad0 f i game.obj
 0001:00028bc0       ?_Tidy@?$vector@UTexture@finnsie@@V?$allocator@UTexture@finnsie@@@std@@@std@@AEAAXXZ 0000000140029bc0 f i game.obj
 0001:00028cb0       ?_Tidy@?$vector@UVertex@finnsie@@V?$allocator@UVertex@finnsie@@@std@@@std@@AEAAXXZ 0000000140029cb0 f i game.obj
 0001:00028da0       ?_Tidy@?$vector@UobjFile@finnsie@@V?$allocator@UobjFile@finnsie@@@std@@@std@@AEAAXXZ 0000000140029da0 f i game.obj
 0001:00028e90       ?_Tidy@?$vector@VMesh@finnsie@@V?$allocator@VMesh@finnsie@@@std@@@std@@AEAAXXZ 0000000140029e90 f i game.obj
 0001:00028f80       ?_Tidy_deallocate@?$basic_string@DU?$char_traits@D@std@@V?$allocator@D@2@@std@@AEAAXXZ 0000000140029f80 f i game.obj
 0001:00029040       ?_Tidy_init@?$basic_string@DU?$char_traits@D@std@@V?$allocator@D@2@@std@@AEAAXXZ 000000014002a040 f i game.obj
 0001:00029090       ?_Umove@?$vector@IV?$allocator@I@std@@@std@@AEAAPEAIPEAI00@Z 000000014002a090 f i game.obj
 0001:00029090       ?_Umove_if_noexcept1@?$vector@IV?$allocator@I@std@@@std@@AEAAXPEAI00U?$integral_constant@_N$00@2@@Z 000000014002a090 f i game.obj
 0001:000290d0       ?_Umove@?$vector@UTexture@finnsie@@V?$allocator@UTexture@finnsie@@@std@@@std@@AEAAPEAUTexture@finnsie@@PEAU34@00@Z 000000014002a0d0 f i game.obj
 0001:000290d0       ?_Umove_if_noexcept1@?$vector@UTexture@finnsie@@V?$allocator@UTexture@finnsie@@@std@@@std@@AEAAXPEAUTexture@finnsie@@00U?$integral_constant@_N$00@2@@Z 000000014002a0d0 f i game.obj
 0001:00029110       ?_Umove_if_noexcept1@?$vector@UVertex@finnsie@@V?$allocator@UVertex@finnsie@@@std@@@std@@AEAAXPEAUVertex@finnsie@@00U?$integral_constant@_N$00@2@@Z 000000014002a110 f i game.obj
 0001:00029110       ?_Umove@?$vector@UVertex@finnsie@@V?$allocator@UVertex@finnsie@@@std@@@std@@AEAAPEAUVertex@finnsie@@PEAU34@00@Z 000000014002a110 f i game.obj
 0001:00029150       ?_Umove@?$vector@VMesh@finnsie@@V?$allocator@VMesh@finnsie@@@std@@@std@@AEAAPEAVMesh@finnsie@@PEAV34@00@Z 000000014002a150 f i game.obj
 0001:00029150       ?_Umove_if_noexcept1@?$vector@VMesh@finnsie@@V?$allocator@VMesh@finnsie@@@std@@@std@@AEAAXPEAVMesh@finnsie@@00U?$integral_constant@_N$00@2@@Z 000000014002a150 f i game.obj
 0001:00029190       ?_Umove_if_noexcept@?$vector@IV?$allocator@I@std@@@std@@AEAAXPEAI00@Z 000000014002a190 f i game.obj
 0001:000291f0       ?_Umove_if_noexcept@?$vector@UTexture@finnsie@@V?$allocator@UTexture@finnsie@@@std@@@std@@AEAAXPEAUTexture@finnsie@@00@Z 000000014002a1f0 f i game.obj
 0001:00029250       ?_Umove_if_noexcept@?$vector@UVertex@finnsie@@V?$allocator@UVertex@finnsie@@@std@@@std@@AEAAXPEAUVertex@finnsie@@00@Z 000000014002a250 f i game.obj
 0001:000292b0       ?_Umove_if_noexcept@?$vector@VMesh@finnsie@@V?$allocator@VMesh@finnsie@@@std@@@std@@AEAAXPEAVMesh@finnsie@@00@Z 000000014002a2b0 f i game.obj
 0001:00029310       ?_Unwrapped@?$_String_iterator@V?$_String_val@U?$_Simple_types@_W@std@@@std@@@std@@QEBAPEA_WXZ 000000014002a310 f i gui.obj
 0001:00029310       ?_Unwrapped@?$_Vector_iterator@V?$_Vector_val@U?$_Simple_types@UTexture@finnsie@@@std@@@std@@@std@@QEBAPEAUTexture@finnsie@@XZ 000000014002a310 f i game.obj
 0001:00029310       ?_Unwrapped@?$_String_const_iterator@V?$_String_val@U?$_Simple_types@_W@std@@@std@@@std@@QEBAPEB_WXZ 000000014002a310 f i gui.obj
 0001:00029310       ?_Unwrapped@?$_Vector_iterator@V?$_Vector_val@U?$_Simple_types@PEAVGameObject@finnsie@@@std@@@std@@@std@@QEBAPEAPEAVGameObject@finnsie@@XZ 000000014002a310 f i utils.obj
 0001:00029330       ?_Xlen@?$basic_string@DU?$char_traits@D@std@@V?$allocator@D@2@@std@@CAXXZ 000000014002a330 f i game.obj
 0001:00029330       ?_Xlen@?$basic_string@_WU?$char_traits@_W@std@@V?$allocator@_W@2@@std@@CAXXZ 000000014002a330 f i gui.obj
 0001:00029350       ?_Xlength@?$vector@IV?$allocator@I@std@@@std@@CAXXZ 000000014002a350 f i game.obj
 0001:00029350       ?_Xlength@?$vector@UTexture@finnsie@@V?$allocator@UTexture@finnsie@@@std@@@std@@CAXXZ 000000014002a350 f i game.obj
 0001:00029350       ?_Xlength@?$vector@UVertex@finnsie@@V?$allocator@UVertex@finnsie@@@std@@@std@@CAXXZ 000000014002a350 f i game.obj
 0001:00029350       ?_Xlength@?$vector@PEAVGameObject@finnsie@@V?$allocator@PEAVGameObject@finnsie@@@std@@@std@@CAXXZ 000000014002a350 f i utils.obj
 0001:00029350       ?_Xlength@?$vector@U_Find_file_handle@filesystem@std@@V?$allocator@U_Find_file_handle@filesystem@std@@@3@@std@@CAXXZ 000000014002a350 f i gui.obj
 0001:00029350       ?_Xlength@?$vector@VMesh@finnsie@@V?$allocator@VMesh@finnsie@@@std@@@std@@CAXXZ 000000014002a350 f i game.obj
 0001:00029350       ?_Xlength@?$vector@UobjFile@finnsie@@V?$allocator@UobjFile@finnsie@@@std@@@std@@CAXXZ 000000014002a350 f i gui.obj
 0001:00029350       ?_Xlength@?$vector@Uuniform@finnsie@@V?$allocator@Uuniform@finnsie@@@std@@@std@@CAXXZ 000000014002a350 f i shader_manager.obj
 0001:00029370       ?_Xran@?$_String_val@U?$_Simple_types@D@std@@@std@@SAXXZ 000000014002a370 f i game.obj
 0001:00029370       ?_Xran@?$_String_val@U?$_Simple_types@_W@std@@@std@@SAXXZ 000000014002a370 f i gui.obj
 0001:00029390       ?allocate@?$allocator@D@std@@QEAAPEAD_K@Z 000000014002a390 f i game.obj
 0001:000293c0       ?allocate@?$allocator@I@std@@QEAAPEAI_K@Z 000000014002a3c0 f i game.obj
 0001:000293f0       ?allocate@?$allocator@U?$_Tree_node@U?$pair@$$CBHUTexture2D@finnsie@@@std@@PEAX@std@@@std@@QEAAPEAU?$_Tree_node@U?$pair@$$CBHUTexture2D@finnsie@@@std@@PEAX@2@_K@Z 000000014002a3f0 f i game.obj
 0001:000293f0       ?allocate@?$allocator@U?$_Tree_node@U?$pair@$$CBHVShader@finnsie@@@std@@PEAX@std@@@std@@QEAAPEAU?$_Tree_node@U?$pair@$$CBHVShader@finnsie@@@std@@PEAX@2@_K@Z 000000014002a3f0 f i game.obj
 0001:000293f0       ?allocate@?$allocator@UTexture@finnsie@@@std@@QEAAPEAUTexture@finnsie@@_K@Z 000000014002a3f0 f i game.obj
 0001:000293f0       ?allocate@?$allocator@UobjFile@finnsie@@@std@@QEAAPEAUobjFile@finnsie@@_K@Z 000000014002a3f0 f i gui.obj
 0001:00029420       ?allocate@?$allocator@UVertex@finnsie@@@std@@QEAAPEAUVertex@finnsie@@_K@Z 000000014002a420 f i game.obj
 0001:00029450       ?allocate@?$allocator@VMesh@finnsie@@@std@@QEAAPEAVMesh@finnsie@@_K@Z 000000014002a450 f i game.obj
 0001:00029480       ?append@?$basic_string@DU?$char_traits@D@std@@V?$allocator@D@2@@std@@QEAAAEAV12@AEBV12@@Z 000000014002a480 f i game.obj
 0001:000294d0       ?append@?$basic_string@DU?$char_traits@D@std@@V?$allocator@D@2@@std@@QEAAAEAV12@QEBD_K@Z 000000014002a4d0 f i game.obj
 0001:000295d0       ?assign@?$_Narrow_char_traits@DH@std@@SAXAEADAEBD@Z 000000014002a5d0 f i game.obj
 0001:000295f0       ?assign@?$basic_string@DU?$char_traits@D@std@@V?$allocator@D@2@@std@@QEAAAEAV12@AEBV12@_K_K@Z 000000014002a5f0 f i game.obj
 0001:00029670       ?assign@?$basic_string@DU?$char_traits@D@std@@V?$allocator@D@2@@std@@QEAAAEAV12@QEBD@Z 000000014002a670 f i game.obj
 0001:000296b0       ?assign@?$basic_string@DU?$char_traits@D@std@@V?$allocator@D@2@@std@@QEAAAEAV12@QEBD_K@Z 000000014002a6b0 f i game.obj
 0001:00029770       ?begin@?$vector@PEAVGameObject@finnsie@@V?$allocator@PEAVGameObject@finnsie@@@std@@@std@@QEAA?AV?$_Vector_iterator@V?$_Vector_val@U?$_Simple_types@PEAVGameObject@finnsie@@@std@@@std@@@2@XZ 000000014002a770 f i utils.obj
 0001:00029770       ?begin@?$vector@UTexture@finnsie@@V?$allocator@UTexture@finnsie@@@std@@@std@@QEAA?AV?$_Vector_iterator@V?$_Vector_val@U?$_Simple_types@UTexture@finnsie@@@std@@@std@@@2@XZ 000000014002a770 f i game.obj
 0001:000297d0       ?data@?$basic_string@DU?$char_traits@D@std@@V?$allocator@D@2@@std@@QEBAPEBDXZ 000000014002a7d0 f i shader_manager.obj
 0001:000297d0       ?c_str@?$basic_string@DU?$char_traits@D@std@@V?$allocator@D@2@@std@@QEBAPEBDXZ 000000014002a7d0 f i game.obj
 0001:000297d0       ?data@?$basic_string@DU?$char_traits@D@std@@V?$allocator@D@2@@std@@QEAAPEADXZ 000000014002a7d0 f i game.obj
 0001:000297f0       ?capacity@?$vector@IV?$allocator@I@std@@@std@@QEBA_KXZ 000000014002a7f0 f i game.obj
 0001:00029820       ?capacity@?$vector@UobjFile@finnsie@@V?$allocator@UobjFile@finnsie@@@std@@@std@@QEBA_KXZ 000000014002a820 f i gui.obj
 0001:00029820       ?capacity@?$vector@UTexture@finnsie@@V?$allocator@UTexture@finnsie@@@std@@@std@@QEBA_KXZ 000000014002a820 f i game.obj
 0001:00029860       ?capacity@?$vector@UVertex@finnsie@@V?$allocator@UVertex@finnsie@@@std@@@std@@QEBA_KXZ 000000014002a860 f i game.obj
 0001:000298a0       ?capacity@?$vector@VMesh@finnsie@@V?$allocator@VMesh@finnsie@@@std@@@std@@QEBA_KXZ 000000014002a8a0 f i game.obj
 0001:000298e0       ?copy@?$_Narrow_char_traits@DH@std@@SAPEADQEADQEBD_K@Z 000000014002a8e0 f i game.obj
 0001:00029910       ?deallocate@?$allocator@UobjFile@finnsie@@@std@@QEAAXQEAUobjFile@finnsie@@_K@Z 000000014002a910 f i game.obj
 0001:00029910       ?deallocate@?$allocator@U?$_Tree_node@U?$pair@$$CBHUTexture2D@finnsie@@@std@@PEAX@std@@@std@@QEAAXQEAU?$_Tree_node@U?$pair@$$CBHUTexture2D@finnsie@@@std@@PEAX@2@_K@Z 000000014002a910 f i resource_manager.obj
 0001:00029910       ?deallocate@?$allocator@U?$_Tree_node@U?$pair@$$CBHVShader@finnsie@@@std@@PEAX@std@@@std@@QEAAXQEAU?$_Tree_node@U?$pair@$$CBHVShader@finnsie@@@std@@PEAX@2@_K@Z 000000014002a910 f i resource_manager.obj
 0001:00029910       ?deallocate@?$allocator@UTexture@finnsie@@@std@@QEAAXQEAUTexture@finnsie@@_K@Z 000000014002a910 f i game.obj
 0001:00029910       ?deallocate@?$_Default_allocator_traits@V?$allocator@U?$_Tree_node@U?$pair@$$CBHUTexture2D@finnsie@@@std@@PEAX@std@@@std@@@std@@SAXAEAV?$allocator@U?$_Tree_node@U?$pair@$$CBHUTexture2D@finnsie@@@std@@PEAX@std@@@2@QEAU?$_Tree_node@U?$pair@$$CBHUTexture2D@finnsie@@@std@@PEAX@2@_K@Z 000000014002a910 f i game.obj
 0001:00029910       ?deallocate@?$_Default_allocator_traits@V?$allocator@U?$_Tree_node@U?$pair@$$CBHVShader@finnsie@@@std@@PEAX@std@@@std@@@std@@SAXAEAV?$allocator@U?$_Tree_node@U?$pair@$$CBHVShader@finnsie@@@std@@PEAX@std@@@2@QEAU?$_Tree_node@U?$pair@$$CBHVShader@finnsie@@@std@@PEAX@2@_K@Z 000000014002a910 f i renderer.obj
 0001:00029940       ?deallocate@?$allocator@D@std@@QEAAXQEAD_K@Z 000000014002a940 f i game.obj
 0001:00029970       ?deallocate@?$allocator@I@std@@QEAAXQEAI_K@Z 000000014002a970 f i game.obj
 0001:000299a0       ?deallocate@?$allocator@UVertex@finnsie@@@std@@QEAAXQEAUVertex@finnsie@@_K@Z 000000014002a9a0 f i game.obj
 0001:000299d0       ?deallocate@?$allocator@VMesh@finnsie@@@std@@QEAAXQEAVMesh@finnsie@@_K@Z 000000014002a9d0 f i game.obj
 0001:00029a00       ?end@?$vector@UTexture@finnsie@@V?$allocator@UTexture@finnsie@@@std@@@std@@QEAA?AV?$_Vector_iterator@V?$_Vector_val@U?$_Simple_types@UTexture@finnsie@@@std@@@std@@@2@XZ 000000014002aa00 f i game.obj
 0001:00029a00       ?end@?$vector@PEAVGameObject@finnsie@@V?$allocator@PEAVGameObject@finnsie@@@std@@@std@@QEAA?AV?$_Vector_iterator@V?$_Vector_val@U?$_Simple_types@PEAVGameObject@finnsie@@@std@@@std@@@2@XZ 000000014002aa00 f i utils.obj
 0001:00029a60       ?eq@?$_Narrow_char_traits@DH@std@@SA_NAEBD0@Z 000000014002aa60 f i game.obj
 0001:00029aa0       ?find_last_of@?$basic_string@DU?$char_traits@D@std@@V?$allocator@D@2@@std@@QEBA_KD_K@Z 000000014002aaa0 f i game.obj
 0001:00029b00       ?get_allocator@?$basic_string@DU?$char_traits@D@std@@V?$allocator@D@2@@std@@QEBA?AV?$allocator@D@2@XZ 000000014002ab00 f i game.obj
 0001:00029b30       ?loadMaterialTextures@Model@finnsie@@AEAA?AV?$vector@UTexture@finnsie@@V?$allocator@UTexture@finnsie@@@std@@@std@@PEAUaiMaterial@@W4aiTextureType@@V?$basic_string@DU?$char_traits@D@std@@V?$allocator@D@2@@4@@Z 000000014002ab30 f i game.obj
 0001:00029e10       ?loadModel@Model@finnsie@@AEAAXAEBV?$basic_string@DU?$char_traits@D@std@@V?$allocator@D@2@@std@@@Z 000000014002ae10 f i game.obj
 0001:00029f60       ?max@?$numeric_limits@_J@std@@SA_JXZ 000000014002af60 f i game.obj
 0001:00029f70       ?max_size@?$_Default_allocator_traits@V?$allocator@D@std@@@std@@SA_KAEBV?$allocator@D@2@@Z 000000014002af70 f i game.obj
 0001:00029f80       ?max_size@?$_Default_allocator_traits@V?$allocator@I@std@@@std@@SA_KAEBV?$allocator@I@2@@Z 000000014002af80 f i game.obj
 0001:00029f90       ?max_size@?$_Default_allocator_traits@V?$allocator@U?$_Tree_node@U?$pair@$$CBHVShader@finnsie@@@std@@PEAX@std@@@std@@@std@@SA_KAEBV?$allocator@U?$_Tree_node@U?$pair@$$CBHVShader@finnsie@@@std@@PEAX@std@@@2@@Z 000000014002af90 f i resource_manager.obj
 0001:00029f90       ?max_size@?$_Default_allocator_traits@V?$allocator@U?$_Tree_node@U?$pair@$$CBHUTexture2D@finnsie@@@std@@PEAX@std@@@std@@@std@@SA_KAEBV?$allocator@U?$_Tree_node@U?$pair@$$CBHUTexture2D@finnsie@@@std@@PEAX@std@@@2@@Z 000000014002af90 f i resource_manager.obj
 0001:00029f90       ?max_size@?$_Default_allocator_traits@V?$allocator@UTexture@finnsie@@@std@@@std@@SA_KAEBV?$allocator@UTexture@finnsie@@@2@@Z 000000014002af90 f i game.obj
 0001:00029f90       ?max_size@?$_Default_allocator_traits@V?$allocator@UobjFile@finnsie@@@std@@@std@@SA_KAEBV?$allocator@UobjFile@finnsie@@@2@@Z 000000014002af90 f i gui.obj
 0001:00029fa0       ?max_size@?$_Default_allocator_traits@V?$allocator@UVertex@finnsie@@@std@@@std@@SA_KAEBV?$allocator@UVertex@finnsie@@@2@@Z 000000014002afa0 f i game.obj
 0001:00029fb0       ?max_size@?$_Default_allocator_traits@V?$allocator@VMesh@finnsie@@@std@@@std@@SA_KAEBV?$allocator@VMesh@finnsie@@@2@@Z 000000014002afb0 f i game.obj
 0001:00029fc0       ?max_size@?$basic_string@DU?$char_traits@D@std@@V?$allocator@D@2@@std@@QEBA_KXZ 000000014002afc0 f i game.obj
 0001:0002a030       ?max_size@?$vector@IV?$allocator@I@std@@@std@@QEBA_KXZ 000000014002b030 f i game.obj
 0001:0002a080       ?max_size@?$_Tree@V?$_Tmap_traits@HUTexture2D@finnsie@@U?$less@H@std@@V?$allocator@U?$pair@$$CBHUTexture2D@finnsie@@@std@@@4@$0A@@std@@@std@@QEBA_KXZ 000000014002b080 f i resource_manager.obj
 0001:0002a080       ?max_size@?$vector@UobjFile@finnsie@@V?$allocator@UobjFile@finnsie@@@std@@@std@@QEBA_KXZ 000000014002b080 f i gui.obj
 0001:0002a080       ?max_size@?$vector@UTexture@finnsie@@V?$allocator@UTexture@finnsie@@@std@@@std@@QEBA_KXZ 000000014002b080 f i game.obj
 0001:0002a080       ?max_size@?$_Tree@V?$_Tmap_traits@HVShader@finnsie@@U?$less@H@std@@V?$allocator@U?$pair@$$CBHVShader@finnsie@@@std@@@4@$0A@@std@@@std@@QEBA_KXZ 000000014002b080 f i resource_manager.obj
 0001:0002a0d0       ?max_size@?$vector@UVertex@finnsie@@V?$allocator@UVertex@finnsie@@@std@@@std@@QEBA_KXZ 000000014002b0d0 f i game.obj
 0001:0002a120       ?max_size@?$vector@VMesh@finnsie@@V?$allocator@VMesh@finnsie@@@std@@@std@@QEBA_KXZ 000000014002b120 f i game.obj
 0001:0002a170       ?move@?$_Narrow_char_traits@DH@std@@SAPEADQEADQEBD_K@Z 000000014002b170 f i game.obj
 0001:0002a1a0       ?processMesh@Model@finnsie@@AEAA?AVMesh@2@PEAUaiMesh@@PEBUaiScene@@@Z 000000014002b1a0 f i game.obj
 0001:0002ab80       ?processNode@Model@finnsie@@AEAAXPEAUaiNode@@PEBUaiScene@@@Z 000000014002bb80 f i game.obj
 0001:0002acb0       ?push_back@?$basic_string@DU?$char_traits@D@std@@V?$allocator@D@2@@std@@QEAAXD@Z 000000014002bcb0 f i game.obj
 0001:0002ad80       ?push_back@?$vector@IV?$allocator@I@std@@@std@@QEAAXAEBI@Z 000000014002bd80 f i game.obj
 0001:0002adb0       ?push_back@?$vector@UTexture@finnsie@@V?$allocator@UTexture@finnsie@@@std@@@std@@QEAAXAEBUTexture@finnsie@@@Z 000000014002bdb0 f i game.obj
 0001:0002ade0       ?push_back@?$vector@UVertex@finnsie@@V?$allocator@UVertex@finnsie@@@std@@@std@@QEAAXAEBUVertex@finnsie@@@Z 000000014002bde0 f i game.obj
 0001:0002ae10       ?push_back@?$vector@VMesh@finnsie@@V?$allocator@VMesh@finnsie@@@std@@@std@@QEAAX$$QEAVMesh@finnsie@@@Z 000000014002be10 f i game.obj
 0001:0002ae40       ?reserve@?$basic_string@DU?$char_traits@D@std@@V?$allocator@D@2@@std@@QEAAX_K@Z 000000014002be40 f i game.obj
 0001:0002af10       ??$?0D@?$allocator@_W@std@@QEAA@AEBV?$allocator@D@1@@Z 000000014002bf10 f i gui.obj
 0001:0002af10       ?select_on_container_copy_construction@?$_Default_allocator_traits@V?$allocator@I@std@@@std@@SA?AV?$allocator@I@2@AEBV32@@Z 000000014002bf10 f i game.obj
 0001:0002af10       ?select_on_container_copy_construction@?$_Default_allocator_traits@V?$allocator@D@std@@@std@@SA?AV?$allocator@D@2@AEBV32@@Z 000000014002bf10 f i game.obj
 0001:0002af10       ?select_on_container_copy_construction@?$_Default_allocator_traits@V?$allocator@Uuniform@finnsie@@@std@@@std@@SA?AV?$allocator@Uuniform@finnsie@@@2@AEBV32@@Z 000000014002bf10 f i resource_manager.obj
 0001:0002af10       ?select_on_container_copy_construction@?$_Default_allocator_traits@V?$allocator@UVertex@finnsie@@@std@@@std@@SA?AV?$allocator@UVertex@finnsie@@@2@AEBV32@@Z 000000014002bf10 f i game.obj
 0001:0002af10       ?select_on_container_copy_construction@?$_Default_allocator_traits@V?$allocator@_W@std@@@std@@SA?AV?$allocator@_W@2@AEBV32@@Z 000000014002bf10 f i gui.obj
 0001:0002af10       ?select_on_container_copy_construction@?$_Default_allocator_traits@V?$allocator@UTexture@finnsie@@@std@@@std@@SA?AV?$allocator@UTexture@finnsie@@@2@AEBV32@@Z 000000014002bf10 f i game.obj
 0001:0002af10       ??0?$tuple@$$V@std@@QEAA@AEBV01@@Z 000000014002bf10 f i resource_manager.obj
 0001:0002af20       ?setupMesh@Mesh@finnsie@@AEAAXXZ 000000014002bf20 f i game.obj
 0001:0002b290       ?size@?$basic_string@DU?$char_traits@D@std@@V?$allocator@D@2@@std@@QEBA_KXZ 000000014002c290 f i game.obj
 0001:0002b290       ?size@?$basic_string@_WU?$char_traits@_W@std@@V?$allocator@_W@2@@std@@QEBA_KXZ 000000014002c290 f i gui.obj
 0001:0002b2a0       ?size@?$vector@IV?$allocator@I@std@@@std@@QEBA_KXZ 000000014002c2a0 f i game.obj
 0001:0002b2d0       ?size@?$vector@PEAVGameObject@finnsie@@V?$allocator@PEAVGameObject@finnsie@@@std@@@std@@QEBA_KXZ 000000014002c2d0 f i game.obj
 0001:0002b300       ?size@?$vector@UobjFile@finnsie@@V?$allocator@UobjFile@finnsie@@@std@@@std@@QEBA_KXZ 000000014002c300 f i gui.obj
 0001:0002b300       ?size@?$vector@UTexture@finnsie@@V?$allocator@UTexture@finnsie@@@std@@@std@@QEBA_KXZ 000000014002c300 f i game.obj
 0001:0002b340       ?size@?$vector@UVertex@finnsie@@V?$allocator@UVertex@finnsie@@@std@@@std@@QEBA_KXZ 000000014002c340 f i game.obj
 0001:0002b380       ?substr@?$basic_string@DU?$char_traits@D@std@@V?$allocator@D@2@@std@@QEBA?AV12@_K0@Z 000000014002c380 f i game.obj
 0001:0002b3f0       ?what@exception@std@@UEBAPEBDXZ 000000014002c3f0 f i game.obj
 0001:0002b430       ?LoadTextureFile@finnsie@@YAIPEBDAEBV?$basic_string@DU?$char_traits@D@std@@V?$allocator@D@2@@std@@_N@Z 000000014002c430 f   utils.obj
 0001:0002b7a0       ?CreateEmptyObject@finnsie@@YA_NXZ 000000014002c7a0 f   utils.obj
 0001:0002b810       ?LoadEmptyObject@finnsie@@YA_NHV?$basic_string@DU?$char_traits@D@std@@V?$allocator@D@2@@std@@0@Z 000000014002c810 f   utils.obj
 0001:0002ba30       ?LoadTexture@finnsie@@YA_NH@Z 000000014002ca30 f   utils.obj
 0001:0002be00       ?LoadModels@finnsie@@YA_NV?$basic_string@DU?$char_traits@D@std@@V?$allocator@D@2@@std@@@Z 000000014002ce00 f   utils.obj
 0001:0002be30       ?UnloadObject@finnsie@@YA_NV?$basic_string@DU?$char_traits@D@std@@V?$allocator@D@2@@std@@@Z 000000014002ce30 f   utils.obj
 0001:0002c010       ?UnloadObject@finnsie@@YA_NH@Z 000000014002d010 f   utils.obj
 0001:0002c150       ?LoadDistortedWater@finnsie@@YAXPEAVModel@1@@Z 000000014002d150 f   utils.obj
 0001:0002c4d0       ?LoadDirectionalWater@finnsie@@YAXPEAVModel@1@@Z 000000014002d4d0 f   utils.obj
 0001:0002c730       ??$?8DU?$char_traits@D@std@@V?$allocator@D@1@@std@@YA_NAEBV?$basic_string@DU?$char_traits@D@std@@V?$allocator@D@2@@0@0@Z 000000014002d730 f i utils.obj
 0001:0002c760       ??$?HDU?$char_traits@D@std@@V?$allocator@D@1@@std@@YA?AV?$basic_string@DU?$char_traits@D@std@@V?$allocator@D@2@@0@QEBD$$QEAV10@@Z 000000014002d760 f i utils.obj
 0001:0002c7c0       ??$_Emplace_back_with_unused_capacity@AEBQEAVGameObject@finnsie@@@?$vector@PEAVGameObject@finnsie@@V?$allocator@PEAVGameObject@finnsie@@@std@@@std@@AEAAAEAPEAVGameObject@finnsie@@AEBQEAV23@@Z 000000014002d7c0 f i utils.obj
 0001:0002c870       ??$_Emplace_reallocate@AEBQEAVGameObject@finnsie@@@?$vector@PEAVGameObject@finnsie@@V?$allocator@PEAVGameObject@finnsie@@@std@@@std@@QEAAPEAPEAVGameObject@finnsie@@QEAPEAV23@AEBQEAV23@@Z 000000014002d870 f i utils.obj
 0001:0002ca90       ??$_Find_unchecked1@PEAPEAVGameObject@finnsie@@PEAV12@@std@@YAPEAPEAVGameObject@finnsie@@PEAPEAV12@QEAPEAV12@AEBQEAV12@U?$integral_constant@_N$0A@@0@@Z 000000014002da90 f i utils.obj
 0001:0002cae0       ??$_Find_unchecked@PEAPEAVGameObject@finnsie@@PEAV12@@std@@YAPEAPEAVGameObject@finnsie@@QEAPEAV12@0AEBQEAV12@@Z 000000014002dae0 f i utils.obj
 0001:0002cb30       ??$_Get_size_of_n@$07@std@@YA_K_K@Z 000000014002db30 f i utils.obj
 0001:0002cb80       ??$_Move_unchecked@PEAPEAVGameObject@finnsie@@PEAPEAV12@@std@@YAPEAPEAVGameObject@finnsie@@PEAPEAV12@00@Z 000000014002db80 f i utils.obj
 0001:0002cbb0       ??$_Reallocate_grow_by@V<lambda_f3a66ab6a0570788f31503db83886f49>@@_KPEBD_K@?$basic_string@DU?$char_traits@D@std@@V?$allocator@D@2@@std@@AEAAAEAV01@_KV<lambda_f3a66ab6a0570788f31503db83886f49>@@_KPEBD2@Z 000000014002dbb0 f i utils.obj
 0001:0002cdb0       ??$_Seek_wrapped@V?$_String_iterator@V?$_String_val@U?$_Simple_types@_W@std@@@std@@@std@@PEA_W@std@@YAXAEAV?$_String_iterator@V?$_String_val@U?$_Simple_types@_W@std@@@std@@@0@AEBQEA_W@Z 000000014002ddb0 f i gui.obj
 0001:0002cdb0       ??$_Seek_wrapped@V?$_Vector_iterator@V?$_Vector_val@U?$_Simple_types@PEAVGameObject@finnsie@@@std@@@std@@@std@@PEAPEAVGameObject@finnsie@@@std@@YAXAEAV?$_Vector_iterator@V?$_Vector_val@U?$_Simple_types@PEAVGameObject@finnsie@@@std@@@std@@@0@AEBQEAPEAVGameObject@finnsie@@@Z 000000014002ddb0 f i utils.obj
 0001:0002cde0       ??$_Traits_equal@U?$char_traits@D@std@@@std@@YA_NQEBD_K01@Z 000000014002dde0 f i utils.obj
 0001:0002ce40       ??$_Uninitialized_move@PEAPEAVGameObject@finnsie@@V?$allocator@PEAVGameObject@finnsie@@@std@@@std@@YAPEAPEAVGameObject@finnsie@@QEAPEAV12@0PEAPEAV12@AEAV?$allocator@PEAVGameObject@finnsie@@@0@@Z 000000014002de40 f i utils.obj
 0001:0002cec0       ??$construct@PEAVGameObject@finnsie@@AEBQEAV12@@?$_Default_allocator_traits@V?$allocator@PEAVGameObject@finnsie@@@std@@@std@@SAXAEAV?$allocator@PEAVGameObject@finnsie@@@1@QEAPEAVGameObject@finnsie@@AEBQEAV34@@Z 000000014002dec0 f i utils.obj
 0001:0002cf10       ??$emplace_back@AEBQEAVGameObject@finnsie@@@?$vector@PEAVGameObject@finnsie@@V?$allocator@PEAVGameObject@finnsie@@@std@@@std@@QEAAAEAPEAVGameObject@finnsie@@AEBQEAV23@@Z 000000014002df10 f i utils.obj
 0001:0002cfb0       ??$remove@V?$_Vector_iterator@V?$_Vector_val@U?$_Simple_types@PEAVGameObject@finnsie@@@std@@@std@@@std@@PEAVGameObject@finnsie@@@std@@YA?AV?$_Vector_iterator@V?$_Vector_val@U?$_Simple_types@PEAVGameObject@finnsie@@@std@@@std@@@0@V10@V10@AEBQEAVGameObject@finnsie@@@Z 000000014002dfb0 f i utils.obj
 0001:0002d0a0       ??0?$vec@$02M$0A@@glm@@QEAA@M@Z 000000014002e0a0 f i utils.obj
 0001:0002d0e0       ??0GameObject@finnsie@@QEAA@XZ 000000014002e0e0 f i utils.obj
 0001:0002d1a0       ??1?$vector@PEAVGameObject@finnsie@@V?$allocator@PEAVGameObject@finnsie@@@std@@@std@@QEAA@XZ 000000014002e1a0 f i utils.obj
 0001:0002d1c0       ??A?$vector@VMesh@finnsie@@V?$allocator@VMesh@finnsie@@@std@@@std@@QEAAAEAVMesh@finnsie@@_K@Z 000000014002e1c0 f i utils.obj
 0001:0002d1f0       ??R<lambda_f3a66ab6a0570788f31503db83886f49>@@QEBAXQEADQEBD_K212@Z 000000014002e1f0 f i utils.obj
 0001:0002d2a0       ?_Calculate_growth@?$vector@U_Find_file_handle@filesystem@std@@V?$allocator@U_Find_file_handle@filesystem@std@@@3@@std@@AEBA_K_K@Z 000000014002e2a0 f i gui.obj
 0001:0002d2a0       ?_Calculate_growth@?$vector@PEAVGameObject@finnsie@@V?$allocator@PEAVGameObject@finnsie@@@std@@@std@@AEBA_K_K@Z 000000014002e2a0 f i utils.obj
 0001:0002d330       ?_Change_array@?$vector@PEAVGameObject@finnsie@@V?$allocator@PEAVGameObject@finnsie@@@std@@@std@@AEAAXQEAPEAVGameObject@finnsie@@_K1@Z 000000014002e330 f i utils.obj
 0001:0002d440       ?_Equal@?$basic_string@DU?$char_traits@D@std@@V?$allocator@D@2@@std@@QEBA_NAEBV12@@Z 000000014002e440 f i utils.obj
 0001:0002d4b0       ?_Seek_to@?$_Vector_const_iterator@V?$_Vector_val@U?$_Simple_types@PEAVGameObject@finnsie@@@std@@@std@@@std@@QEAAXPEBQEAVGameObject@finnsie@@@Z 000000014002e4b0 f i utils.obj
 0001:0002d4b0       ?_Seek_to@?$_String_const_iterator@V?$_String_val@U?$_Simple_types@_W@std@@@std@@@std@@QEAAXPEB_W@Z 000000014002e4b0 f i gui.obj
 0001:0002d4e0       ?_Tidy@?$vector@PEAVGameObject@finnsie@@V?$allocator@PEAVGameObject@finnsie@@@std@@@std@@AEAAXXZ 000000014002e4e0 f i utils.obj
 0001:0002d5d0       ?_Umove@?$vector@PEAVGameObject@finnsie@@V?$allocator@PEAVGameObject@finnsie@@@std@@@std@@AEAAPEAPEAVGameObject@finnsie@@PEAPEAV34@00@Z 000000014002e5d0 f i utils.obj
 0001:0002d5d0       ?_Umove_if_noexcept1@?$vector@PEAVGameObject@finnsie@@V?$allocator@PEAVGameObject@finnsie@@@std@@@std@@AEAAXPEAPEAVGameObject@finnsie@@00U?$integral_constant@_N$00@2@@Z 000000014002e5d0 f i utils.obj
 0001:0002d610       ?_Umove_if_noexcept@?$vector@PEAVGameObject@finnsie@@V?$allocator@PEAVGameObject@finnsie@@@std@@@std@@AEAAXPEAPEAVGameObject@finnsie@@00@Z 000000014002e610 f i utils.obj
 0001:0002d670       ?allocate@?$allocator@U_Find_file_handle@filesystem@std@@@std@@QEAAPEAU_Find_file_handle@filesystem@2@_K@Z 000000014002e670 f i gui.obj
 0001:0002d670       ?allocate@?$allocator@PEAVGameObject@finnsie@@@std@@QEAAPEAPEAVGameObject@finnsie@@_K@Z 000000014002e670 f i utils.obj
 0001:0002d6a0       ?capacity@?$vector@U_Find_file_handle@filesystem@std@@V?$allocator@U_Find_file_handle@filesystem@std@@@3@@std@@QEBA_KXZ 000000014002e6a0 f i gui.obj
 0001:0002d6a0       ?capacity@?$vector@PEAVGameObject@finnsie@@V?$allocator@PEAVGameObject@finnsie@@@std@@@std@@QEBA_KXZ 000000014002e6a0 f i utils.obj
 0001:0002d6d0       ?compare@?$_Narrow_char_traits@DH@std@@SAHQEBD0_K@Z 000000014002e6d0 f i utils.obj
 0001:0002d700       ?deallocate@?$allocator@U_Find_file_handle@filesystem@std@@@std@@QEAAXQEAU_Find_file_handle@filesystem@2@_K@Z 000000014002e700 f i gui.obj
 0001:0002d700       ?deallocate@?$allocator@PEAVGameObject@finnsie@@@std@@QEAAXQEAPEAVGameObject@finnsie@@_K@Z 000000014002e700 f i utils.obj
 0001:0002d730       ?erase@?$vector@PEAVGameObject@finnsie@@V?$allocator@PEAVGameObject@finnsie@@@std@@@std@@QEAA?AV?$_Vector_iterator@V?$_Vector_val@U?$_Simple_types@PEAVGameObject@finnsie@@@std@@@std@@@2@V?$_Vector_const_iterator@V?$_Vector_val@U?$_Simple_types@PEAVGameObject@finnsie@@@std@@@std@@@2@0@Z 000000014002e730 f i utils.obj
 0001:0002d810       ?insert@?$basic_string@DU?$char_traits@D@std@@V?$allocator@D@2@@std@@QEAAAEAV12@_KQEBD0@Z 000000014002e810 f i utils.obj
 0001:0002da40       ?insert@?$basic_string@DU?$char_traits@D@std@@V?$allocator@D@2@@std@@QEAAAEAV12@_KQEBD@Z 000000014002ea40 f i utils.obj
 0001:0002da90       ?max_size@?$_Default_allocator_traits@V?$allocator@U_Find_file_handle@filesystem@std@@@std@@@std@@SA_KAEBV?$allocator@U_Find_file_handle@filesystem@std@@@2@@Z 000000014002ea90 f i gui.obj
 0001:0002da90       ?max_size@?$_Default_allocator_traits@V?$allocator@PEAVGameObject@finnsie@@@std@@@std@@SA_KAEBV?$allocator@PEAVGameObject@finnsie@@@2@@Z 000000014002ea90 f i utils.obj
 0001:0002daa0       ?max_size@?$vector@U_Find_file_handle@filesystem@std@@V?$allocator@U_Find_file_handle@filesystem@std@@@3@@std@@QEBA_KXZ 000000014002eaa0 f i gui.obj
 0001:0002daa0       ?max_size@?$vector@PEAVGameObject@finnsie@@V?$allocator@PEAVGameObject@finnsie@@@std@@@std@@QEBA_KXZ 000000014002eaa0 f i utils.obj
 0001:0002daf0       ?push_back@?$vector@PEAVGameObject@finnsie@@V?$allocator@PEAVGameObject@finnsie@@@std@@@std@@QEAAXAEBQEAVGameObject@finnsie@@@Z 000000014002eaf0 f i utils.obj
 0001:0002db20       ?Generate@finnsie@@YAXPEAUTexture2D@1@IIIPEAE@Z 000000014002eb20 f   texture_manager.obj
 0001:0002dd50       ?Bind@finnsie@@YAXPEAUTexture2D@1@@Z 000000014002ed50 f   texture_manager.obj
 0001:0002dd80       ?UseShader@Shader@finnsie@@QEAAAEAV12@PEAV12@@Z 000000014002ed80 f   shader_manager.obj
 0001:0002ddc0       ?GetUniforms@Shader@finnsie@@QEAAXXZ 000000014002edc0 f   shader_manager.obj
 0001:0002df50       ?GetLoc@Shader@finnsie@@QEAAHV?$basic_string@DU?$char_traits@D@std@@V?$allocator@D@2@@std@@@Z 000000014002ef50 f   shader_manager.obj
 0001:0002e040       ?BuildShader@Shader@finnsie@@QEAAXPEAV12@PEBD11@Z 000000014002f040 f   shader_manager.obj
 0001:0002e7e0       ?checkCompileErrors@Shader@finnsie@@AEAAXIV?$basic_string@DU?$char_traits@D@std@@V?$allocator@D@2@@std@@@Z 000000014002f7e0 f   shader_manager.obj
 0001:0002e9b0       ??$?0AEAPEAV_Facet_base@std@@@?$_Compressed_pair@U?$default_delete@V_Facet_base@std@@@std@@PEAV_Facet_base@2@$00@std@@QEAA@U_Zero_then_variadic_args_t@1@AEAPEAV_Facet_base@1@@Z 000000014002f9b0 f i shader_manager.obj
 0001:0002e9f0       ??$?0U?$default_delete@V_Facet_base@std@@@std@@$0A@@?$unique_ptr@V_Facet_base@std@@U?$default_delete@V_Facet_base@std@@@2@@std@@QEAA@PEAV_Facet_base@1@@Z 000000014002f9f0 f i shader_manager.obj
 0001:0002ea30       ??$?6DU?$char_traits@D@std@@V?$allocator@D@1@@std@@YAAEAV?$basic_ostream@DU?$char_traits@D@std@@@0@AEAV10@AEBV?$basic_string@DU?$char_traits@D@std@@V?$allocator@D@2@@0@@Z 000000014002fa30 f i shader_manager.obj
 0001:0002ea80       ??$?8DU?$char_traits@D@std@@V?$allocator@D@1@@std@@YA_NAEBV?$basic_string@DU?$char_traits@D@std@@V?$allocator@D@2@@0@QEBD@Z 000000014002fa80 f i shader_manager.obj
 0001:0002eab0       ??$?9DU?$char_traits@D@std@@V?$allocator@D@1@@std@@YA_NAEBV?$basic_string@DU?$char_traits@D@std@@V?$allocator@D@2@@0@QEBD@Z 000000014002fab0 f i shader_manager.obj
 0001:0002eaf0       ??$_Destroy_range@V?$allocator@Uuniform@finnsie@@@std@@@std@@YAXPEAUuniform@finnsie@@QEAU12@AEAV?$allocator@Uuniform@finnsie@@@0@@Z 000000014002faf0 f i shader_manager.obj
 0001:0002eb40       ??$_Emplace_back@Uuniform@finnsie@@@?$_Uninitialized_backout_al@V?$allocator@Uuniform@finnsie@@@std@@@std@@QEAAX$$QEAUuniform@finnsie@@@Z 000000014002fb40 f i shader_manager.obj
 0001:0002ebb0       ??$_Emplace_back_with_unused_capacity@Uuniform@finnsie@@@?$vector@Uuniform@finnsie@@V?$allocator@Uuniform@finnsie@@@std@@@std@@AEAAAEAUuniform@finnsie@@$$QEAU23@@Z 000000014002fbb0 f i shader_manager.obj
 0001:0002ec60       ??$_Emplace_reallocate@Uuniform@finnsie@@@?$vector@Uuniform@finnsie@@V?$allocator@Uuniform@finnsie@@@std@@@std@@QEAAPEAUuniform@finnsie@@QEAU23@$$QEAU23@@Z 000000014002fc60 f i shader_manager.obj
 0001:0002ee90       ??$_Fgetc@D@std@@YA_NAEADPEAU_iobuf@@@Z 000000014002fe90 f i shader_manager.obj
 0001:0002eed0       ??$_Fputc@D@std@@YA_NDPEAU_iobuf@@@Z 000000014002fed0 f i shader_manager.obj
 0001:0002ef10       ??$_Get_size_of_n@$0CI@@std@@YA_K_K@Z 000000014002ff10 f i shader_manager.obj
 0001:0002ef50       ??$_Insert_string@DU?$char_traits@D@std@@_K@std@@YAAEAV?$basic_ostream@DU?$char_traits@D@std@@@0@AEAV10@QEBD_K@Z 000000014002ff50 f i shader_manager.obj
 0001:0002f340       ??$_Ungetc@D@std@@YA_NAEBDPEAU_iobuf@@@Z 0000000140030340 f i shader_manager.obj
 0001:0002f390       ??$_Uninitialized_move@PEAUuniform@finnsie@@V?$allocator@Uuniform@finnsie@@@std@@@std@@YAPEAUuniform@finnsie@@QEAU12@0PEAU12@AEAV?$allocator@Uuniform@finnsie@@@0@@Z 0000000140030390 f i shader_manager.obj
 0001:0002f440       ??$construct@Uuniform@finnsie@@U12@@?$_Default_allocator_traits@V?$allocator@Uuniform@finnsie@@@std@@@std@@SAXAEAV?$allocator@Uuniform@finnsie@@@1@QEAUuniform@finnsie@@$$QEAU34@@Z 0000000140030440 f i shader_manager.obj
 0001:0002f490       ??$destroy@Uuniform@finnsie@@@?$_Default_allocator_traits@V?$allocator@Uuniform@finnsie@@@std@@@std@@SAXAEAV?$allocator@Uuniform@finnsie@@@1@QEAUuniform@finnsie@@@Z 0000000140030490 f i shader_manager.obj
 0001:0002f4b0       ??$emplace_back@Uuniform@finnsie@@@?$vector@Uuniform@finnsie@@V?$allocator@Uuniform@finnsie@@@std@@@std@@QEAAAEAUuniform@finnsie@@$$QEAU23@@Z 00000001400304b0 f i shader_manager.obj
 0001:0002f550       ??$use_facet@V?$codecvt@DDU_Mbstatet@@@std@@@std@@YAAEBV?$codecvt@DDU_Mbstatet@@@0@AEBVlocale@0@@Z 0000000140030550 f i shader_manager.obj
 0001:0002f660       ??0?$basic_filebuf@DU?$char_traits@D@std@@@std@@QEAA@XZ 0000000140030660 f i shader_manager.obj
 0001:0002f6a0       ??0?$basic_ifstream@DU?$char_traits@D@std@@@std@@QEAA@XZ 00000001400306a0 f i shader_manager.obj
 0001:0002f770       ??0?$basic_string@DU?$char_traits@D@std@@V?$allocator@D@2@@std@@QEAA@AEBV?$allocator@D@1@@Z 0000000140030770 f i shader_manager.obj
 0001:0002f7d0       ??0?$basic_stringbuf@DU?$char_traits@D@std@@V?$allocator@D@2@@std@@QEAA@H@Z 00000001400307d0 f i shader_manager.obj
 0001:0002f840       ??0?$basic_stringstream@DU?$char_traits@D@std@@V?$allocator@D@2@@std@@QEAA@H@Z 0000000140030840 f i shader_manager.obj
 0001:0002f930       ??0?$fpos@U_Mbstatet@@@std@@QEAA@U_Mbstatet@@_J@Z 0000000140030930 f i shader_manager.obj
 0001:0002f970       ??0?$fpos@U_Mbstatet@@@std@@QEAA@_J@Z 0000000140030970 f i shader_manager.obj
 0001:0002f9c0       ??0runtime_error@std@@QEAA@AEBV01@@Z 00000001400309c0 f i gui.obj
 0001:0002f9c0       ??0bad_cast@std@@QEAA@AEBV01@@Z 00000001400309c0 f i shader_manager.obj
 0001:0002fa00       ??0bad_cast@std@@QEAA@XZ   0000000140030a00 f i shader_manager.obj
 0001:0002fa40       ??0uniform@finnsie@@QEAA@$$QEAU01@@Z 0000000140030a40 f i shader_manager.obj
 0001:0002fa90       ??0uniform@finnsie@@QEAA@V?$basic_string@DU?$char_traits@D@std@@V?$allocator@D@2@@std@@H@Z 0000000140030a90 f i shader_manager.obj
 0001:0002fb00       ??1?$_Uninitialized_backout_al@V?$allocator@Uuniform@finnsie@@@std@@@std@@QEAA@XZ 0000000140030b00 f i shader_manager.obj
 0001:0002fb30       ??1?$basic_filebuf@DU?$char_traits@D@std@@@std@@UEAA@XZ 0000000140030b30 f i shader_manager.obj
 0001:0002fb90       ??1?$basic_ifstream@DU?$char_traits@D@std@@@std@@UEAA@XZ 0000000140030b90 f i shader_manager.obj
 0001:0002fc20       ??1?$basic_stringbuf@DU?$char_traits@D@std@@V?$allocator@D@2@@std@@UEAA@XZ 0000000140030c20 f i shader_manager.obj
 0001:0002fc60       ??1?$basic_stringstream@DU?$char_traits@D@std@@V?$allocator@D@2@@std@@UEAA@XZ 0000000140030c60 f i shader_manager.obj
 0001:0002fcf0       ??1?$unique_ptr@V_Facet_base@std@@U?$default_delete@V_Facet_base@std@@@2@@std@@QEAA@XZ 0000000140030cf0 f i shader_manager.obj
 0001:0002fd40       ??1failure@ios_base@std@@UEAA@XZ 0000000140030d40 f i shader_manager.obj
 0001:0002fd60       ??1locale@std@@QEAA@XZ     0000000140030d60 f i shader_manager.obj
 0001:0002fdd0       ??1system_error@std@@UEAA@XZ 0000000140030dd0 f i shader_manager.obj
 0001:0002fdf0       ??1uniform@finnsie@@QEAA@XZ 0000000140030df0 f i shader_manager.obj
 0001:0002fe10       ??A?$vector@Uuniform@finnsie@@V?$allocator@Uuniform@finnsie@@@std@@@std@@QEAAAEAUuniform@finnsie@@_K@Z 0000000140030e10 f i shader_manager.obj
 0001:0002fe40       ??B?$fpos@U_Mbstatet@@@std@@QEBA_JXZ 0000000140030e40 f i shader_manager.obj
 0001:0002fe60       ??R?$default_delete@V_Facet_base@std@@@std@@QEBAXPEAV_Facet_base@1@@Z 0000000140030e60 f i shader_manager.obj
 0001:0002fec0       ??_D?$basic_ifstream@DU?$char_traits@D@std@@@std@@QEAAXXZ 0000000140030ec0 f i shader_manager.obj
 0001:0002ff00       ??_D?$basic_stringstream@DU?$char_traits@D@std@@V?$allocator@D@2@@std@@QEAAXXZ 0000000140030f00 f i shader_manager.obj
 0001:0002ff38       ??_E?$basic_ifstream@DU?$char_traits@D@std@@@std@@$4PPPPPPPM@A@EAAPEAXI@Z 0000000140030f38 f i shader_manager.obj
 0001:0002ff44       ??_E?$basic_stringstream@DU?$char_traits@D@std@@V?$allocator@D@2@@std@@$4PPPPPPPM@A@EAAPEAXI@Z 0000000140030f44 f i shader_manager.obj
 0001:0002ff50       ??_G?$basic_filebuf@DU?$char_traits@D@std@@@std@@UEAAPEAXI@Z 0000000140030f50 f i shader_manager.obj
 0001:0002ff50       ??_E?$basic_filebuf@DU?$char_traits@D@std@@@std@@UEAAPEAXI@Z 0000000140030f50 f i shader_manager.obj
 0001:0002ff90       ??_G?$basic_ifstream@DU?$char_traits@D@std@@@std@@UEAAPEAXI@Z 0000000140030f90 f i shader_manager.obj
 0001:0002ff90       ??_E?$basic_ifstream@DU?$char_traits@D@std@@@std@@UEAAPEAXI@Z 0000000140030f90 f i shader_manager.obj
 0001:0002fff0       ??_G?$basic_stringbuf@DU?$char_traits@D@std@@V?$allocator@D@2@@std@@UEAAPEAXI@Z 0000000140030ff0 f i shader_manager.obj
 0001:0002fff0       ??_E?$basic_stringbuf@DU?$char_traits@D@std@@V?$allocator@D@2@@std@@UEAAPEAXI@Z 0000000140030ff0 f i shader_manager.obj
 0001:00030030       ??_G?$basic_stringstream@DU?$char_traits@D@std@@V?$allocator@D@2@@std@@UEAAPEAXI@Z 0000000140031030 f i shader_manager.obj
 0001:00030030       ??_E?$basic_stringstream@DU?$char_traits@D@std@@V?$allocator@D@2@@std@@UEAAPEAXI@Z 0000000140031030 f i shader_manager.obj
 0001:00030090       ??_Guniform@finnsie@@QEAAPEAXI@Z 0000000140031090 f i shader_manager.obj
 0001:000300d0       ?_Calculate_growth@?$vector@Uuniform@finnsie@@V?$allocator@Uuniform@finnsie@@@std@@@std@@AEBA_K_K@Z 00000001400310d0 f i shader_manager.obj
 0001:00030160       ?_Change_array@?$vector@Uuniform@finnsie@@V?$allocator@Uuniform@finnsie@@@std@@@std@@AEAAXQEAUuniform@finnsie@@_K1@Z 0000000140031160 f i shader_manager.obj
 0001:00030280       ?_Destroy@?$vector@Uuniform@finnsie@@V?$allocator@Uuniform@finnsie@@@std@@@std@@AEAAXPEAUuniform@finnsie@@0@Z 0000000140031280 f i shader_manager.obj
 0001:000302c0       ?_Endwrite@?$basic_filebuf@DU?$char_traits@D@std@@@std@@IEAA_NXZ 00000001400312c0 f i shader_manager.obj
 0001:00030480       ?_Equal@?$basic_string@DU?$char_traits@D@std@@V?$allocator@D@2@@std@@QEBA_NQEBD@Z 0000000140031480 f i shader_manager.obj
 0001:000304e0       ?_Getfacet@locale@std@@QEBAPEBVfacet@12@_K@Z 00000001400314e0 f i shader_manager.obj
 0001:00030590       ?_Getstate@?$basic_stringbuf@DU?$char_traits@D@std@@V?$allocator@D@2@@std@@CAHH@Z 0000000140031590 f i shader_manager.obj
 0001:00030600       ?_Init@?$basic_filebuf@DU?$char_traits@D@std@@@std@@IEAAXPEAU_iobuf@@W4_Initfl@12@@Z 0000000140031600 f i shader_manager.obj
 0001:00030730       ?_Initcvt@?$basic_filebuf@DU?$char_traits@D@std@@@std@@IEAAXAEBV?$codecvt@DDU_Mbstatet@@@2@@Z 0000000140031730 f i shader_manager.obj
 0001:00030790       ?_Lock@?$basic_filebuf@DU?$char_traits@D@std@@@std@@UEAAXXZ 0000000140031790 f i shader_manager.obj
 0001:000307c0       ?_Reset_back@?$basic_filebuf@DU?$char_traits@D@std@@@std@@AEAAXXZ 00000001400317c0 f i shader_manager.obj
 0001:00030820       ?_Set_back@?$basic_filebuf@DU?$char_traits@D@std@@@std@@AEAAXXZ 0000000140031820 f i shader_manager.obj
 0001:000308b0       ?_Throw_bad_cast@std@@YAXXZ 00000001400318b0 f i shader_manager.obj
 0001:000308e0       ?_Tidy@?$basic_stringbuf@DU?$char_traits@D@std@@V?$allocator@D@2@@std@@IEAAXXZ 00000001400318e0 f i shader_manager.obj
 0001:000309e0       ?_Umove@?$vector@Uuniform@finnsie@@V?$allocator@Uuniform@finnsie@@@std@@@std@@AEAAPEAUuniform@finnsie@@PEAU34@00@Z 00000001400319e0 f i shader_manager.obj
 0001:000309e0       ?_Umove_if_noexcept1@?$vector@Uuniform@finnsie@@V?$allocator@Uuniform@finnsie@@@std@@@std@@AEAAXPEAUuniform@finnsie@@00U?$integral_constant@_N$00@2@@Z 00000001400319e0 f i shader_manager.obj
 0001:00030a20       ?_Umove_if_noexcept@?$vector@Uuniform@finnsie@@V?$allocator@Uuniform@finnsie@@@std@@@std@@AEAAXPEAUuniform@finnsie@@00@Z 0000000140031a20 f i shader_manager.obj
 0001:00030a80       ?_Unlock@?$basic_filebuf@DU?$char_traits@D@std@@@std@@UEAAXXZ 0000000140031a80 f i shader_manager.obj
 0001:00030ab0       ?allocate@?$allocator@Uuniform@finnsie@@@std@@QEAAPEAUuniform@finnsie@@_K@Z 0000000140031ab0 f i shader_manager.obj
 0001:00030ae0       ?capacity@?$vector@Uuniform@finnsie@@V?$allocator@Uuniform@finnsie@@@std@@@std@@QEBA_KXZ 0000000140031ae0 f i shader_manager.obj
 0001:00030b20       ?close@?$basic_filebuf@DU?$char_traits@D@std@@@std@@QEAAPEAV12@XZ 0000000140031b20 f i shader_manager.obj
 0001:00030bb0       ?close@?$basic_ifstream@DU?$char_traits@D@std@@@std@@QEAAXXZ 0000000140031bb0 f i shader_manager.obj
 0001:00030c10       ?deallocate@?$allocator@Uuniform@finnsie@@@std@@QEAAXQEAUuniform@finnsie@@_K@Z 0000000140031c10 f i shader_manager.obj
 0001:00030c40       ?erase@?$basic_string@DU?$char_traits@D@std@@V?$allocator@D@2@@std@@QEAAAEAV12@_K_K@Z 0000000140031c40 f i shader_manager.obj
 0001:00030d30       ?front@?$basic_string@DU?$char_traits@D@std@@V?$allocator@D@2@@std@@QEAAAEADXZ 0000000140031d30 f i shader_manager.obj
 0001:00030d60       ?imbue@?$basic_filebuf@DU?$char_traits@D@std@@@std@@MEAAXAEBVlocale@2@@Z 0000000140031d60 f i shader_manager.obj
 0001:00030d90       ?max_size@?$_Default_allocator_traits@V?$allocator@Uuniform@finnsie@@@std@@@std@@SA_KAEBV?$allocator@Uuniform@finnsie@@@2@@Z 0000000140031d90 f i shader_manager.obj
 0001:00030da0       ?max_size@?$vector@Uuniform@finnsie@@V?$allocator@Uuniform@finnsie@@@std@@@std@@QEBA_KXZ 0000000140031da0 f i shader_manager.obj
 0001:00030df0       ?not_eof@?$_Narrow_char_traits@DH@std@@SAHAEBH@Z 0000000140031df0 f i shader_manager.obj
 0001:00030e40       ?open@?$basic_filebuf@DU?$char_traits@D@std@@@std@@QEAAPEAV12@PEBDHH@Z 0000000140031e40 f i shader_manager.obj
 0001:00030ef0       ?open@?$basic_ifstream@DU?$char_traits@D@std@@@std@@QEAAXPEBDHH@Z 0000000140031ef0 f i shader_manager.obj
 0001:00030fa0       ?overflow@?$basic_filebuf@DU?$char_traits@D@std@@@std@@MEAAHH@Z 0000000140031fa0 f i shader_manager.obj
 0001:00031280       ?overflow@?$basic_stringbuf@DU?$char_traits@D@std@@V?$allocator@D@2@@std@@MEAAHH@Z 0000000140032280 f i shader_manager.obj
 0001:00031590       ?pbackfail@?$basic_filebuf@DU?$char_traits@D@std@@@std@@MEAAHH@Z 0000000140032590 f i shader_manager.obj
 0001:00031720       ?pbackfail@?$basic_stringbuf@DU?$char_traits@D@std@@V?$allocator@D@2@@std@@MEAAHH@Z 0000000140032720 f i shader_manager.obj
 0001:00031820       ?pointer_to@?$pointer_traits@PEAD@std@@SAPEADAEAD@Z 0000000140032820 f i shader_manager.obj
 0001:00031840       ?push_back@?$vector@Uuniform@finnsie@@V?$allocator@Uuniform@finnsie@@@std@@@std@@QEAAX$$QEAUuniform@finnsie@@@Z 0000000140032840 f i shader_manager.obj
 0001:00031870       ?rdbuf@?$basic_ifstream@DU?$char_traits@D@std@@@std@@QEBAPEAV?$basic_filebuf@DU?$char_traits@D@std@@@2@XZ 0000000140032870 f i shader_manager.obj
 0001:00031890       ?release@?$unique_ptr@V_Facet_base@std@@U?$default_delete@V_Facet_base@std@@@2@@std@@QEAAPEAV_Facet_base@2@XZ 0000000140032890 f i shader_manager.obj
 0001:000318c0       ?seekoff@?$basic_filebuf@DU?$char_traits@D@std@@@std@@MEAA?AV?$fpos@U_Mbstatet@@@2@_JHH@Z 00000001400328c0 f i shader_manager.obj
 0001:000319c0       ?seekoff@?$basic_stringbuf@DU?$char_traits@D@std@@V?$allocator@D@2@@std@@MEAA?AV?$fpos@U_Mbstatet@@@2@_JHH@Z 00000001400329c0 f i shader_manager.obj
 0001:00031c70       ?seekpos@?$basic_filebuf@DU?$char_traits@D@std@@@std@@MEAA?AV?$fpos@U_Mbstatet@@@2@V32@H@Z 0000000140032c70 f i shader_manager.obj
 0001:00031d40       ?seekpos@?$basic_stringbuf@DU?$char_traits@D@std@@V?$allocator@D@2@@std@@MEAA?AV?$fpos@U_Mbstatet@@@2@V32@H@Z 0000000140032d40 f i shader_manager.obj
 0001:00031ee0       ?setbuf@?$basic_filebuf@DU?$char_traits@D@std@@@std@@MEAAPEAV?$basic_streambuf@DU?$char_traits@D@std@@@2@PEAD_J@Z 0000000140032ee0 f i shader_manager.obj
 0001:00031f80       ?size@?$vector@Uuniform@finnsie@@V?$allocator@Uuniform@finnsie@@@std@@@std@@QEBA_KXZ 0000000140032f80 f i shader_manager.obj
 0001:00031fc0       ?state@?$fpos@U_Mbstatet@@@std@@QEBA?AU_Mbstatet@@XZ 0000000140032fc0 f i shader_manager.obj
 0001:00031ff0       ?str@?$basic_stringbuf@DU?$char_traits@D@std@@V?$allocator@D@2@@std@@QEBA?AV?$basic_string@DU?$char_traits@D@std@@V?$allocator@D@2@@2@XZ 0000000140032ff0 f i shader_manager.obj
 0001:00032150       ?str@?$basic_stringstream@DU?$char_traits@D@std@@V?$allocator@D@2@@std@@QEBA?AV?$basic_string@DU?$char_traits@D@std@@V?$allocator@D@2@@2@XZ 0000000140033150 f i shader_manager.obj
 0001:000321a0       ?sync@?$basic_filebuf@DU?$char_traits@D@std@@@std@@MEAAHXZ 00000001400331a0 f i shader_manager.obj
 0001:00032230       ?to_int_type@?$_Narrow_char_traits@DH@std@@SAHAEBD@Z 0000000140033230 f i shader_manager.obj
 0001:00032230       ?to_char_type@?$_Narrow_char_traits@DH@std@@SADAEBH@Z 0000000140033230 f i shader_manager.obj
 0001:00032240       ?uflow@?$basic_filebuf@DU?$char_traits@D@std@@@std@@MEAAHXZ 0000000140033240 f i shader_manager.obj
 0001:000325c0       ?underflow@?$basic_filebuf@DU?$char_traits@D@std@@@std@@MEAAHXZ 00000001400335c0 f i shader_manager.obj
 0001:00032680       ?underflow@?$basic_stringbuf@DU?$char_traits@D@std@@V?$allocator@D@2@@std@@MEAAHXZ 0000000140033680 f i shader_manager.obj
 0001:00032790       ?xsgetn@?$basic_filebuf@DU?$char_traits@D@std@@@std@@MEAA_JPEAD_J@Z 0000000140033790 f i shader_manager.obj
 0001:00032980       ?xsputn@?$basic_filebuf@DU?$char_traits@D@std@@@std@@MEAA_JPEBD_J@Z 0000000140033980 f i shader_manager.obj
 0001:00032ab0       ?GenerateTexture@ResourceManager@finnsie@@QEAA?AUTexture2D@2@HPEBD_N@Z 0000000140033ab0 f   resource_manager.obj
 0001:00032ba0       ?GenerateShader@ResourceManager@finnsie@@QEAA?AVShader@2@HPEBD00@Z 0000000140033ba0 f   resource_manager.obj
 0001:00032ca0       ?GetTexture@ResourceManager@finnsie@@QEAAAEAUTexture2D@2@H@Z 0000000140033ca0 f   resource_manager.obj
 0001:00032ce0       ?GetShader@ResourceManager@finnsie@@QEAAAEAVShader@2@H@Z 0000000140033ce0 f   resource_manager.obj
 0001:00032d20       ?ShutDown@ResourceManager@finnsie@@QEAAXXZ 0000000140033d20 f   resource_manager.obj
 0001:00032e80       ?loadTextureFromFile@ResourceManager@finnsie@@AEAA?AUTexture2D@2@PEBD_N@Z 0000000140033e80 f   resource_manager.obj
 0001:00032fb0       ??$?0AEBH$$Z$$V@?$pair@$$CBHUTexture2D@finnsie@@@std@@QEAA@Upiecewise_construct_t@1@V?$tuple@AEBH@1@V?$tuple@$$V@1@@Z 0000000140033fb0 f i resource_manager.obj
 0001:00033000       ??$?0AEBH$$Z$$V@?$pair@$$CBHVShader@finnsie@@@std@@QEAA@Upiecewise_construct_t@1@V?$tuple@AEBH@1@V?$tuple@$$V@1@@Z 0000000140034000 f i resource_manager.obj
 0001:00033050       ??$?0AEBH$0A@@?$tuple@AEBH@std@@QEAA@AEBH@Z 0000000140034050 f i resource_manager.obj
 0001:00033090       ??$?0AEBH@?$_Tuple_val@AEBH@std@@QEAA@AEBH@Z 0000000140034090 f i resource_manager.obj
 0001:000330c0       ??$?0PEAU?$_Tree_node@U?$pair@$$CBHVShader@finnsie@@@std@@PEAX@std@@_N$0A@@?$pair@PEAU?$_Tree_node@U?$pair@$$CBHVShader@finnsie@@@std@@PEAX@std@@_N@std@@QEAA@$$QEAPEAU?$_Tree_node@U?$pair@$$CBHVShader@finnsie@@@std@@PEAX@1@$$QEA_N@Z 00000001400340c0 f i resource_manager.obj
 0001:000330c0       ??$?0PEAU?$_Tree_node@U?$pair@$$CBHUTexture2D@finnsie@@@std@@PEAX@std@@_N$0A@@?$pair@PEAU?$_Tree_node@U?$pair@$$CBHUTexture2D@finnsie@@@std@@PEAX@std@@_N@std@@QEAA@$$QEAPEAU?$_Tree_node@U?$pair@$$CBHUTexture2D@finnsie@@@std@@PEAX@1@$$QEA_N@Z 00000001400340c0 f i resource_manager.obj
 0001:000330c0       ??$?0AEBQEAU?$_Tree_node@U?$pair@$$CBHUTexture2D@finnsie@@@std@@PEAX@std@@_N$0A@@?$pair@PEAU?$_Tree_node@U?$pair@$$CBHUTexture2D@finnsie@@@std@@PEAX@std@@_N@std@@QEAA@AEBQEAU?$_Tree_node@U?$pair@$$CBHUTexture2D@finnsie@@@std@@PEAX@1@$$QEA_N@Z 00000001400340c0 f i resource_manager.obj
 0001:000330c0       ??$?0AEBQEAU?$_Tree_node@U?$pair@$$CBHVShader@finnsie@@@std@@PEAX@std@@_N$0A@@?$pair@PEAU?$_Tree_node@U?$pair@$$CBHVShader@finnsie@@@std@@PEAX@std@@_N@std@@QEAA@AEBQEAU?$_Tree_node@U?$pair@$$CBHVShader@finnsie@@@std@@PEAX@1@$$QEA_N@Z 00000001400340c0 f i resource_manager.obj
 0001:00033110       ??$?0AEBUpiecewise_construct_t@std@@V?$tuple@AEBH@1@V?$tuple@$$V@1@@?$_Tree_temp_node@V?$allocator@U?$_Tree_node@U?$pair@$$CBHUTexture2D@finnsie@@@std@@PEAX@std@@@std@@@std@@QEAA@AEAV?$allocator@U?$_Tree_node@U?$pair@$$CBHUTexture2D@finnsie@@@std@@PEAX@std@@@1@PEAU?$_Tree_node@U?$pair@$$CBHUTexture2D@finnsie@@@std@@PEAX@1@AEBUpiecewise_construct_t@1@$$QEAV?$tuple@AEBH@1@$$QEAV?$tuple@$$V@1@@Z 0000000140034110 f i resource_manager.obj
 0001:00033230       ??$?0AEBUpiecewise_construct_t@std@@V?$tuple@AEBH@1@V?$tuple@$$V@1@@?$_Tree_temp_node@V?$allocator@U?$_Tree_node@U?$pair@$$CBHVShader@finnsie@@@std@@PEAX@std@@@std@@@std@@QEAA@AEAV?$allocator@U?$_Tree_node@U?$pair@$$CBHVShader@finnsie@@@std@@PEAX@std@@@1@PEAU?$_Tree_node@U?$pair@$$CBHVShader@finnsie@@@std@@PEAX@1@AEBUpiecewise_construct_t@1@$$QEAV?$tuple@AEBH@1@$$QEAV?$tuple@$$V@1@@Z 0000000140034230 f i resource_manager.obj
 0001:00033350       ??$?0U_Exact_args_t@std@@$0A@@?$tuple@$$V@std@@QEAA@U_Exact_args_t@1@@Z 0000000140034350 f i resource_manager.obj
 0001:00033360       ??$?0U_Exact_args_t@std@@AEBH$$V$0A@@?$tuple@AEBH@std@@QEAA@U_Exact_args_t@1@AEBH@Z 0000000140034360 f i resource_manager.obj
 0001:000333c0       ??$?0V?$tuple@AEBH@std@@V?$tuple@$$V@1@$0A@$$Z$S@?$pair@$$CBHUTexture2D@finnsie@@@std@@QEAA@AEAV?$tuple@AEBH@1@AEAV?$tuple@$$V@1@U?$integer_sequence@_K$0A@@1@U?$integer_sequence@_K$S@1@@Z 00000001400343c0 f i resource_manager.obj
 0001:00033420       ??$?0V?$tuple@AEBH@std@@V?$tuple@$$V@1@$0A@$$Z$S@?$pair@$$CBHVShader@finnsie@@@std@@QEAA@AEAV?$tuple@AEBH@1@AEAV?$tuple@$$V@1@U?$integer_sequence@_K$0A@@1@U?$integer_sequence@_K$S@1@@Z 0000000140034420 f i resource_manager.obj
 0001:00033490       ??$_Assign_range@PEAUuniform@finnsie@@@?$vector@Uuniform@finnsie@@V?$allocator@Uuniform@finnsie@@@std@@@std@@AEAAXPEAUuniform@finnsie@@0Uforward_iterator_tag@1@@Z 0000000140034490 f i resource_manager.obj
 0001:00033640       ??$_Copy_unchecked@PEAUuniform@finnsie@@PEAU12@@std@@YAPEAUuniform@finnsie@@PEAU12@00@Z 0000000140034640 f i resource_manager.obj
 0001:000336a0       ??$_Emplace_back@AEAUuniform@finnsie@@@?$_Uninitialized_backout_al@V?$allocator@Uuniform@finnsie@@@std@@@std@@QEAAXAEAUuniform@finnsie@@@Z 00000001400346a0 f i resource_manager.obj
 0001:00033710       ??$_Find_lower_bound@H@?$_Tree@V?$_Tmap_traits@HUTexture2D@finnsie@@U?$less@H@std@@V?$allocator@U?$pair@$$CBHUTexture2D@finnsie@@@std@@@4@$0A@@std@@@std@@IEBA?AU?$_Tree_find_result@PEAU?$_Tree_node@U?$pair@$$CBHUTexture2D@finnsie@@@std@@PEAX@std@@@1@AEBH@Z 0000000140034710 f i resource_manager.obj
 0001:00033830       ??$_Find_lower_bound@H@?$_Tree@V?$_Tmap_traits@HVShader@finnsie@@U?$less@H@std@@V?$allocator@U?$pair@$$CBHVShader@finnsie@@@std@@@4@$0A@@std@@@std@@IEBA?AU?$_Tree_find_result@PEAU?$_Tree_node@U?$pair@$$CBHVShader@finnsie@@@std@@PEAX@std@@@1@AEBH@Z 0000000140034830 f i resource_manager.obj
 0001:00033950       ??$_Lower_bound_duplicate@H@?$_Tree@V?$_Tmap_traits@HUTexture2D@finnsie@@U?$less@H@std@@V?$allocator@U?$pair@$$CBHUTexture2D@finnsie@@@std@@@4@$0A@@std@@@std@@IEBA_NQEAU?$_Tree_node@U?$pair@$$CBHUTexture2D@finnsie@@@std@@PEAX@1@AEBH@Z 0000000140034950 f i resource_manager.obj
 0001:000339d0       ??$_Lower_bound_duplicate@H@?$_Tree@V?$_Tmap_traits@HVShader@finnsie@@U?$less@H@std@@V?$allocator@U?$pair@$$CBHVShader@finnsie@@@std@@@4@$0A@@std@@@std@@IEBA_NQEAU?$_Tree_node@U?$pair@$$CBHVShader@finnsie@@@std@@PEAX@1@AEBH@Z 00000001400349d0 f i resource_manager.obj
 0001:00033a50       ??$_Try_emplace@AEBH$$V@?$map@HUTexture2D@finnsie@@U?$less@H@std@@V?$allocator@U?$pair@$$CBHUTexture2D@finnsie@@@std@@@4@@std@@AEAA?AU?$pair@PEAU?$_Tree_node@U?$pair@$$CBHUTexture2D@finnsie@@@std@@PEAX@std@@_N@1@AEBH@Z 0000000140034a50 f i resource_manager.obj
 0001:00033c00       ??$_Try_emplace@AEBH$$V@?$map@HVShader@finnsie@@U?$less@H@std@@V?$allocator@U?$pair@$$CBHVShader@finnsie@@@std@@@4@@std@@AEAA?AU?$pair@PEAU?$_Tree_node@U?$pair@$$CBHVShader@finnsie@@@std@@PEAX@std@@_N@1@AEBH@Z 0000000140034c00 f i resource_manager.obj
 0001:00033db0       ??$_Ucopy@PEAUuniform@finnsie@@@?$vector@Uuniform@finnsie@@V?$allocator@Uuniform@finnsie@@@std@@@std@@AEAAPEAUuniform@finnsie@@PEAU23@00@Z 0000000140034db0 f i resource_manager.obj
 0001:00033df0       ??$_Uninitialized_copy@PEAUuniform@finnsie@@V?$allocator@Uuniform@finnsie@@@std@@@std@@YAPEAUuniform@finnsie@@QEAU12@0PEAU12@AEAV?$allocator@Uuniform@finnsie@@@0@@Z 0000000140034df0 f i resource_manager.obj
 0001:00033e90       ??$advance@PEAUuniform@finnsie@@_J@std@@YAXAEAPEAUuniform@finnsie@@_J@Z 0000000140034e90 f i resource_manager.obj
 0001:00033ec0       ??$assign@PEAUuniform@finnsie@@X@?$vector@Uuniform@finnsie@@V?$allocator@Uuniform@finnsie@@@std@@@std@@QEAAXPEAUuniform@finnsie@@0@Z 0000000140034ec0 f i resource_manager.obj
 0001:00033f50       ??$construct@U?$pair@$$CBHUTexture2D@finnsie@@@std@@AEBUpiecewise_construct_t@2@V?$tuple@AEBH@2@V?$tuple@$$V@2@@?$_Default_allocator_traits@V?$allocator@U?$_Tree_node@U?$pair@$$CBHUTexture2D@finnsie@@@std@@PEAX@std@@@std@@@std@@SAXAEAV?$allocator@U?$_Tree_node@U?$pair@$$CBHUTexture2D@finnsie@@@std@@PEAX@std@@@1@QEAU?$pair@$$CBHUTexture2D@finnsie@@@1@AEBUpiecewise_construct_t@1@$$QEAV?$tuple@AEBH@1@$$QEAV?$tuple@$$V@1@@Z 0000000140034f50 f i resource_manager.obj
 0001:00034020       ??$construct@U?$pair@$$CBHVShader@finnsie@@@std@@AEBUpiecewise_construct_t@2@V?$tuple@AEBH@2@V?$tuple@$$V@2@@?$_Default_allocator_traits@V?$allocator@U?$_Tree_node@U?$pair@$$CBHVShader@finnsie@@@std@@PEAX@std@@@std@@@std@@SAXAEAV?$allocator@U?$_Tree_node@U?$pair@$$CBHVShader@finnsie@@@std@@PEAX@std@@@1@QEAU?$pair@$$CBHVShader@finnsie@@@1@AEBUpiecewise_construct_t@1@$$QEAV?$tuple@AEBH@1@$$QEAV?$tuple@$$V@1@@Z 0000000140035020 f i resource_manager.obj
 0001:000340f0       ??$construct@Uuniform@finnsie@@AEAU12@@?$_Default_allocator_traits@V?$allocator@Uuniform@finnsie@@@std@@@std@@SAXAEAV?$allocator@Uuniform@finnsie@@@1@QEAUuniform@finnsie@@AEAU34@@Z 00000001400350f0 f i resource_manager.obj
 0001:00034140       ??$destroy@U?$pair@$$CBHVShader@finnsie@@@std@@@?$_Default_allocator_traits@V?$allocator@U?$_Tree_node@U?$pair@$$CBHVShader@finnsie@@@std@@PEAX@std@@@std@@@std@@SAXAEAV?$allocator@U?$_Tree_node@U?$pair@$$CBHVShader@finnsie@@@std@@PEAX@std@@@1@QEAU?$pair@$$CBHVShader@finnsie@@@1@@Z 0000000140035140 f i resource_manager.obj
 0001:00034160       ??$distance@PEAUuniform@finnsie@@@std@@YA_JPEAUuniform@finnsie@@0@Z 0000000140035160 f i resource_manager.obj
 0001:00034190       ??$forward_as_tuple@$$V@std@@YA?AV?$tuple@$$V@0@XZ 0000000140035190 f i resource_manager.obj
 0001:000341b0       ??$forward_as_tuple@AEBH@std@@YA?AV?$tuple@AEBH@0@AEBH@Z 00000001400351b0 f i resource_manager.obj
 0001:000341e0       ?get@?$_Ptr_base@U_Recursive_dir_enum_impl@filesystem@std@@@std@@IEBAPEAU_Recursive_dir_enum_impl@filesystem@2@XZ 00000001400351e0 f i gui.obj
 0001:000341e0       ?data@?$basic_string_view@DU?$char_traits@D@std@@@std@@QEBAPEBDXZ 00000001400351e0 f i gui.obj
 0001:000341e0       ??$get@$0A@AEBH@std@@YAAEBH$$QEAV?$tuple@AEBH@0@@Z 00000001400351e0 f i resource_manager.obj
 0001:000341e0       ?base@?$reverse_iterator@PEB_W@std@@QEBAPEB_WXZ 00000001400351e0 f i gui.obj
 0001:000341e0       ?data@?$basic_string_view@_WU?$char_traits@_W@std@@@std@@QEBAPEB_WXZ 00000001400351e0 f i gui.obj
 0001:000341f0       ??$next@PEAUuniform@finnsie@@@std@@YAPEAUuniform@finnsie@@PEAU12@_J@Z 00000001400351f0 f i resource_manager.obj
 0001:00034220       ??0?$_Alloc_construct_ptr@V?$allocator@U?$_Tree_node@U?$pair@$$CBHUTexture2D@finnsie@@@std@@PEAX@std@@@std@@@std@@QEAA@AEAV?$allocator@U?$_Tree_node@U?$pair@$$CBHUTexture2D@finnsie@@@std@@PEAX@std@@@1@@Z 0000000140035220 f i resource_manager.obj
 0001:00034220       ??0?$_Alloc_construct_ptr@V?$allocator@U?$_Tree_node@U?$pair@$$CBHVShader@finnsie@@@std@@PEAX@std@@@std@@@std@@QEAA@AEAV?$allocator@U?$_Tree_node@U?$pair@$$CBHVShader@finnsie@@@std@@PEAX@std@@@1@@Z 0000000140035220 f i resource_manager.obj
 0001:00034250       ??0?$_Tree_temp_node_alloc@V?$allocator@U?$_Tree_node@U?$pair@$$CBHUTexture2D@finnsie@@@std@@PEAX@std@@@std@@@std@@QEAA@AEAV?$allocator@U?$_Tree_node@U?$pair@$$CBHUTexture2D@finnsie@@@std@@PEAX@std@@@1@@Z 0000000140035250 f i resource_manager.obj
 0001:00034250       ??0?$_Tree_temp_node_alloc@V?$allocator@U?$_Tree_node@U?$pair@$$CBHVShader@finnsie@@@std@@PEAX@std@@@std@@@std@@QEAA@AEAV?$allocator@U?$_Tree_node@U?$pair@$$CBHVShader@finnsie@@@std@@PEAX@std@@@1@@Z 0000000140035250 f i resource_manager.obj
 0001:00034290       ??0?$pair@$$CBHVShader@finnsie@@@std@@QEAA@AEBU01@@Z 0000000140035290 f i resource_manager.obj
 0001:000342e0       ??0?$tuple@AEBH@std@@QEAA@$$QEAV01@@Z 00000001400352e0 f i resource_manager.obj
 0001:00034320       ??0?$vector@Uuniform@finnsie@@V?$allocator@Uuniform@finnsie@@@std@@@std@@QEAA@AEBV01@@Z 0000000140035320 f i resource_manager.obj
 0001:00034460       ??0Shader@finnsie@@QEAA@AEBV01@@Z 0000000140035460 f i resource_manager.obj
 0001:000344b0       ??0Shader@finnsie@@QEAA@XZ 00000001400354b0 f i resource_manager.obj
 0001:000344e0       ??0uniform@finnsie@@QEAA@AEBU01@@Z 00000001400354e0 f i resource_manager.obj
 0001:00034530       ??1?$_Alloc_construct_ptr@V?$allocator@U?$_Tree_node@U?$pair@$$CBHUTexture2D@finnsie@@@std@@PEAX@std@@@std@@@std@@QEAA@XZ 0000000140035530 f i resource_manager.obj
 0001:00034530       ??1?$_Alloc_construct_ptr@V?$allocator@U?$_Tree_node@U?$pair@$$CBHVShader@finnsie@@@std@@PEAX@std@@@std@@@std@@QEAA@XZ 0000000140035530 f i resource_manager.obj
 0001:00034580       ??1?$_Tidy_guard@V?$vector@Uuniform@finnsie@@V?$allocator@Uuniform@finnsie@@@std@@@std@@@std@@QEAA@XZ 0000000140035580 f i resource_manager.obj
 0001:000345b0       ??1?$_Tree_temp_node@V?$allocator@U?$_Tree_node@U?$pair@$$CBHUTexture2D@finnsie@@@std@@PEAX@std@@@std@@@std@@QEAA@XZ 00000001400355b0 f i resource_manager.obj
 0001:00034650       ??1?$_Tree_temp_node@V?$allocator@U?$_Tree_node@U?$pair@$$CBHVShader@finnsie@@@std@@PEAX@std@@@std@@@std@@QEAA@XZ 0000000140035650 f i resource_manager.obj
 0001:000346f0       ??1?$_Tree_temp_node_alloc@V?$allocator@U?$_Tree_node@U?$pair@$$CBHUTexture2D@finnsie@@@std@@PEAX@std@@@std@@@std@@QEAA@XZ 00000001400356f0 f i resource_manager.obj
 0001:000346f0       ??1?$_Tree_temp_node_alloc@V?$allocator@U?$_Tree_node@U?$pair@$$CBHVShader@finnsie@@@std@@PEAX@std@@@std@@@std@@QEAA@XZ 00000001400356f0 f i resource_manager.obj
 0001:00034710       ??1?$pair@$$CBHVShader@finnsie@@@std@@QEAA@XZ 0000000140035710 f i resource_manager.obj
 0001:00034730       ??1?$vector@Uuniform@finnsie@@V?$allocator@Uuniform@finnsie@@@std@@@std@@QEAA@XZ 0000000140035730 f i resource_manager.obj
 0001:00034750       ??1Shader@finnsie@@QEAA@XZ 0000000140035750 f i resource_manager.obj
 0001:00034770       ??4?$vector@Uuniform@finnsie@@V?$allocator@Uuniform@finnsie@@@std@@@std@@QEAAAEAV01@AEBV01@@Z 0000000140035770 f i resource_manager.obj
 0001:000347d0       ??4Shader@finnsie@@QEAAAEAV01@AEBV01@@Z 00000001400357d0 f i resource_manager.obj
 0001:00034810       ??4uniform@finnsie@@QEAAAEAU01@AEBU01@@Z 0000000140035810 f i resource_manager.obj
 0001:00034850       ??9?$_Tree_unchecked_const_iterator@V?$_Tree_val@U?$_Tree_simple_types@U?$pair@$$CBHVShader@finnsie@@@std@@@std@@@std@@U_Iterator_base0@2@@std@@QEBA_NU_Default_sentinel@1@@Z 0000000140035850 f i resource_manager.obj
 0001:00034850       ??9?$_Tree_unchecked_const_iterator@V?$_Tree_val@U?$_Tree_simple_types@U?$pair@$$CBHUTexture2D@finnsie@@@std@@@std@@@std@@U_Iterator_base0@2@@std@@QEBA_NU_Default_sentinel@1@@Z 0000000140035850 f i resource_manager.obj
 0001:00034890       ??A?$map@HUTexture2D@finnsie@@U?$less@H@std@@V?$allocator@U?$pair@$$CBHUTexture2D@finnsie@@@std@@@4@@std@@QEAAAEAUTexture2D@finnsie@@AEBH@Z 0000000140035890 f i resource_manager.obj
 0001:000348c0       ??A?$map@HVShader@finnsie@@U?$less@H@std@@V?$allocator@U?$pair@$$CBHVShader@finnsie@@@std@@@4@@std@@QEAAAEAVShader@finnsie@@AEBH@Z 00000001400358c0 f i resource_manager.obj
 0001:000348f0       ??D?$_Tree_unchecked_const_iterator@V?$_Tree_val@U?$_Tree_simple_types@U?$pair@$$CBHUTexture2D@finnsie@@@std@@@std@@@std@@U_Iterator_base0@2@@std@@QEBAAEBU?$pair@$$CBHUTexture2D@finnsie@@@1@XZ 00000001400358f0 f i resource_manager.obj
 0001:00034910       ??D?$_Tree_unchecked_const_iterator@V?$_Tree_val@U?$_Tree_simple_types@U?$pair@$$CBHVShader@finnsie@@@std@@@std@@@std@@U_Iterator_base0@2@@std@@QEBAAEBU?$pair@$$CBHVShader@finnsie@@@1@XZ 0000000140035910 f i resource_manager.obj
 0001:00034930       ??D?$_Tree_unchecked_iterator@V?$_Tree_val@U?$_Tree_simple_types@U?$pair@$$CBHUTexture2D@finnsie@@@std@@@std@@@std@@@std@@QEBAAEAU?$pair@$$CBHUTexture2D@finnsie@@@1@XZ 0000000140035930 f i resource_manager.obj
 0001:00034950       ??D?$_Tree_unchecked_iterator@V?$_Tree_val@U?$_Tree_simple_types@U?$pair@$$CBHVShader@finnsie@@@std@@@std@@@std@@@std@@QEBAAEAU?$pair@$$CBHVShader@finnsie@@@1@XZ 0000000140035950 f i resource_manager.obj
 0001:00034970       ??E?$_Tree_unchecked_const_iterator@V?$_Tree_val@U?$_Tree_simple_types@U?$pair@$$CBHVShader@finnsie@@@std@@@std@@@std@@U_Iterator_base0@2@@std@@QEAAAEAV01@XZ 0000000140035970 f i resource_manager.obj
 0001:00034970       ??E?$_Tree_unchecked_const_iterator@V?$_Tree_val@U?$_Tree_simple_types@U?$pair@$$CBHUTexture2D@finnsie@@@std@@@std@@@std@@U_Iterator_base0@2@@std@@QEAAAEAV01@XZ 0000000140035970 f i resource_manager.obj
 0001:00034a00       ??E?$_Tree_unchecked_iterator@V?$_Tree_val@U?$_Tree_simple_types@U?$pair@$$CBHVShader@finnsie@@@std@@@std@@@std@@@std@@QEAAAEAV01@XZ 0000000140035a00 f i resource_manager.obj
 0001:00034a00       ??E?$_Tree_unchecked_iterator@V?$_Tree_val@U?$_Tree_simple_types@U?$pair@$$CBHUTexture2D@finnsie@@@std@@@std@@@std@@@std@@QEAAAEAV01@XZ 0000000140035a00 f i resource_manager.obj
 0001:00034a20       ??R?$less@H@std@@QEBA_NAEBH0@Z 0000000140035a20 f i resource_manager.obj
 0001:00034a60       ??_G?$pair@$$CBHVShader@finnsie@@@std@@QEAAPEAXI@Z 0000000140035a60 f i resource_manager.obj
 0001:00034aa0       ?_Allocate@?$_Alloc_construct_ptr@V?$allocator@U?$_Tree_node@U?$pair@$$CBHUTexture2D@finnsie@@@std@@PEAX@std@@@std@@@std@@QEAAXXZ 0000000140035aa0 f i resource_manager.obj
 0001:00034aa0       ?_Allocate@?$_Alloc_construct_ptr@V?$allocator@U?$_Tree_node@U?$pair@$$CBHVShader@finnsie@@@std@@PEAX@std@@@std@@@std@@QEAAXXZ 0000000140035aa0 f i resource_manager.obj
 0001:00034ae0       ?_Buy_raw@?$vector@Uuniform@finnsie@@V?$allocator@Uuniform@finnsie@@@std@@@std@@AEAAX_K@Z 0000000140035ae0 f i resource_manager.obj
 0001:00034b80       ?_Check_grow_by_1@?$_Tree@V?$_Tmap_traits@HVShader@finnsie@@U?$less@H@std@@V?$allocator@U?$pair@$$CBHVShader@finnsie@@@std@@@4@$0A@@std@@@std@@IEAAXXZ 0000000140035b80 f i resource_manager.obj
 0001:00034b80       ?_Check_grow_by_1@?$_Tree@V?$_Tmap_traits@HUTexture2D@finnsie@@U?$less@H@std@@V?$allocator@U?$pair@$$CBHUTexture2D@finnsie@@@std@@@4@$0A@@std@@@std@@IEAAXXZ 0000000140035b80 f i resource_manager.obj
 0001:00034bc0       ?_Clear_and_reserve_geometric@?$vector@Uuniform@finnsie@@V?$allocator@Uuniform@finnsie@@@std@@@std@@AEAAX_K@Z 0000000140035bc0 f i resource_manager.obj
 0001:00034ce0       ?_Copy_assign@?$vector@Uuniform@finnsie@@V?$allocator@Uuniform@finnsie@@@std@@@std@@AEAAXAEBV12@U?$integral_constant@_N$0A@@2@@Z 0000000140035ce0 f i resource_manager.obj
 0001:00034d50       ?_Insert_node@?$_Tree_val@U?$_Tree_simple_types@U?$pair@$$CBHVShader@finnsie@@@std@@@std@@@std@@QEAAPEAU?$_Tree_node@U?$pair@$$CBHVShader@finnsie@@@std@@PEAX@2@U?$_Tree_id@PEAU?$_Tree_node@U?$pair@$$CBHVShader@finnsie@@@std@@PEAX@std@@@2@QEAU32@@Z 0000000140035d50 f i resource_manager.obj
 0001:00034d50       ?_Insert_node@?$_Tree_val@U?$_Tree_simple_types@U?$pair@$$CBHUTexture2D@finnsie@@@std@@@std@@@std@@QEAAPEAU?$_Tree_node@U?$pair@$$CBHUTexture2D@finnsie@@@std@@PEAX@2@U?$_Tree_id@PEAU?$_Tree_node@U?$pair@$$CBHUTexture2D@finnsie@@@std@@PEAX@std@@@2@QEAU32@@Z 0000000140035d50 f i resource_manager.obj
 0001:00035040       ?_Lrotate@?$_Tree_val@U?$_Tree_simple_types@U?$pair@$$CBHVShader@finnsie@@@std@@@std@@@std@@QEAAXPEAU?$_Tree_node@U?$pair@$$CBHVShader@finnsie@@@std@@PEAX@2@@Z 0000000140036040 f i resource_manager.obj
 0001:00035040       ?_Lrotate@?$_Tree_val@U?$_Tree_simple_types@U?$pair@$$CBHUTexture2D@finnsie@@@std@@@std@@@std@@QEAAXPEAU?$_Tree_node@U?$pair@$$CBHUTexture2D@finnsie@@@std@@PEAX@2@@Z 0000000140036040 f i resource_manager.obj
 0001:00035120       ?_Min@?$_Tree_val@U?$_Tree_simple_types@U?$pair@$$CBHVShader@finnsie@@@std@@@std@@@std@@SAPEAU?$_Tree_node@U?$pair@$$CBHVShader@finnsie@@@std@@PEAX@2@PEAU32@@Z 0000000140036120 f i resource_manager.obj
 0001:00035120       ?_Min@?$_Tree_val@U?$_Tree_simple_types@U?$pair@$$CBHUTexture2D@finnsie@@@std@@@std@@@std@@SAPEAU?$_Tree_node@U?$pair@$$CBHUTexture2D@finnsie@@@std@@PEAX@2@PEAU32@@Z 0000000140036120 f i resource_manager.obj
 0001:00035150       ?_Release@?$_Alloc_construct_ptr@V?$allocator@U?$_Tree_node@U?$pair@$$CBHVShader@finnsie@@@std@@PEAX@std@@@std@@@std@@QEAAPEAU?$_Tree_node@U?$pair@$$CBHVShader@finnsie@@@std@@PEAX@2@XZ 0000000140036150 f i resource_manager.obj
 0001:00035150       ?_Release@?$_Alloc_construct_ptr@V?$allocator@U?$_Tree_node@U?$pair@$$CBHUTexture2D@finnsie@@@std@@PEAX@std@@@std@@@std@@QEAAPEAU?$_Tree_node@U?$pair@$$CBHUTexture2D@finnsie@@@std@@PEAX@2@XZ 0000000140036150 f i resource_manager.obj
 0001:00035180       ?_Rrotate@?$_Tree_val@U?$_Tree_simple_types@U?$pair@$$CBHVShader@finnsie@@@std@@@std@@@std@@QEAAXPEAU?$_Tree_node@U?$pair@$$CBHVShader@finnsie@@@std@@PEAX@2@@Z 0000000140036180 f i resource_manager.obj
 0001:00035180       ?_Rrotate@?$_Tree_val@U?$_Tree_simple_types@U?$pair@$$CBHUTexture2D@finnsie@@@std@@@std@@@std@@QEAAXPEAU?$_Tree_node@U?$pair@$$CBHUTexture2D@finnsie@@@std@@PEAX@2@@Z 0000000140036180 f i resource_manager.obj
 0001:00035260       ?_Throw_tree_length_error@std@@YAXXZ 0000000140036260 f i resource_manager.obj
 0001:00035280       ?_Tidy@?$vector@Uuniform@finnsie@@V?$allocator@Uuniform@finnsie@@@std@@@std@@AEAAXXZ 0000000140036280 f i resource_manager.obj
 0001:00035370       ?_Unchecked_begin@?$_Tree@V?$_Tmap_traits@HVShader@finnsie@@U?$less@H@std@@V?$allocator@U?$pair@$$CBHVShader@finnsie@@@std@@@4@$0A@@std@@@std@@QEAA?AV?$_Tree_unchecked_iterator@V?$_Tree_val@U?$_Tree_simple_types@U?$pair@$$CBHVShader@finnsie@@@std@@@std@@@std@@@2@XZ 0000000140036370 f i resource_manager.obj
 0001:00035370       ?_Unchecked_begin@?$_Tree@V?$_Tmap_traits@HUTexture2D@finnsie@@U?$less@H@std@@V?$allocator@U?$pair@$$CBHUTexture2D@finnsie@@@std@@@4@$0A@@std@@@std@@QEAA?AV?$_Tree_unchecked_iterator@V?$_Tree_val@U?$_Tree_simple_types@U?$pair@$$CBHUTexture2D@finnsie@@@std@@@std@@@std@@@2@XZ 0000000140036370 f i resource_manager.obj
 0001:000353b0       ?_Unchecked_end@?$_Tree@V?$_Tmap_traits@HUTexture2D@finnsie@@U?$less@H@std@@V?$allocator@U?$pair@$$CBHUTexture2D@finnsie@@@std@@@4@$0A@@std@@@std@@QEBA?AU_Default_sentinel@2@XZ 00000001400363b0 f i resource_manager.obj
 0001:000353b0       ?_Unchecked_end@?$_Tree@V?$_Tmap_traits@HVShader@finnsie@@U?$less@H@std@@V?$allocator@U?$pair@$$CBHVShader@finnsie@@@std@@@4@$0A@@std@@@std@@QEBA?AU_Default_sentinel@2@XZ 00000001400363b0 f i resource_manager.obj
 0001:000353e0       ??0Renderer@finnsie@@QEAA@XZ 00000001400363e0 f   renderer.obj
 0001:00035590       ??1Renderer@finnsie@@QEAA@XZ 0000000140036590 f   renderer.obj
 0001:00035660       ?BeginRender@Renderer@finnsie@@QEAAXAEAVCamera@2@@Z 0000000140036660 f   renderer.obj
 0001:00035750       ?DrawModel@Renderer@finnsie@@QEAAXAEAVGameObject@2@@Z 0000000140036750 f   renderer.obj
 0001:00036290       ?DrawWater@Renderer@finnsie@@QEAAXPEAVGameObject@2@AEAUdraw_info@2@@Z 0000000140037290 f   renderer.obj
 0001:00037300       ?DrawDirWater@Renderer@finnsie@@QEAAXPEAVGameObject@2@AEAUdraw_info@2@@Z 0000000140038300 f   renderer.obj
 0001:000384d0       ?EndRender@Renderer@finnsie@@QEAAXXZ 00000001400394d0 f   renderer.obj
 0001:000384e0       ?Shutdown@Renderer@finnsie@@QEAAXXZ 00000001400394e0 f   renderer.obj
 0001:00038530       ?initUniforms@Renderer@finnsie@@AEAAXXZ 0000000140039530 f   renderer.obj
 0001:00038700       ?initShaders@Renderer@finnsie@@AEAAXXZ 0000000140039700 f   renderer.obj
 0001:000388a0       ?startShader@Renderer@finnsie@@AEAAXIHHH@Z 00000001400398a0 f   renderer.obj
 0001:00038960       ??$?0HHHM@?$vec@$03M$0A@@glm@@QEAA@HHHM@Z 0000000140039960 f i renderer.obj
 0001:000389c0       ??$?0HHMH@?$vec@$03M$0A@@glm@@QEAA@HHMH@Z 00000001400399c0 f i renderer.obj
 0001:00038a20       ??$?0HMHH@?$vec@$03M$0A@@glm@@QEAA@HMHH@Z 0000000140039a20 f i renderer.obj
 0001:00038a80       ??$?0MHHH@?$vec@$03M$0A@@glm@@QEAA@MHHH@Z 0000000140039a80 f i renderer.obj
 0001:00038ae0       ??$?0PEADX@?$basic_string@DU?$char_traits@D@std@@V?$allocator@D@2@@std@@QEAA@PEAD0AEBV?$allocator@D@1@@Z 0000000140039ae0 f i renderer.obj
 0001:00038bb0       ??$?DM$0A@@glm@@YA?AU?$mat@$03$03M$0A@@0@AEBU10@0@Z 0000000140039bb0 f i renderer.obj
 0001:00039290       ??$?DM$0A@@glm@@YA?AU?$vec@$02M$0A@@0@AEBU10@0@Z 000000014003a290 f i renderer.obj
 0001:00039310       ??$?DM$0A@@glm@@YA?AU?$vec@$02M$0A@@0@AEBU10@M@Z 000000014003a310 f i renderer.obj
 0001:00039380       ??$?DM$0A@@glm@@YA?AU?$vec@$02M$0A@@0@MAEBU10@@Z 000000014003a380 f i renderer.obj
 0001:000393f0       ??$?DM$0A@@glm@@YA?AU?$vec@$03M$0A@@0@AEBU10@AEBM@Z 000000014003a3f0 f i renderer.obj
 0001:00039450       ??$?HDU?$char_traits@D@std@@V?$allocator@D@1@@std@@YA?AV?$basic_string@DU?$char_traits@D@std@@V?$allocator@D@2@@0@AEBV10@0@Z 000000014003a450 f i renderer.obj
 0001:00039520       ??$?HM$0A@@glm@@YA?AU?$vec@$03M$0A@@0@AEBU10@0@Z 000000014003a520 f i renderer.obj
 0001:00039580       ??$?XM@?$vec@$03M$0A@@glm@@QEAAAEAU01@M@Z 000000014003a580 f i renderer.obj
 0001:000395d0       ??$?YM@?$vec@$03M$0A@@glm@@QEAAAEAU01@AEBU01@@Z 000000014003a5d0 f i renderer.obj
 0001:00039630       ??$_Erase_head@V?$allocator@U?$_Tree_node@U?$pair@$$CBHVShader@finnsie@@@std@@PEAX@std@@@std@@@?$_Tree_val@U?$_Tree_simple_types@U?$pair@$$CBHVShader@finnsie@@@std@@@std@@@std@@QEAAXAEAV?$allocator@U?$_Tree_node@U?$pair@$$CBHVShader@finnsie@@@std@@PEAX@std@@@1@@Z 000000014003a630 f i renderer.obj
 0001:00039680       ??$_Erase_tree@V?$allocator@U?$_Tree_node@U?$pair@$$CBHVShader@finnsie@@@std@@PEAX@std@@@std@@@?$_Tree_val@U?$_Tree_simple_types@U?$pair@$$CBHVShader@finnsie@@@std@@@std@@@std@@QEAAXAEAV?$allocator@U?$_Tree_node@U?$pair@$$CBHVShader@finnsie@@@std@@PEAX@std@@@1@PEAU?$_Tree_node@U?$pair@$$CBHVShader@finnsie@@@std@@PEAX@1@@Z 000000014003a680 f i renderer.obj
 0001:000396f0       ??$_Freenode@V?$allocator@U?$_Tree_node@U?$pair@$$CBHVShader@finnsie@@@std@@PEAX@std@@@std@@@?$_Tree_node@U?$pair@$$CBHVShader@finnsie@@@std@@PEAX@std@@SAXAEAV?$allocator@U?$_Tree_node@U?$pair@$$CBHVShader@finnsie@@@std@@PEAX@std@@@1@PEAU01@@Z 000000014003a6f0 f i renderer.obj
 0001:00039740       ??$_Integral_to_string@DI@std@@YA?AV?$basic_string@DU?$char_traits@D@std@@V?$allocator@D@2@@0@I@Z 000000014003a740 f i renderer.obj
 0001:00039810       ??$_UIntegral_to_buff@DI@std@@YAPEADPEADI@Z 000000014003a810 f i renderer.obj
 0001:00039870       ??$abs@M@glm@@YAMM@Z       000000014003a870 f i renderer.obj
 0001:00039890       ??$dot@$02M$0A@@glm@@YAMAEBU?$vec@$02M$0A@@0@0@Z 000000014003a890 f i renderer.obj
 0001:000398c0       ??$end@D$0BF@@std@@YAPEADAEAY0BF@D@Z 000000014003a8c0 f i renderer.obj
 0001:000398d0       ??$inversesqrt@M@glm@@YAMM@Z 000000014003a8d0 f i renderer.obj
 0001:00039900       ??$normalize@$02M$0A@@glm@@YA?AU?$vec@$02M$0A@@0@AEBU10@@Z 000000014003a900 f i renderer.obj
 0001:00039930       ??$perspective@M@glm@@YA?AU?$mat@$03$03M$0A@@0@MMMM@Z 000000014003a930 f i renderer.obj
 0001:00039980       ??$perspectiveRH_NO@M@glm@@YA?AU?$mat@$03$03M$0A@@0@MMMM@Z 000000014003a980 f i renderer.obj
 0001:00039bf0       ??$rotate@M$0A@@glm@@YA?AU?$mat@$03$03M$0A@@0@AEBU10@MAEBU?$vec@$02M$0A@@0@@Z 000000014003abf0 f i renderer.obj
 0001:0003a7a0       ??$scale@M$0A@@glm@@YA?AU?$mat@$03$03M$0A@@0@AEBU10@AEBU?$vec@$02M$0A@@0@@Z 000000014003b7a0 f i renderer.obj
 0001:0003a9c0       ??$translate@M$0A@@glm@@YA?AU?$mat@$03$03M$0A@@0@AEBU10@AEBU?$vec@$02M$0A@@0@@Z 000000014003b9c0 f i renderer.obj
 0001:0003abc0       ??$value_ptr@M$0A@@glm@@YAPEAMAEAU?$mat@$03$03M$0A@@0@@Z 000000014003bbc0 f i renderer.obj
 0001:0003abe0       ??0?$mat@$03$03M$0A@@glm@@QEAA@AEBM@Z 000000014003bbe0 f i renderer.obj
 0001:0003acb0       ??0?$vec@$03M$0A@@glm@@QEAA@M@Z 000000014003bcb0 f i renderer.obj
 0001:0003ad00       ??0?$vec@$03M$0A@@glm@@QEAA@MMMM@Z 000000014003bd00 f i renderer.obj
 0001:0003ad00       ??0ImVec4@@QEAA@MMMM@Z     000000014003bd00 f i imgui.obj
 0001:0003ad60       ??1?$_Tree@V?$_Tmap_traits@HVShader@finnsie@@U?$less@H@std@@V?$allocator@U?$pair@$$CBHVShader@finnsie@@@std@@@4@$0A@@std@@@std@@QEAA@XZ 000000014003bd60 f i renderer.obj
 0001:0003ada0       ??1?$map@HVShader@finnsie@@U?$less@H@std@@V?$allocator@U?$pair@$$CBHVShader@finnsie@@@std@@@4@@std@@QEAA@XZ 000000014003bda0 f i renderer.obj
 0001:0003adc0       ??1ResourceManager@finnsie@@QEAA@XZ 000000014003bdc0 f i renderer.obj
 0001:0003adf0       ??4?$vector@Uuniform@finnsie@@V?$allocator@Uuniform@finnsie@@@std@@@std@@QEAAAEAV01@$$QEAV01@@Z 000000014003bdf0 f i renderer.obj
 0001:0003ae50       ??4Shader@finnsie@@QEAAAEAV01@$$QEAV01@@Z 000000014003be50 f i renderer.obj
 0001:0003ae90       ??A?$mat@$03$03M$0A@@glm@@QEAAAEAU?$vec@$03M$0A@@1@H@Z 000000014003be90 f i renderer.obj
 0001:0003aee0       ??A?$mat@$03$03M$0A@@glm@@QEBAAEBU?$vec@$03M$0A@@1@H@Z 000000014003bee0 f i renderer.obj
 0001:0003af30       ??A?$vec@$02M$0A@@glm@@QEAAAEAMH@Z 000000014003bf30 f i renderer.obj
 0001:0003afb0       ??A?$vec@$02M$0A@@glm@@QEBAAEBMH@Z 000000014003bfb0 f i renderer.obj
 0001:0003b030       ??A?$vec@$03M$0A@@glm@@QEAAAEAMH@Z 000000014003c030 f i renderer.obj
 0001:0003b0c0       ??A?$vec@$03M$0A@@glm@@QEBAAEBMH@Z 000000014003c0c0 f i renderer.obj
 0001:0003b150       ??_GResourceManager@finnsie@@QEAAPEAXI@Z 000000014003c150 f i renderer.obj
 0001:0003b190       ?_Construct@?$basic_string@DU?$char_traits@D@std@@V?$allocator@D@2@@std@@QEAAXQEAD0Urandom_access_iterator_tag@2@@Z 000000014003c190 f i renderer.obj
 0001:0003b1f0       ?_Move_assign@?$vector@Uuniform@finnsie@@V?$allocator@Uuniform@finnsie@@@std@@@std@@AEAAXAEAV12@U_Equal_allocators@2@@Z 000000014003c1f0 f i renderer.obj
 0001:0003b260       ?call@?$compute_abs@M$00@detail@glm@@SAMM@Z 000000014003c260 f i renderer.obj
 0001:0003b2b0       ?call@?$compute_dot@U?$vec@$02M$0A@@glm@@M$0A@@detail@glm@@SAMAEBU?$vec@$02M$0A@@3@0@Z 000000014003c2b0 f i renderer.obj
 0001:0003b2f0       ?call@?$compute_normalize@$02M$0A@$0A@@detail@glm@@SA?AU?$vec@$02M$0A@@3@AEBU43@@Z 000000014003c2f0 f i renderer.obj
 0001:0003b330       ?call@?$compute_vec4_add@M$0A@$0A@@detail@glm@@SA?AU?$vec@$03M$0A@@3@AEBU43@0@Z 000000014003c330 f i renderer.obj
 0001:0003b3c0       ?call@?$compute_vec4_mul@M$0A@$0A@@detail@glm@@SA?AU?$vec@$03M$0A@@3@AEBU43@0@Z 000000014003c3c0 f i renderer.obj
 0001:0003b450       ?cos@@YAMM@Z               000000014003c450 f i renderer.obj
 0001:0003b470       ?epsilon@?$numeric_limits@M@std@@SAMXZ 000000014003c470 f i renderer.obj
 0001:0003b480       ?length@?$mat@$03$03M$0A@@glm@@SAHXZ 000000014003c480 f i renderer.obj
 0001:0003b480       ?length@?$vec@$03M$0A@@glm@@SAHXZ 000000014003c480 f i renderer.obj
 0001:0003b490       ?length@?$vec@$02M$0A@@glm@@SAHXZ 000000014003c490 f i renderer.obj
 0001:0003b4a0       ?sin@@YAMM@Z               000000014003c4a0 f i renderer.obj
 0001:0003b4c0       ?size@?$vector@VMesh@finnsie@@V?$allocator@VMesh@finnsie@@@std@@@std@@QEBA_KXZ 000000014003c4c0 f i renderer.obj
 0001:0003b500       ?sqrt@@YAMM@Z              000000014003c500 f i renderer.obj
 0001:0003b520       ?tan@@YAMM@Z               000000014003c520 f i renderer.obj
 0001:0003b540       ?to_string@std@@YA?AV?$basic_string@DU?$char_traits@D@std@@V?$allocator@D@2@@1@I@Z 000000014003c540 f i renderer.obj
 0001:0003b580       ?Init@Log@finnsie@@SAXXZ   000000014003c580 f   log.obj
 0001:0003b590       ?Msg@Log@finnsie@@SAXPEBDW4Severity@2@@Z 000000014003c590 f   log.obj
 0001:0003b650       ??$?6U?$char_traits@D@std@@@std@@YAAEAV?$basic_ostream@DU?$char_traits@D@std@@@0@AEAV10@D@Z 000000014003c650 f i log.obj
 0001:0003ba30       ?Init@Gui@finnsie@@QEAAXAEAUGLFWwindow@@AEAM@Z 000000014003ca30 f   gui.obj
 0001:0003bb90       ?Update@Gui@finnsie@@QEAAXAEAUdraw_info@2@@Z 000000014003cb90 f   gui.obj
 0001:0003bdb0       ?Active@Gui@finnsie@@QEAA_NXZ 000000014003cdb0 f   gui.obj
 0001:0003bdf0       ?Render@Gui@finnsie@@QEAAXXZ 000000014003cdf0 f   gui.obj
 0001:0003be40       ?Shutdown@Gui@finnsie@@QEAAXXZ 000000014003ce40 f   gui.obj
 0001:0003be70       ?waterWindow@Gui@finnsie@@AEAAXPEA_NAEAUdraw_info@2@@Z 000000014003ce70 f   gui.obj
 0001:0003bf00       ?modelWindow@Gui@finnsie@@AEAAXPEA_N@Z 000000014003cf00 f   gui.obj
 0001:0003c630       ?getFolders@Gui@finnsie@@AEAAXV?$basic_string@DU?$char_traits@D@std@@V?$allocator@D@2@@std@@@Z 000000014003d630 f   gui.obj
 0001:0003c9c0       ?distortedWaterControls@Gui@finnsie@@AEAAXAEAUdraw_info@2@@Z 000000014003d9c0 f   gui.obj
 0001:0003ccd0       ??$?0$$BY04D$0A@@path@filesystem@std@@QEAA@AEAY04$$CBDW4format@012@@Z 000000014003dcd0 f i gui.obj
 0001:0003cd20       ??$?0U_Creator@_Dir_enum_impl@filesystem@std@@AEBW4directory_options@23@@?$_Ref_count_obj2@U_Recursive_dir_enum_impl@filesystem@std@@@std@@QEAA@$$QEAU_Creator@_Dir_enum_impl@filesystem@1@AEBW4directory_options@41@@Z 000000014003dd20 f i gui.obj
 0001:0003cdb0       ??$?0V?$basic_string@DU?$char_traits@D@std@@V?$allocator@D@2@@std@@$0A@@path@filesystem@std@@QEAA@AEBV?$basic_string@DU?$char_traits@D@std@@V?$allocator@D@2@@2@W4format@012@@Z 000000014003ddb0 f i gui.obj
 0001:0003ce00       ??$?0V?$basic_string_view@_WU?$char_traits@_W@std@@@std@@$0A@@path@filesystem@std@@QEAA@AEBV?$basic_string_view@_WU?$char_traits@_W@std@@@2@W4format@012@@Z 000000014003de00 f i gui.obj
 0001:0003ce50       ??$?0V?$basic_string_view@_WU?$char_traits@_W@std@@@std@@X@?$basic_string@_WU?$char_traits@_W@std@@V?$allocator@_W@2@@std@@QEAA@AEBV?$basic_string_view@_WU?$char_traits@_W@std@@@1@AEBV?$allocator@_W@1@@Z 000000014003de50 f i gui.obj
 0001:0003cee0       ??$?8PEB_WPEB_W@std@@YA_NAEBV?$reverse_iterator@PEB_W@0@0@Z 000000014003dee0 f i gui.obj
 0001:0003cf30       ??$?9PEB_WPEB_W@std@@YA_NAEBV?$reverse_iterator@PEB_W@0@0@Z 000000014003df30 f i gui.obj
 0001:0003cf70       ??$?9U_Recursive_dir_enum_impl@filesystem@std@@U012@@std@@YA_NAEBV?$shared_ptr@U_Recursive_dir_enum_impl@filesystem@std@@@0@0@Z 000000014003df70 f i gui.obj
 0001:0003cfc0       ??$?CU_Recursive_dir_enum_impl@filesystem@std@@$0A@@?$shared_ptr@U_Recursive_dir_enum_impl@filesystem@std@@@std@@QEBAPEAU_Recursive_dir_enum_impl@filesystem@1@XZ 000000014003dfc0 f i gui.obj
 0001:0003cfc0       ??$?DU_Recursive_dir_enum_impl@filesystem@std@@$0A@@?$shared_ptr@U_Recursive_dir_enum_impl@filesystem@std@@@std@@QEBAAEAU_Recursive_dir_enum_impl@filesystem@1@XZ 000000014003dfc0 f i gui.obj
 0001:0003cfe0       ??$?GPEB_WPEB_W@std@@YA_JAEBV?$reverse_iterator@PEB_W@0@0@Z 000000014003dfe0 f i gui.obj
 0001:0003d020       ??$?HDU?$char_traits@D@std@@V?$allocator@D@1@@std@@YA?AV?$basic_string@DU?$char_traits@D@std@@V?$allocator@D@2@@0@QEBDAEBV10@@Z 000000014003e020 f i gui.obj
 0001:0003d0f0       ??$?YV?$basic_string_view@DU?$char_traits@D@std@@@std@@X@?$basic_string@DU?$char_traits@D@std@@V?$allocator@D@2@@std@@QEAAAEAV01@AEBV?$basic_string_view@DU?$char_traits@D@std@@@1@@Z 000000014003e0f0 f i gui.obj
 0001:0003d120       ??$?_0V?$basic_string_view@_WU?$char_traits@_W@std@@@std@@$0A@@path@filesystem@std@@QEAAAEAV012@AEBV?$basic_string_view@_WU?$char_traits@_W@std@@@2@@Z 000000014003e120 f i gui.obj
 0001:0003d1a0       ??$_Construct_in_place@U_Recursive_dir_enum_impl@filesystem@std@@U_Creator@_Dir_enum_impl@23@AEBW4directory_options@23@@std@@YAXAEAU_Recursive_dir_enum_impl@filesystem@0@$$QEAU_Creator@_Dir_enum_impl@20@AEBW4directory_options@20@@Z 000000014003e1a0 f i gui.obj
 0001:0003d210       ??$_Convert_Source_to_wide@$$BY04DU_Normal_conversion@filesystem@std@@@filesystem@std@@YA?AV?$basic_string@_WU?$char_traits@_W@std@@V?$allocator@_W@2@@1@AEAY04$$CBDU_Normal_conversion@01@@Z 000000014003e210 f i gui.obj
 0001:0003d280       ??$_Convert_Source_to_wide@V?$basic_string@DU?$char_traits@D@std@@V?$allocator@D@2@@std@@U_Normal_conversion@filesystem@2@@filesystem@std@@YA?AV?$basic_string@_WU?$char_traits@_W@std@@V?$allocator@_W@2@@1@AEBV?$basic_string@DU?$char_traits@D@std@@V?$allocator@D@2@@1@U_Normal_conversion@01@@Z 000000014003e280 f i gui.obj
 0001:0003d2f0       ??$_Convert_Source_to_wide@V?$basic_string_view@_WU?$char_traits@_W@std@@@std@@U_Normal_conversion@filesystem@2@@filesystem@std@@YA?AV?$basic_string@_WU?$char_traits@_W@std@@V?$allocator@_W@2@@1@AEBV?$basic_string_view@_WU?$char_traits@_W@std@@@1@U_Normal_conversion@01@@Z 000000014003e2f0 f i gui.obj
 0001:0003d360       ??$_Convert_stringoid_to_wide@U_Normal_conversion@filesystem@std@@@filesystem@std@@YA?AV?$basic_string@_WU?$char_traits@_W@std@@V?$allocator@_W@2@@1@V?$basic_string_view@DU?$char_traits@D@std@@@1@U_Normal_conversion@01@@Z 000000014003e360 f i gui.obj
 0001:0003d3e0       ??$_Convert_stringoid_to_wide@U_Normal_conversion@filesystem@std@@@filesystem@std@@YA?AV?$basic_string@_WU?$char_traits@_W@std@@V?$allocator@_W@2@@1@V?$basic_string_view@_WU?$char_traits@_W@std@@@1@U_Normal_conversion@01@@Z 000000014003e3e0 f i gui.obj
 0001:0003d440       ??$_Convert_wide_to@U?$char_traits@D@std@@V?$allocator@D@2@D@filesystem@std@@YA?AV?$basic_string@DU?$char_traits@D@std@@V?$allocator@D@2@@1@V?$basic_string_view@_WU?$char_traits@_W@std@@@1@AEBV?$allocator@D@1@@Z 000000014003e440 f i gui.obj
 0001:0003d4d0       ??$_Convert_wide_to_narrow@U?$char_traits@D@std@@V?$allocator@D@2@@filesystem@std@@YA?AV?$basic_string@DU?$char_traits@D@std@@V?$allocator@D@2@@1@W4__std_code_page@@V?$basic_string_view@_WU?$char_traits@_W@std@@@1@AEBV?$allocator@D@1@@Z 000000014003e4d0 f i gui.obj
 0001:0003d670       ??$_Copy_construct_from@U_Recursive_dir_enum_impl@filesystem@std@@@?$_Ptr_base@U_Recursive_dir_enum_impl@filesystem@std@@@std@@IEAAXAEBV?$shared_ptr@U_Recursive_dir_enum_impl@filesystem@std@@@1@@Z 000000014003e670 f i gui.obj
 0001:0003d6c0       ??$_Destroy_in_place@U_Recursive_dir_enum_impl@filesystem@std@@@std@@YAXAEAU_Recursive_dir_enum_impl@filesystem@0@@Z 000000014003e6c0 f i gui.obj
 0001:0003d6e0       ??$_Destroy_range@V?$allocator@U_Find_file_handle@filesystem@std@@@std@@@std@@YAXPEAU_Find_file_handle@filesystem@0@QEAU120@AEAV?$allocator@U_Find_file_handle@filesystem@std@@@0@@Z 000000014003e6e0 f i gui.obj
 0001:0003d730       ??$_Emplace_back@U_Find_file_handle@filesystem@std@@@?$_Uninitialized_backout_al@V?$allocator@U_Find_file_handle@filesystem@std@@@std@@@std@@QEAAX$$QEAU_Find_file_handle@filesystem@1@@Z 000000014003e730 f i gui.obj
 0001:0003d7a0       ??$_Emplace_back@UobjFile@finnsie@@@?$_Uninitialized_backout_al@V?$allocator@UobjFile@finnsie@@@std@@@std@@QEAAX$$QEAUobjFile@finnsie@@@Z 000000014003e7a0 f i gui.obj
 0001:0003d810       ??$_Emplace_back_with_unused_capacity@AEBUobjFile@finnsie@@@?$vector@UobjFile@finnsie@@V?$allocator@UobjFile@finnsie@@@std@@@std@@AEAAAEAUobjFile@finnsie@@AEBU23@@Z 000000014003e810 f i gui.obj
 0001:0003d8c0       ??$_Emplace_back_with_unused_capacity@U_Find_file_handle@filesystem@std@@@?$vector@U_Find_file_handle@filesystem@std@@V?$allocator@U_Find_file_handle@filesystem@std@@@3@@std@@AEAAAEAU_Find_file_handle@filesystem@1@$$QEAU231@@Z 000000014003e8c0 f i gui.obj
 0001:0003d970       ??$_Emplace_reallocate@AEBUobjFile@finnsie@@@?$vector@UobjFile@finnsie@@V?$allocator@UobjFile@finnsie@@@std@@@std@@QEAAPEAUobjFile@finnsie@@QEAU23@AEBU23@@Z 000000014003e970 f i gui.obj
 0001:0003dba0       ??$_Emplace_reallocate@U_Find_file_handle@filesystem@std@@@?$vector@U_Find_file_handle@filesystem@std@@V?$allocator@U_Find_file_handle@filesystem@std@@@3@@std@@QEAAPEAU_Find_file_handle@filesystem@1@QEAU231@$$QEAU231@@Z 000000014003eba0 f i gui.obj
 0001:0003ddc0       ??$_Find_unchecked1@PEB_W_W@std@@YAPEB_WPEB_WQEB_WAEB_WU?$integral_constant@_N$0A@@0@@Z 000000014003edc0 f i gui.obj
 0001:0003de10       ??$_Find_unchecked@PEB_W_W@std@@YAPEB_WQEB_W0AEB_W@Z 000000014003ee10 f i gui.obj
 0001:0003de60       ??$_Get_size_of_n@$01@std@@YA_K_K@Z 000000014003ee60 f i gui.obj
 0001:0003dea0       ??$_Get_unwrapped_n@V?$_String_iterator@V?$_String_val@U?$_Simple_types@_W@std@@@std@@@std@@_J$0A@@std@@YAPEA_WAEBV?$_String_iterator@V?$_String_val@U?$_Simple_types@_W@std@@@std@@@0@_J@Z 000000014003eea0 f i gui.obj
 0001:0003dee0       ??$_Idl_distance@V?$_String_const_iterator@V?$_String_val@U?$_Simple_types@_W@std@@@std@@@std@@PEB_W@std@@YA_JAEBQEB_W0@Z 000000014003eee0 f i gui.obj
 0001:0003df10       ??$_Immortalize@V_Generic_error_category@std@@@std@@YAAEAV_Generic_error_category@0@XZ 000000014003ef10 f i gui.obj
 0001:0003df50       ??$_Immortalize@V_System_error_category@std@@@std@@YAAEAV_System_error_category@0@XZ 000000014003ef50 f i gui.obj
 0001:0003df90       ??$_Immortalize_impl@V_Generic_error_category@std@@@std@@YAHPEAX0PEAPEAX@Z 000000014003ef90 f i gui.obj
 0001:0003dfd0       ??$_Immortalize_impl@V_System_error_category@std@@@std@@YAHPEAX0PEAPEAX@Z 000000014003efd0 f i gui.obj
 0001:0003e010       ??$_Initialize_dir_enum@U_Recursive_dir_enum_impl@filesystem@std@@@_Dir_enum_impl@filesystem@std@@SA?AW4__std_win_error@@AEAV?$shared_ptr@U_Recursive_dir_enum_impl@filesystem@std@@@2@AEBVpath@12@W4directory_options@12@@Z 000000014003f010 f i gui.obj
 0001:0003e0d0       ??$_Move_construct_from@U_Recursive_dir_enum_impl@filesystem@std@@@?$_Ptr_base@U_Recursive_dir_enum_impl@filesystem@std@@@std@@IEAAX$$QEAV01@@Z 000000014003f0d0 f i gui.obj
 0001:0003e120       ??$_Reallocate_for@V<lambda_138c3d7c38c85abb84c7fc7bfe5747b7>@@D@?$basic_string@DU?$char_traits@D@std@@V?$allocator@D@2@@std@@AEAAAEAV01@_KV<lambda_138c3d7c38c85abb84c7fc7bfe5747b7>@@D@Z 000000014003f120 f i gui.obj
 0001:0003e240       ??$_Reallocate_for@V<lambda_3fa8b2c8193a0f3144fc4b1b8f243931>@@PEB_W@?$basic_string@_WU?$char_traits@_W@std@@V?$allocator@_W@2@@std@@AEAAAEAV01@_KV<lambda_3fa8b2c8193a0f3144fc4b1b8f243931>@@PEB_W@Z 000000014003f240 f i gui.obj
 0001:0003e360       ??$_Reallocate_grow_by@V<lambda_1dfe18491bcca09701d8ccb01d0b0af4>@@PEB_W_K@?$basic_string@_WU?$char_traits@_W@std@@V?$allocator@_W@2@@std@@AEAAAEAV01@_KV<lambda_1dfe18491bcca09701d8ccb01d0b0af4>@@PEB_W_K@Z 000000014003f360 f i gui.obj
 0001:0003e530       ??$_Reallocate_grow_by@V<lambda_25953b27f3c43b57ba59f021c7f225c5>@@_W@?$basic_string@_WU?$char_traits@_W@std@@V?$allocator@_W@2@@std@@AEAAAEAV01@_KV<lambda_25953b27f3c43b57ba59f021c7f225c5>@@_W@Z 000000014003f530 f i gui.obj
 0001:0003e6f0       ??$_Reallocate_grow_by@V<lambda_a3050a43f3157934f354774ab3dd2e02>@@_K_W@?$basic_string@_WU?$char_traits@_W@std@@V?$allocator@_W@2@@std@@AEAAAEAV01@_KV<lambda_a3050a43f3157934f354774ab3dd2e02>@@_K_W@Z 000000014003f6f0 f i gui.obj
 0001:0003e8c0       ??$_Reallocate_grow_by@V<lambda_e1befb086ad3257e3f042a63030725f7>@@_KD@?$basic_string@DU?$char_traits@D@std@@V?$allocator@D@2@@std@@AEAAAEAV01@_KV<lambda_e1befb086ad3257e3f042a63030725f7>@@_KD@Z 000000014003f8c0 f i gui.obj
 0001:0003ea90       ??$_Seek_wrapped@$$CB_W@std@@YAXAEAPEB_WQEB_W@Z 000000014003fa90 f i gui.obj
 0001:0003eab0       ??$_Seek_wrapped@V?$reverse_iterator@PEB_W@std@@V12@@std@@YAXAEAV?$reverse_iterator@PEB_W@0@AEBV10@@Z 000000014003fab0 f i gui.obj
 0001:0003ead0       ??$_Set_ptr_rep_and_enable_shared@U_Recursive_dir_enum_impl@filesystem@std@@@?$shared_ptr@U_Recursive_dir_enum_impl@filesystem@std@@@std@@AEAAXQEAU_Recursive_dir_enum_impl@filesystem@1@QEAV_Ref_count_base@1@@Z 000000014003fad0 f i gui.obj
 0001:0003eb00       ??$_Stringoid_from_Source@$$BY04D@filesystem@std@@YA?AV?$basic_string_view@DU?$char_traits@D@std@@@1@AEAY04$$CBD@Z 000000014003fb00 f i gui.obj
 0001:0003eb30       ??$_Stringoid_from_Source@DU?$char_traits@D@std@@V?$allocator@D@2@@filesystem@std@@YA?AV?$basic_string_view@DU?$char_traits@D@std@@@1@AEBV?$basic_string@DU?$char_traits@D@std@@V?$allocator@D@2@@1@@Z 000000014003fb30 f i gui.obj
 0001:0003eb80       ??$_Stringoid_from_Source@_WU?$char_traits@_W@std@@@filesystem@std@@YA?AV?$basic_string_view@_WU?$char_traits@_W@std@@@1@AEBV21@@Z 000000014003fb80 f i gui.obj
 0001:0003ebd0       ??$_Traits_compare@U?$char_traits@_W@std@@@std@@YAHQEB_W_K01@Z 000000014003fbd0 f i gui.obj
 0001:0003ec50       ??$_Unaligned_load@I@filesystem@std@@YAIPEBX@Z 000000014003fc50 f i gui.obj
 0001:0003ec70       ??$_Uninitialized_move@PEAU_Find_file_handle@filesystem@std@@V?$allocator@U_Find_file_handle@filesystem@std@@@3@@std@@YAPEAU_Find_file_handle@filesystem@0@QEAU120@0PEAU120@AEAV?$allocator@U_Find_file_handle@filesystem@std@@@0@@Z 000000014003fc70 f i gui.obj
 0001:0003ed20       ??$_Uninitialized_move@PEAUobjFile@finnsie@@V?$allocator@UobjFile@finnsie@@@std@@@std@@YAPEAUobjFile@finnsie@@QEAU12@0PEAU12@AEAV?$allocator@UobjFile@finnsie@@@0@@Z 000000014003fd20 f i gui.obj
 0001:0003edd0       ??$append@V?$basic_string_view@DU?$char_traits@D@std@@@std@@X@?$basic_string@DU?$char_traits@D@std@@V?$allocator@D@2@@std@@QEAAAEAV01@AEBV?$basic_string_view@DU?$char_traits@D@std@@@1@@Z 000000014003fdd0 f i gui.obj
 0001:0003ee40       ??$assign@V?$basic_string_view@_WU?$char_traits@_W@std@@@std@@X@?$basic_string@_WU?$char_traits@_W@std@@V?$allocator@_W@2@@std@@QEAAAEAV01@AEBV?$basic_string_view@_WU?$char_traits@_W@std@@@1@@Z 000000014003fe40 f i gui.obj
 0001:0003eeb0       ??$construct@U_Find_file_handle@filesystem@std@@U123@@?$_Default_allocator_traits@V?$allocator@U_Find_file_handle@filesystem@std@@@std@@@std@@SAXAEAV?$allocator@U_Find_file_handle@filesystem@std@@@1@QEAU_Find_file_handle@filesystem@1@$$QEAU341@@Z 000000014003feb0 f i gui.obj
 0001:0003ef00       ??$construct@UobjFile@finnsie@@AEBU12@@?$_Default_allocator_traits@V?$allocator@UobjFile@finnsie@@@std@@@std@@SAXAEAV?$allocator@UobjFile@finnsie@@@1@QEAUobjFile@finnsie@@AEBU34@@Z 000000014003ff00 f i gui.obj
 0001:0003ef50       ??$construct@UobjFile@finnsie@@U12@@?$_Default_allocator_traits@V?$allocator@UobjFile@finnsie@@@std@@@std@@SAXAEAV?$allocator@UobjFile@finnsie@@@1@QEAUobjFile@finnsie@@$$QEAU34@@Z 000000014003ff50 f i gui.obj
 0001:0003efa0       ??$destroy@U_Find_file_handle@filesystem@std@@@?$_Default_allocator_traits@V?$allocator@U_Find_file_handle@filesystem@std@@@std@@@std@@SAXAEAV?$allocator@U_Find_file_handle@filesystem@std@@@1@QEAU_Find_file_handle@filesystem@1@@Z 000000014003ffa0 f i gui.obj
 0001:0003efc0       ??$emplace_back@AEBUobjFile@finnsie@@@?$vector@UobjFile@finnsie@@V?$allocator@UobjFile@finnsie@@@std@@@std@@QEAAAEAUobjFile@finnsie@@AEBU23@@Z 000000014003ffc0 f i gui.obj
 0001:0003f060       ??$emplace_back@U_Find_file_handle@filesystem@std@@@?$vector@U_Find_file_handle@filesystem@std@@V?$allocator@U_Find_file_handle@filesystem@std@@@3@@std@@QEAAAEAU_Find_file_handle@filesystem@1@$$QEAU231@@Z 0000000140040060 f i gui.obj
 0001:0003f100       ??$find@PEB_W_W@std@@YAPEB_WPEB_WQEB_WAEB_W@Z 0000000140040100 f i gui.obj
 0001:0003f170       ??$find_if@PEB_WU_Is_slash_oper@std@@@std@@YAPEB_WPEB_WQEB_WU_Is_slash_oper@0@@Z 0000000140040170 f i gui.obj
 0001:0003f210       ??$find_if@V?$reverse_iterator@PEB_W@std@@U_Is_slash_oper@2@@std@@YA?AV?$reverse_iterator@PEB_W@0@V10@V10@U_Is_slash_oper@0@@Z 0000000140040210 f i gui.obj
 0001:0003f2d0       ??$find_if_not@PEB_WU_Is_slash_oper@std@@@std@@YAPEB_WPEB_WQEB_WU_Is_slash_oper@0@@Z 00000001400402d0 f i gui.obj
 0001:0003f370       ??$find_if_not@V?$reverse_iterator@PEB_W@std@@U_Is_slash_oper@2@@std@@YA?AV?$reverse_iterator@PEB_W@0@V10@V10@U_Is_slash_oper@0@@Z 0000000140040370 f i gui.obj
 0001:0003f430       ??$generic_string@DU?$char_traits@D@std@@V?$allocator@D@2@$0A@@path@filesystem@std@@QEBA?AV?$basic_string@DU?$char_traits@D@std@@V?$allocator@D@2@@2@AEBV?$allocator@D@2@@Z 0000000140040430 f i gui.obj
 0001:0003f600       ??$make_shared@U_Recursive_dir_enum_impl@filesystem@std@@U_Creator@_Dir_enum_impl@23@AEBW4directory_options@23@@std@@YA?AV?$shared_ptr@U_Recursive_dir_enum_impl@filesystem@std@@@0@$$QEAU_Creator@_Dir_enum_impl@filesystem@0@AEBW4directory_options@40@@Z 0000000140040600 f i gui.obj
 0001:0003f6f0       ??$replace_copy@V?$_String_const_iterator@V?$_String_val@U?$_Simple_types@_W@std@@@std@@@std@@V?$_String_iterator@V?$_String_val@U?$_Simple_types@_W@std@@@std@@@2@_W@std@@YA?AV?$_String_iterator@V?$_String_val@U?$_Simple_types@_W@std@@@std@@@0@V?$_String_const_iterator@V?$_String_val@U?$_Simple_types@_W@std@@@std@@@0@0V10@AEB_W2@Z 00000001400406f0 f i gui.obj
 0001:0003f7e0       ??$sprintf_s@$0IA@@@YAHAEAY0IA@DPEBDZZ 00000001400407e0 f i gui.obj
 0001:0003f830       ??$string@DU?$char_traits@D@std@@V?$allocator@D@2@$0A@@path@filesystem@std@@QEBA?AV?$basic_string@DU?$char_traits@D@std@@V?$allocator@D@2@@2@AEBV?$allocator@D@2@@Z 0000000140040830 f i gui.obj
 0001:0003f8b0       ??$swap@PEAV_Ref_count_base@std@@X@std@@YAXAEAPEAV_Ref_count_base@0@0@Z 00000001400408b0 f i gui.obj
 0001:0003f8b0       ??$swap@PEAU_Recursive_dir_enum_impl@filesystem@std@@X@std@@YAXAEAPEAU_Recursive_dir_enum_impl@filesystem@0@0@Z 00000001400408b0 f i gui.obj
 0001:0003f900       ??0?$basic_string@DU?$char_traits@D@std@@V?$allocator@D@2@@std@@QEAA@_KD@Z 0000000140040900 f i gui.obj
 0001:0003f990       ??0?$basic_string@_WU?$char_traits@_W@std@@V?$allocator@_W@2@@std@@QEAA@$$QEAV01@@Z 0000000140040990 f i gui.obj
 0001:0003fa30       ??0?$basic_string@_WU?$char_traits@_W@std@@V?$allocator@_W@2@@std@@QEAA@AEBV01@@Z 0000000140040a30 f i gui.obj
 0001:0003fad0       ??0?$basic_string@_WU?$char_traits@_W@std@@V?$allocator@_W@2@@std@@QEAA@AEBV?$allocator@_W@1@@Z 0000000140040ad0 f i gui.obj
 0001:0003fb30       ??0?$basic_string@_WU?$char_traits@_W@std@@V?$allocator@_W@2@@std@@QEAA@XZ 0000000140040b30 f i gui.obj
 0001:0003fb90       ??0?$basic_string_view@DU?$char_traits@D@std@@@std@@QEAA@QEBD@Z 0000000140040b90 f i gui.obj
 0001:0003fbd0       ??0ImGuiTextRange@ImGuiTextFilter@@QEAA@PEBD0@Z 0000000140040bd0 f i imgui.obj
 0001:0003fbd0       ??0?$basic_string_view@_WU?$char_traits@_W@std@@@std@@QEAA@QEB_W_K@Z 0000000140040bd0 f i gui.obj
 0001:0003fbd0       ??0?$basic_string_view@DU?$char_traits@D@std@@@std@@QEAA@QEBD_K@Z 0000000140040bd0 f i gui.obj
 0001:0003fc00       ??0?$basic_string_view@_WU?$char_traits@_W@std@@@std@@QEAA@QEB_W@Z 0000000140040c00 f i gui.obj
 0001:0003fc40       ??0?$reverse_iterator@PEB_W@std@@QEAA@PEB_W@Z 0000000140040c40 f i gui.obj
 0001:0003fc70       ??0?$shared_ptr@U_Recursive_dir_enum_impl@filesystem@std@@@std@@QEAA@$$QEAV01@@Z 0000000140040c70 f i gui.obj
 0001:0003fcb0       ??0?$shared_ptr@U_Recursive_dir_enum_impl@filesystem@std@@@std@@QEAA@AEBV01@@Z 0000000140040cb0 f i gui.obj
 0001:0003fcf0       ??0?$shared_ptr@U_Recursive_dir_enum_impl@filesystem@std@@@std@@QEAA@XZ 0000000140040cf0 f i gui.obj
 0001:0003fd10       ??0_Creator@_Dir_enum_impl@filesystem@std@@QEAA@AEBVpath@23@W4directory_options@23@@Z 0000000140040d10 f i gui.obj
 0001:0003fe00       ??0_Dir_enum_impl@filesystem@std@@QEAA@$$QEAU_Creator@012@W4directory_options@12@@Z 0000000140040e00 f i gui.obj
 0001:0003fe90       ??0_Find_file_handle@filesystem@std@@QEAA@$$QEAU012@@Z 0000000140040e90 f i gui.obj
 0001:0003fed0       ??0_Find_file_handle@filesystem@std@@QEAA@XZ 0000000140040ed0 f i gui.obj
 0001:0003fef0       ??0_Generic_error_category@std@@QEAA@XZ 0000000140040ef0 f i gui.obj
 0001:0003ff30       ??0_Recursive_dir_enum_impl@filesystem@std@@QEAA@$$QEAU_Creator@_Dir_enum_impl@12@W4directory_options@12@@Z 0000000140040f30 f i gui.obj
 0001:0003ff90       ??0_Ref_count_base@std@@IEAA@XZ 0000000140040f90 f i gui.obj
 0001:0003ffc0       ??0_System_error@std@@IEAA@Verror_code@1@AEBV?$basic_string@DU?$char_traits@D@std@@V?$allocator@D@2@@1@@Z 0000000140040fc0 f i gui.obj
 0001:000400e0       ??0_System_error@std@@QEAA@AEBV01@@Z 00000001400410e0 f i gui.obj
 0001:00040140       ??0_System_error_category@std@@QEAA@XZ 0000000140041140 f i gui.obj
 0001:00040180       ??0directory_entry@filesystem@std@@QEAA@XZ 0000000140041180 f i gui.obj
 0001:000401d0       ??0error_category@std@@QEAA@XZ 00000001400411d0 f i gui.obj
 0001:000401f0       ??0error_condition@std@@QEAA@HAEBVerror_category@1@@Z 00000001400411f0 f i gui.obj
 0001:000401f0       ??0ImGuiStoragePair@ImGuiStorage@@QEAA@IPEAX@Z 00000001400411f0 f i imgui.obj
 0001:000401f0       ??0error_code@std@@QEAA@HAEBVerror_category@1@@Z 00000001400411f0 f i gui.obj
 0001:00040220       ??0exception@std@@QEAA@QEBD@Z 0000000140041220 f i gui.obj
 0001:00040290       ??0filesystem_error@filesystem@std@@QEAA@AEBV012@@Z 0000000140041290 f i gui.obj
 0001:00040340       ??0filesystem_error@filesystem@std@@QEAA@AEBV?$basic_string@DU?$char_traits@D@std@@V?$allocator@D@2@@2@AEBVpath@12@Verror_code@2@@Z 0000000140041340 f i gui.obj
 0001:000404b0       ??0filesystem_error@filesystem@std@@QEAA@AEBV?$basic_string@DU?$char_traits@D@std@@V?$allocator@D@2@@2@Verror_code@2@@Z 00000001400414b0 f i gui.obj
 0001:00040560       ??0objFile@finnsie@@QEAA@$$QEAU01@@Z 0000000140041560 f i gui.obj
 0001:000405e0       ??0objFile@finnsie@@QEAA@AEBU01@@Z 00000001400415e0 f i gui.obj
 0001:00040660       ??0path@filesystem@std@@QEAA@AEBV012@@Z 0000000140041660 f i gui.obj
 0001:000406a0       ??0path@filesystem@std@@QEAA@XZ 00000001400416a0 f i gui.obj
 0001:000406c0       ??0recursive_directory_iterator@filesystem@std@@QEAA@$$QEAV012@@Z 00000001400416c0 f i gui.obj
 0001:00040700       ??0recursive_directory_iterator@filesystem@std@@QEAA@AEBV012@@Z 0000000140041700 f i gui.obj
 0001:00040740       ??0recursive_directory_iterator@filesystem@std@@QEAA@AEBVpath@12@@Z 0000000140041740 f i gui.obj
 0001:000407a0       ??0recursive_directory_iterator@filesystem@std@@QEAA@XZ 00000001400417a0 f i gui.obj
 0001:000407c0       ??0runtime_error@std@@QEAA@AEBV?$basic_string@DU?$char_traits@D@std@@V?$allocator@D@2@@1@@Z 00000001400417c0 f i gui.obj
 0001:00040800       ??0system_error@std@@QEAA@AEBV01@@Z 0000000140041800 f i gui.obj
 0001:00040840       ??0system_error@std@@QEAA@Verror_code@1@@Z 0000000140041840 f i gui.obj
 0001:000408e0       ??0system_error@std@@QEAA@Verror_code@1@AEBV?$basic_string@DU?$char_traits@D@std@@V?$allocator@D@2@@1@@Z 00000001400418e0 f i gui.obj
 0001:00040940       ??1?$_Ref_count_obj2@U_Recursive_dir_enum_impl@filesystem@std@@@std@@UEAA@XZ 0000000140041940 f i gui.obj
 0001:00040970       ??1?$_Uninitialized_backout_al@V?$allocator@U_Find_file_handle@filesystem@std@@@std@@@std@@QEAA@XZ 0000000140041970 f i gui.obj
 0001:000409a0       ??1?$_Uninitialized_backout_al@V?$allocator@UobjFile@finnsie@@@std@@@std@@QEAA@XZ 00000001400419a0 f i gui.obj
 0001:000409d0       ??1?$basic_string@_WU?$char_traits@_W@std@@V?$allocator@_W@2@@std@@QEAA@XZ 00000001400419d0 f i gui.obj
 0001:00040a00       ??1?$shared_ptr@U_Recursive_dir_enum_impl@filesystem@std@@@std@@QEAA@XZ 0000000140041a00 f i gui.obj
 0001:00040a20       ??1?$vector@U_Find_file_handle@filesystem@std@@V?$allocator@U_Find_file_handle@filesystem@std@@@3@@std@@QEAA@XZ 0000000140041a20 f i gui.obj
 0001:00040a40       ??1_Creator@_Dir_enum_impl@filesystem@std@@QEAA@XZ 0000000140041a40 f i gui.obj
 0001:00040a70       ??1_Dir_enum_impl@filesystem@std@@QEAA@XZ 0000000140041a70 f i gui.obj
 0001:00040aa0       ??1_Find_file_handle@filesystem@std@@QEAA@XZ 0000000140041aa0 f i gui.obj
 0001:00040ac0       ??1_System_error_category@std@@UEAA@XZ 0000000140041ac0 f i gui.obj
 0001:00040ac0       ??1_Generic_error_category@std@@UEAA@XZ 0000000140041ac0 f i gui.obj
 0001:00040ae0       ??1_Recursive_dir_enum_impl@filesystem@std@@QEAA@XZ 0000000140041ae0 f i gui.obj
 0001:00040b10       ??1directory_entry@filesystem@std@@QEAA@XZ 0000000140041b10 f i gui.obj
 0001:00040b30       ??1filesystem_error@filesystem@std@@UEAA@XZ 0000000140041b30 f i gui.obj
 0001:00040b80       ??1path@filesystem@std@@QEAA@XZ 0000000140041b80 f i gui.obj
 0001:00040ba0       ??1recursive_directory_iterator@filesystem@std@@QEAA@XZ 0000000140041ba0 f i gui.obj
 0001:00040bc0       ??4?$basic_string@_WU?$char_traits@_W@std@@V?$allocator@_W@2@@std@@QEAAAEAV01@$$QEAV01@@Z 0000000140041bc0 f i gui.obj
 0001:00040c20       ??4?$basic_string@_WU?$char_traits@_W@std@@V?$allocator@_W@2@@std@@QEAAAEAV01@AEBV01@@Z 0000000140041c20 f i gui.obj
 0001:00040c80       ??4?$shared_ptr@U_Recursive_dir_enum_impl@filesystem@std@@@std@@QEAAAEAV01@$$QEAV01@@Z 0000000140041c80 f i gui.obj
 0001:00040cd0       ??4_Find_file_handle@filesystem@std@@QEAAAEAU012@$$QEAU012@@Z 0000000140041cd0 f i gui.obj
 0001:00040d30       ??4path@filesystem@std@@QEAAAEAV012@$$QEAV012@@Z 0000000140041d30 f i gui.obj
 0001:00040d60       ??4path@filesystem@std@@QEAAAEAV012@AEBV012@@Z 0000000140041d60 f i gui.obj
 0001:00040d90       ??8error_category@std@@QEBA_NAEBV01@@Z 0000000140041d90 f i gui.obj
 0001:00040dd0       ??8filesystem@std@@YA_NAEBVpath@01@0@Z 0000000140041dd0 f i gui.obj
 0001:00040e10       ??8std@@YA_NAEBVerror_condition@0@0@Z 0000000140041e10 f i gui.obj
 0001:00040e90       ??9recursive_directory_iterator@filesystem@std@@QEBA_NAEBV012@@Z 0000000140041e90 f i gui.obj
 0001:00040ec0       ??A?$basic_string@DU?$char_traits@D@std@@V?$allocator@D@2@@std@@QEAAAEAD_K@Z 0000000140041ec0 f i gui.obj
 0001:00040ef0       ??B?$basic_string@_WU?$char_traits@_W@std@@V?$allocator@_W@2@@std@@QEBA?AV?$basic_string_view@_WU?$char_traits@_W@std@@@1@XZ 0000000140041ef0 f i gui.obj
 0001:00040f40       ??D?$reverse_iterator@PEB_W@std@@QEBAAEB_WXZ 0000000140041f40 f i gui.obj
 0001:00040f70       ??Drecursive_directory_iterator@filesystem@std@@QEBAAEBVdirectory_entry@12@XZ 0000000140041f70 f i gui.obj
 0001:00040f90       ??E?$reverse_iterator@PEB_W@std@@QEAAAEAV01@XZ 0000000140041f90 f i gui.obj
 0001:00040fb0       ??Erecursive_directory_iterator@filesystem@std@@QEAAAEAV012@XZ 0000000140041fb0 f i gui.obj
 0001:00040ff0       ??Ifilesystem@std@@YA?AW4directory_options@01@W4201@0@Z 0000000140041ff0 f i gui.obj
 0001:00040ff0       ??I@YA?AW4__std_fs_file_attr@@W40@0@Z 0000000140041ff0 f i gui.obj
 0001:00041010       ??R<lambda_138c3d7c38c85abb84c7fc7bfe5747b7>@@QEBAXQEAD_KD@Z 0000000140042010 f i gui.obj
 0001:00041070       ??R<lambda_1dfe18491bcca09701d8ccb01d0b0af4>@@QEBAXQEA_WQEB_W_K12@Z 0000000140042070 f i gui.obj
 0001:000410f0       ??R<lambda_25953b27f3c43b57ba59f021c7f225c5>@@QEBAXQEA_WQEB_W_K_W@Z 00000001400420f0 f i gui.obj
 0001:00041160       ??R<lambda_3fa8b2c8193a0f3144fc4b1b8f243931>@@QEBAXQEA_W_KQEB_W@Z 0000000140042160 f i gui.obj
 0001:000411c0       ??R<lambda_a3050a43f3157934f354774ab3dd2e02>@@QEBAXQEA_WQEB_W_K2_W@Z 00000001400421c0 f i gui.obj
 0001:00041240       ??R<lambda_e1befb086ad3257e3f042a63030725f7>@@QEBAXQEADQEBD_K2D@Z 0000000140042240 f i gui.obj
 0001:000412d0       ??R_Is_slash_oper@std@@QEBA_N_W@Z 00000001400422d0 f i gui.obj
 0001:00041310       ??U@YA?AW4__std_fs_stats_flags@@W40@0@Z 0000000140042310 f i gui.obj
 0001:00041330       ??Y?$basic_string@DU?$char_traits@D@std@@V?$allocator@D@2@@std@@QEAAAEAV01@QEBD@Z 0000000140042330 f i gui.obj
 0001:00041360       ??_0path@filesystem@std@@QEAAAEAV012@AEBV012@@Z 0000000140042360 f i gui.obj
 0001:00041590       ??_5@YAAEAW4__std_fs_stats_flags@@AEAW40@W40@@Z 0000000140042590 f i gui.obj
 0001:000415c0       ??_G?$_Ref_count_obj2@U_Recursive_dir_enum_impl@filesystem@std@@@std@@UEAAPEAXI@Z 00000001400425c0 f i gui.obj
 0001:000415c0       ??_E?$_Ref_count_obj2@U_Recursive_dir_enum_impl@filesystem@std@@@std@@UEAAPEAXI@Z 00000001400425c0 f i gui.obj
 0001:00041600       ??_G_Find_file_handle@filesystem@std@@QEAAPEAXI@Z 0000000140042600 f i gui.obj
 0001:00041640       ??_G_Generic_error_category@std@@UEAAPEAXI@Z 0000000140042640 f i gui.obj
 0001:00041640       ??_E_System_error_category@std@@UEAAPEAXI@Z 0000000140042640 f i gui.obj
 0001:00041640       ??_E_Generic_error_category@std@@UEAAPEAXI@Z 0000000140042640 f i gui.obj
 0001:00041640       ??_G_System_error_category@std@@UEAAPEAXI@Z 0000000140042640 f i gui.obj
 0001:00041680       ??_G_Recursive_dir_enum_impl@filesystem@std@@QEAAPEAXI@Z 0000000140042680 f i gui.obj
 0001:000416c0       ??_E_System_error@std@@UEAAPEAXI@Z 00000001400426c0 f i gui.obj
 0001:000416c0       ??_G_System_error@std@@UEAAPEAXI@Z 00000001400426c0 f i gui.obj
 0001:00041700       ??_Efilesystem_error@filesystem@std@@UEAAPEAXI@Z 0000000140042700 f i gui.obj
 0001:00041700       ??_Gfilesystem_error@filesystem@std@@UEAAPEAXI@Z 0000000140042700 f i gui.obj
 0001:00041740       ??_Gsystem_error@std@@UEAAPEAXI@Z 0000000140042740 f i gui.obj
 0001:00041740       ??_Esystem_error@std@@UEAAPEAXI@Z 0000000140042740 f i gui.obj
 0001:00041780       ??__Ksv@string_view_literals@literals@std@@YA?AV?$basic_string_view@DU?$char_traits@D@std@@@3@PEBD_K@Z 0000000140042780 f i gui.obj
 0001:00041780       ??__Ksv@string_view_literals@literals@std@@YA?AV?$basic_string_view@_WU?$char_traits@_W@std@@@3@PEB_W_K@Z 0000000140042780 f i gui.obj
 0001:000417c0       ?_Advance_and_reset_if_no_more_files@_Recursive_dir_enum_impl@filesystem@std@@SA?AW4__std_win_error@@AEAV?$shared_ptr@U_Recursive_dir_enum_impl@filesystem@std@@@3@@Z 00000001400427c0 f i gui.obj
 0001:00041980       ?_Advance_and_skip_dots@_Recursive_dir_enum_impl@filesystem@std@@QEAA?AW4__std_win_error@@AEAU__std_fs_find_data@@@Z 0000000140042980 f i gui.obj
 0001:000419d0       ?_Bitmask_includes@@YA_NW4__std_fs_file_attr@@0@Z 00000001400429d0 f i gui.obj
 0001:000419d0       ?_Bitmask_includes@filesystem@std@@YA_NW4directory_options@12@0@Z 00000001400429d0 f i gui.obj
 0001:00041a10       ?_Calculate_growth@?$basic_string@_WU?$char_traits@_W@std@@V?$allocator@_W@2@@std@@AEBA_K_K@Z 0000000140042a10 f i gui.obj
 0001:00041a60       ?_Calculate_growth@?$basic_string@_WU?$char_traits@_W@std@@V?$allocator@_W@2@@std@@CA_K_K00@Z 0000000140042a60 f i gui.obj
 0001:00041b00       ?_Change_array@?$vector@U_Find_file_handle@filesystem@std@@V?$allocator@U_Find_file_handle@filesystem@std@@@3@@std@@AEAAXQEAU_Find_file_handle@filesystem@2@_K1@Z 0000000140042b00 f i gui.obj
 0001:00041c10       ?_Change_array@?$vector@UobjFile@finnsie@@V?$allocator@UobjFile@finnsie@@@std@@@std@@AEAAXQEAUobjFile@finnsie@@_K1@Z 0000000140042c10 f i gui.obj
 0001:00041d30       ?_Check_convert_result@filesystem@std@@YAHU__std_fs_convert_result@@@Z 0000000140042d30 f i gui.obj
 0001:00041d60       ?_Construct_lv_contents@?$basic_string@_WU?$char_traits@_W@std@@V?$allocator@_W@2@@std@@AEAAXAEBV12@@Z 0000000140042d60 f i gui.obj
 0001:00041eb0       ?_Convert_narrow_to_wide@filesystem@std@@YA?AV?$basic_string@_WU?$char_traits@_W@std@@V?$allocator@_W@2@@2@W4__std_code_page@@V?$basic_string_view@DU?$char_traits@D@std@@@2@@Z 0000000140042eb0 f i gui.obj
 0001:00042040       ?_Copy_assign@?$basic_string@_WU?$char_traits@_W@std@@V?$allocator@_W@2@@std@@AEAAXAEBV12@U?$integral_constant@_N$0A@@2@@Z 0000000140043040 f i gui.obj
 0001:000420c0       ?_Decref@?$_Ptr_base@U_Recursive_dir_enum_impl@filesystem@std@@@std@@IEAAXXZ 00000001400430c0 f i gui.obj
 0001:000420f0       ?_Decref@_Ref_count_base@std@@QEAAXXZ 00000001400430f0 f i gui.obj
 0001:00042140       ?_Decwref@_Ref_count_base@std@@QEAAXXZ 0000000140043140 f i gui.obj
 0001:00042180       ?_Delete_this@?$_Ref_count_obj2@U_Recursive_dir_enum_impl@filesystem@std@@@std@@EEAAXXZ 0000000140043180 f i gui.obj
 0001:000421d0       ?_Destroy@?$_Ref_count_obj2@U_Recursive_dir_enum_impl@filesystem@std@@@std@@EEAAXXZ 00000001400431d0 f i gui.obj
 0001:000421f0       ?_Destroy@?$vector@U_Find_file_handle@filesystem@std@@V?$allocator@U_Find_file_handle@filesystem@std@@@3@@std@@AEAAXPEAU_Find_file_handle@filesystem@2@0@Z 00000001400431f0 f i gui.obj
 0001:00042230       ?_Eos@?$basic_string@DU?$char_traits@D@std@@V?$allocator@D@2@@std@@AEAAX_K@Z 0000000140043230 f i gui.obj
 0001:00042290       ?_Eos@?$basic_string@_WU?$char_traits@_W@std@@V?$allocator@_W@2@@std@@AEAAX_K@Z 0000000140043290 f i gui.obj
 0001:00042300       ?_Find_extension@filesystem@std@@YAPEB_WQEB_W0@Z 0000000140043300 f i gui.obj
 0001:000423c0       ?_Find_filename@filesystem@std@@YAPEB_WQEB_WPEB_W@Z 00000001400433c0 f i gui.obj
 0001:00042430       ?_Find_relative_path@filesystem@std@@YAPEB_WQEB_W0@Z 0000000140043430 f i gui.obj
 0001:00042480       ?_Find_root_name_end@filesystem@std@@YAPEB_WQEB_W0@Z 0000000140043480 f i gui.obj
 0001:000426b0       ?_Get_deleter@_Ref_count_base@std@@UEBAPEAXAEBVtype_info@@@Z 00000001400436b0 f i gui.obj
 0001:000426c0       ?_Has_cached_attribute@directory_entry@filesystem@std@@AEBA_NW4__std_fs_file_attr@@@Z 00000001400436c0 f i gui.obj
 0001:000426f0       ?_Has_drive_letter_prefix@filesystem@std@@YA_NQEB_W0@Z 00000001400436f0 f i gui.obj
 0001:00042750       ?_Incref@_Ref_count_base@std@@QEAAXXZ 0000000140043750 f i gui.obj
 0001:00042770       ?_Is_dot_or_dotdot@filesystem@std@@YA_NAEBU__std_fs_find_data@@@Z 0000000140043770 f i gui.obj
 0001:00042800       ?_Is_drive_prefix@filesystem@std@@YA_NQEB_W@Z 0000000140043800 f i gui.obj
 0001:00042860       ?_Is_file_not_found@filesystem@std@@YA_NW4__std_win_error@@@Z 0000000140043860 f i gui.obj
 0001:000428a0       ?_Is_symlink_or_junction@directory_entry@filesystem@std@@QEBA_NXZ 00000001400438a0 f i gui.obj
 0001:00042900       ?_Large_string_engaged@?$_String_val@U?$_Simple_types@_W@std@@@std@@QEBA_NXZ 0000000140043900 f i gui.obj
 0001:00042930       ?_Make_ec@filesystem@std@@YA?AVerror_code@2@W4__std_win_error@@@Z 0000000140043930 f i gui.obj
 0001:00042960       ?_Makestr@_System_error@std@@CA?AV?$basic_string@DU?$char_traits@D@std@@V?$allocator@D@2@@2@Verror_code@2@V32@@Z 0000000140043960 f i gui.obj
 0001:00042a50       ?_Move_assign@?$basic_string@_WU?$char_traits@_W@std@@V?$allocator@_W@2@@std@@AEAAXAEAV12@U_Equal_allocators@2@@Z 0000000140043a50 f i gui.obj
 0001:00042ad0       ?_Myptr@?$_String_val@U?$_Simple_types@_W@std@@@std@@QEBAPEB_WXZ 0000000140043ad0 f i gui.obj
 0001:00042ad0       ?_Myptr@?$_String_val@U?$_Simple_types@_W@std@@@std@@QEAAPEA_WXZ 0000000140043ad0 f i gui.obj
 0001:00042b10       ?_Open@_Find_file_handle@filesystem@std@@QEAA?AW4__std_win_error@@PEB_WPEAU__std_fs_find_data@@@Z 0000000140043b10 f i gui.obj
 0001:00042b40       ?_Open_dir@_Dir_enum_impl@filesystem@std@@SA?AW4__std_win_error@@AEAVpath@23@W4directory_options@23@AEAU_Find_file_handle@23@AEAU__std_fs_find_data@@@Z 0000000140043b40 f i gui.obj
 0001:00042c50       ?_Parse_extension@filesystem@std@@YA?AV?$basic_string_view@_WU?$char_traits@_W@std@@@2@V32@@Z 0000000140043c50 f i gui.obj
 0001:00042d00       ?_Parse_filename@filesystem@std@@YA?AV?$basic_string_view@_WU?$char_traits@_W@std@@@2@V32@@Z 0000000140043d00 f i gui.obj
 0001:00042d80       ?_Pretty_message@filesystem_error@filesystem@std@@CA?AV?$basic_string@DU?$char_traits@D@std@@V?$allocator@D@2@@3@V?$basic_string_view@DU?$char_traits@D@std@@@3@AEBVpath@23@1@Z 0000000140043d80 f i gui.obj
 0001:00042f60       ?_Range_compare@filesystem@std@@YAHQEB_W000@Z 0000000140043f60 f i gui.obj
 0001:00042fc0       ?_Refresh@_Dir_enum_impl@filesystem@std@@QEAAXAEBU__std_fs_find_data@@@Z 0000000140043fc0 f i gui.obj
 0001:00043070       ?_Refresh@directory_entry@filesystem@std@@AEAAXAEBU__std_fs_find_data@@@Z 0000000140044070 f i gui.obj
 0001:00043130       ?_Remove_filename_and_separator@path@filesystem@std@@QEAAXXZ 0000000140044130 f i gui.obj
 0001:00043280       ?_Should_recurse@_Recursive_dir_enum_impl@filesystem@std@@QEBA?AU_Should_recurse_result@23@XZ 0000000140044280 f i gui.obj
 0001:000433d0       ?_Skip_dots@_Dir_enum_impl@filesystem@std@@SA?AW4__std_win_error@@W4__std_fs_dir_handle@@AEAU__std_fs_find_data@@@Z 00000001400443d0 f i gui.obj
 0001:00043420       ?_Swap@?$_Ptr_base@U_Recursive_dir_enum_impl@filesystem@std@@@std@@IEAAXAEAV12@@Z 0000000140044420 f i gui.obj
 0001:00043460       ?_Take_contents@?$basic_string@_WU?$char_traits@_W@std@@V?$allocator@_W@2@@std@@AEAAXAEAV12@U?$integral_constant@_N$00@2@@Z 0000000140044460 f i gui.obj
 0001:000434a0       ?_Throw_fs_error@filesystem@std@@YAXPEBDW4__std_win_error@@@Z 00000001400444a0 f i gui.obj
 0001:00043560       ?_Throw_fs_error@filesystem@std@@YAXPEBDW4__std_win_error@@AEBVpath@12@@Z 0000000140044560 f i gui.obj
 0001:00043610       ?_Throw_system_error@std@@YAXW4errc@1@@Z 0000000140044610 f i gui.obj
 0001:00043670       ?_Throw_system_error_from_std_win_error@filesystem@std@@YAXW4__std_win_error@@@Z 0000000140044670 f i gui.obj
 0001:000436d0       ?_Tidy@?$vector@U_Find_file_handle@filesystem@std@@V?$allocator@U_Find_file_handle@filesystem@std@@@3@@std@@AEAAXXZ 00000001400446d0 f i gui.obj
 0001:000437c0       ?_Tidy_deallocate@?$basic_string@_WU?$char_traits@_W@std@@V?$allocator@_W@2@@std@@AEAAXXZ 00000001400447c0 f i gui.obj
 0001:00043880       ?_Tidy_init@?$basic_string@_WU?$char_traits@_W@std@@V?$allocator@_W@2@@std@@AEAAXXZ 0000000140044880 f i gui.obj
 0001:000438d0       ?_Umove_if_noexcept1@?$vector@U_Find_file_handle@filesystem@std@@V?$allocator@U_Find_file_handle@filesystem@std@@@3@@std@@AEAAXPEAU_Find_file_handle@filesystem@2@00U?$integral_constant@_N$00@2@@Z 00000001400448d0 f i gui.obj
 0001:000438d0       ?_Umove@?$vector@U_Find_file_handle@filesystem@std@@V?$allocator@U_Find_file_handle@filesystem@std@@@3@@std@@AEAAPEAU_Find_file_handle@filesystem@2@PEAU342@00@Z 00000001400448d0 f i gui.obj
 0001:00043910       ?_Umove@?$vector@UobjFile@finnsie@@V?$allocator@UobjFile@finnsie@@@std@@@std@@AEAAPEAUobjFile@finnsie@@PEAU34@00@Z 0000000140044910 f i gui.obj
 0001:00043910       ?_Umove_if_noexcept1@?$vector@UobjFile@finnsie@@V?$allocator@UobjFile@finnsie@@@std@@@std@@AEAAXPEAUobjFile@finnsie@@00U?$integral_constant@_N$00@2@@Z 0000000140044910 f i gui.obj
 0001:00043950       ?_Umove_if_noexcept@?$vector@U_Find_file_handle@filesystem@std@@V?$allocator@U_Find_file_handle@filesystem@std@@@3@@std@@AEAAXPEAU_Find_file_handle@filesystem@2@00@Z 0000000140044950 f i gui.obj
 0001:000439b0       ?_Umove_if_noexcept@?$vector@UobjFile@finnsie@@V?$allocator@UobjFile@finnsie@@@std@@@std@@AEAAXPEAUobjFile@finnsie@@00@Z 00000001400449b0 f i gui.obj
 0001:00043a10       ?allocate@?$allocator@_W@std@@QEAAPEA_W_K@Z 0000000140044a10 f i gui.obj
 0001:00043a40       ?append@?$basic_string@DU?$char_traits@D@std@@V?$allocator@D@2@@std@@QEAAAEAV12@QEBD@Z 0000000140044a40 f i gui.obj
 0001:00043a80       ?append@?$basic_string@DU?$char_traits@D@std@@V?$allocator@D@2@@std@@QEAAAEAV12@_KD@Z 0000000140044a80 f i gui.obj
 0001:00043b80       ?append@?$basic_string@_WU?$char_traits@_W@std@@V?$allocator@_W@2@@std@@QEAAAEAV12@QEB_W_K@Z 0000000140044b80 f i gui.obj
 0001:00043c80       ?append@?$basic_string@_WU?$char_traits@_W@std@@V?$allocator@_W@2@@std@@QEAAAEAV12@_K_W@Z 0000000140044c80 f i gui.obj
 0001:00043d80       ?assign@?$_Narrow_char_traits@DH@std@@SAPEADQEAD_KD@Z 0000000140044d80 f i gui.obj
 0001:00043db0       ?assign@?$_WChar_traits@_W@std@@SAPEA_WQEA_W_K_W@Z 0000000140044db0 f i gui.obj
 0001:00043de0       ?assign@?$_WChar_traits@_W@std@@SAXAEA_WAEB_W@Z 0000000140044de0 f i gui.obj
 0001:00043e00       ?assign@?$basic_string@DU?$char_traits@D@std@@V?$allocator@D@2@@std@@QEAAAEAV12@_KD@Z 0000000140044e00 f i gui.obj
 0001:00043ec0       ?assign@?$basic_string@_WU?$char_traits@_W@std@@V?$allocator@_W@2@@std@@QEAAAEAV12@QEB_W_K@Z 0000000140044ec0 f i gui.obj
 0001:00043f80       ?back@?$vector@U_Find_file_handle@filesystem@std@@V?$allocator@U_Find_file_handle@filesystem@std@@@3@@std@@QEAAAEAU_Find_file_handle@filesystem@2@XZ 0000000140044f80 f i gui.obj
 0001:00043fb0       ?begin@?$basic_string@_WU?$char_traits@_W@std@@V?$allocator@_W@2@@std@@QEAA?AV?$_String_iterator@V?$_String_val@U?$_Simple_types@_W@std@@@std@@@2@XZ 0000000140044fb0 f i gui.obj
 0001:00044010       ?begin@?$basic_string@_WU?$char_traits@_W@std@@V?$allocator@_W@2@@std@@QEBA?AV?$_String_const_iterator@V?$_String_val@U?$_Simple_types@_W@std@@@std@@@2@XZ 0000000140045010 f i gui.obj
 0001:00044070       ?begin@filesystem@std@@YA?AVrecursive_directory_iterator@12@V312@@Z 0000000140045070 f i gui.obj
 0001:000440b0       ?data@?$basic_string@_WU?$char_traits@_W@std@@V?$allocator@_W@2@@std@@QEBAPEB_WXZ 00000001400450b0 f i gui.obj
 0001:000440b0       ?data@?$basic_string@_WU?$char_traits@_W@std@@V?$allocator@_W@2@@std@@QEAAPEA_WXZ 00000001400450b0 f i gui.obj
 0001:000440b0       ?c_str@?$basic_string@_WU?$char_traits@_W@std@@V?$allocator@_W@2@@std@@QEBAPEB_WXZ 00000001400450b0 f i gui.obj
 0001:000440d0       ?c_str@path@filesystem@std@@QEBAPEB_WXZ 00000001400450d0 f i gui.obj
 0001:000440f0       ?size@?$basic_string_view@DU?$char_traits@D@std@@@std@@QEBA_KXZ 00000001400450f0 f i gui.obj
 0001:000440f0       ?begin@?$ImVector@D@@QEAAPEADXZ 00000001400450f0 f i imgui_demo.obj
 0001:000440f0       ?begin@?$ImVector@I@@QEBAPEBIXZ 00000001400450f0 f i imgui_draw.obj
 0001:000440f0       ?category@error_condition@std@@QEBAAEBVerror_category@2@XZ 00000001400450f0 f i gui.obj
 0001:000440f0       ?size@?$basic_string_view@_WU?$char_traits@_W@std@@@std@@QEBA_KXZ 00000001400450f0 f i gui.obj
 0001:000440f0       ?begin@?$ImVector@PEAD@@QEAAPEAPEADXZ 00000001400450f0 f i imgui_demo.obj
 0001:000440f0       ?begin@?$ImVector@UImDrawCmd@@@@QEAAPEAUImDrawCmd@@XZ 00000001400450f0 f i imgui.obj
 0001:000440f0       ?category@error_code@std@@QEBAAEBVerror_category@2@XZ 00000001400450f0 f i gui.obj
 0001:00044100       ?compare@?$_WChar_traits@_W@std@@SAHQEB_W0_K@Z 0000000140045100 f i gui.obj
 0001:000441b0       ?compare@path@filesystem@std@@QEBAHAEBV123@@Z 00000001400451b0 f i gui.obj
 0001:00044210       ?compare@path@filesystem@std@@QEBAHV?$basic_string_view@_WU?$char_traits@_W@std@@@3@@Z 0000000140045210 f i gui.obj
 0001:000444f0       ?copy@?$_WChar_traits@_W@std@@SAPEA_WQEA_WQEB_W_K@Z 00000001400454f0 f i gui.obj
 0001:00044520       ?deallocate@?$allocator@_W@std@@QEAAXQEA_W_K@Z 0000000140045520 f i gui.obj
 0001:00044550       ?default_error_condition@_System_error_category@std@@UEBA?AVerror_condition@2@H@Z 0000000140045550 f i gui.obj
 0001:000445c0       ?default_error_condition@error_category@std@@UEBA?AVerror_condition@2@H@Z 00000001400455c0 f i gui.obj
 0001:000445f0       ?empty@?$basic_string@DU?$char_traits@D@std@@V?$allocator@D@2@@std@@QEBA_NXZ 00000001400455f0 f i gui.obj
 0001:00044630       ?empty@?$basic_string_view@DU?$char_traits@D@std@@@std@@QEBA_NXZ 0000000140045630 f i gui.obj
 0001:00044630       ?empty@?$basic_string_view@_WU?$char_traits@_W@std@@@std@@QEBA_NXZ 0000000140045630 f i gui.obj
 0001:00044660       ?empty@?$vector@U_Find_file_handle@filesystem@std@@V?$allocator@U_Find_file_handle@filesystem@std@@@3@@std@@QEBA_NXZ 0000000140045660 f i gui.obj
 0001:00044660       ?empty@?$vector@PEAVGameObject@finnsie@@V?$allocator@PEAVGameObject@finnsie@@@std@@@std@@QEBA_NXZ 0000000140045660 f i gui.obj
 0001:000446a0       ?end@?$basic_string@_WU?$char_traits@_W@std@@V?$allocator@_W@2@@std@@QEBA?AV?$_String_const_iterator@V?$_String_val@U?$_Simple_types@_W@std@@@std@@@2@XZ 00000001400456a0 f i gui.obj
 0001:00044710       ?end@filesystem@std@@YA?AVrecursive_directory_iterator@12@V312@@Z 0000000140045710 f i gui.obj
 0001:00044750       ?equivalent@error_category@std@@UEBA_NAEBVerror_code@2@H@Z 0000000140045750 f i gui.obj
 0001:000447b0       ?equivalent@error_category@std@@UEBA_NHAEBVerror_condition@2@@Z 00000001400457b0 f i gui.obj
 0001:00044800       ?erase@?$basic_string@_WU?$char_traits@_W@std@@V?$allocator@_W@2@@std@@QEAAAEAV12@_K@Z 0000000140045800 f i gui.obj
 0001:00044840       ?extension@path@filesystem@std@@QEBA?AV123@XZ 0000000140045840 f i gui.obj
 0001:000448d0       ?filename@path@filesystem@std@@QEBA?AV123@XZ 00000001400458d0 f i gui.obj
 0001:00044960       ?generic_category@std@@YAAEBVerror_category@1@XZ 0000000140045960 f i gui.obj
 0001:00044970       ?generic_string@path@filesystem@std@@QEBA?AV?$basic_string@DU?$char_traits@D@std@@V?$allocator@D@2@@3@XZ 0000000140045970 f i gui.obj
 0001:000449c0       ?is_absolute@path@filesystem@std@@QEBA_NXZ 00000001400459c0 f i gui.obj
 0001:00044aa0       ?length@?$_WChar_traits@_W@std@@SA_KPEB_W@Z 0000000140045aa0 f i gui.obj
 0001:00044ae0       ?make_error_code@std@@YA?AVerror_code@1@W4errc@1@@Z 0000000140045ae0 f i gui.obj
 0001:00044b10       ?max_size@?$_Default_allocator_traits@V?$allocator@_W@std@@@std@@SA_KAEBV?$allocator@_W@2@@Z 0000000140045b10 f i gui.obj
 0001:00044b20       ?max_size@?$basic_string@_WU?$char_traits@_W@std@@V?$allocator@_W@2@@std@@QEBA_KXZ 0000000140045b20 f i gui.obj
 0001:00044b90       ?message@_Generic_error_category@std@@UEBA?AV?$basic_string@DU?$char_traits@D@std@@V?$allocator@D@2@@2@H@Z 0000000140045b90 f i gui.obj
 0001:00044be0       ?message@_System_error_category@std@@UEBA?AV?$basic_string@DU?$char_traits@D@std@@V?$allocator@D@2@@2@H@Z 0000000140045be0 f i gui.obj
 0001:00044cc0       ?message@error_code@std@@QEBA?AV?$basic_string@DU?$char_traits@D@std@@V?$allocator@D@2@@2@XZ 0000000140045cc0 f i gui.obj
 0001:00044d30       ?move@?$_WChar_traits@_W@std@@SAPEA_WQEA_WQEB_W_K@Z 0000000140045d30 f i gui.obj
 0001:00044d60       ?name@_Generic_error_category@std@@UEBAPEBDXZ 0000000140045d60 f i gui.obj
 0001:00044d70       ?name@_System_error_category@std@@UEBAPEBDXZ 0000000140045d70 f i gui.obj
 0001:00044d80       ?path@directory_entry@filesystem@std@@QEBAAEBV023@XZ 0000000140045d80 f i gui.obj
 0001:00044d80       ?GetName@ImGuiWindowSettings@@QEAAPEADXZ 0000000140045d80 f i imgui.obj
 0001:00044d90       ?pop_back@?$vector@U_Find_file_handle@filesystem@std@@V?$allocator@U_Find_file_handle@filesystem@std@@@3@@std@@QEAAXXZ 0000000140045d90 f i gui.obj
 0001:00044e10       ?push_back@?$basic_string@_WU?$char_traits@_W@std@@V?$allocator@_W@2@@std@@QEAAX_W@Z 0000000140045e10 f i gui.obj
 0001:00044ee0       ?push_back@?$vector@U_Find_file_handle@filesystem@std@@V?$allocator@U_Find_file_handle@filesystem@std@@@3@@std@@QEAAX$$QEAU_Find_file_handle@filesystem@2@@Z 0000000140045ee0 f i gui.obj
 0001:00044f10       ?push_back@?$vector@UobjFile@finnsie@@V?$allocator@UobjFile@finnsie@@@std@@@std@@QEAAXAEBUobjFile@finnsie@@@Z 0000000140045f10 f i gui.obj
 0001:00044f40       ?remove_filename@path@filesystem@std@@QEAAAEAV123@XZ 0000000140045f40 f i gui.obj
 0001:00044fd0       ?replace_filename@path@filesystem@std@@QEAAAEAV123@AEBV123@@Z 0000000140045fd0 f i gui.obj
 0001:00045000       ?reset@?$shared_ptr@U_Recursive_dir_enum_impl@filesystem@std@@@std@@QEAAXXZ 0000000140046000 f i gui.obj
 0001:00045040       ?resize@?$basic_string@DU?$char_traits@D@std@@V?$allocator@D@2@@std@@QEAAX_KD@Z 0000000140046040 f i gui.obj
 0001:000450b0       ?resize@?$basic_string@_WU?$char_traits@_W@std@@V?$allocator@_W@2@@std@@QEAAX_K_W@Z 00000001400460b0 f i gui.obj
 0001:00045120       ?shrink_to_fit@?$basic_string@DU?$char_traits@D@std@@V?$allocator@D@2@@std@@QEAAXXZ 0000000140046120 f i gui.obj
 0001:00045280       ?string@path@filesystem@std@@QEBA?AV?$basic_string@DU?$char_traits@D@std@@V?$allocator@D@2@@3@XZ 0000000140046280 f i gui.obj
 0001:000452d0       ?swap@?$shared_ptr@U_Recursive_dir_enum_impl@filesystem@std@@@std@@QEAAXAEAV12@@Z 00000001400462d0 f i gui.obj
 0001:00045300       ?system_category@std@@YAAEBVerror_category@1@XZ 0000000140046300 f i gui.obj
 0001:00045310       ?value@error_code@std@@QEBAHXZ 0000000140046310 f i gui.obj
 0001:00045310       ?size@?$ImChunkStream@UImGuiWindowSettings@@@@QEBAHXZ 0000000140046310 f i imgui.obj
 0001:00045310       ?size@?$ImVector@D@@QEBAHXZ 0000000140046310 f i imgui_demo.obj
 0001:00045310       ?value@error_condition@std@@QEBAHXZ 0000000140046310 f i gui.obj
 0001:00045310       ?GetSize@?$ImPool@UImGuiTabBar@@@@QEBAHXZ 0000000140046310 f i imgui.obj
 0001:00045310       ?size@?$ImVector@PEAUImFont@@@@QEBAHXZ 0000000140046310 f i imgui_draw.obj
 0001:00045320       ?what@filesystem_error@filesystem@std@@UEBAPEBDXZ 0000000140046320 f i gui.obj
 0001:00045340       _vsprintf_s_l              0000000140046340 f i gui.obj
 0001:000453b0       vsprintf_s                 00000001400463b0 f i gui.obj
 0001:000453f0       wmemcpy                    00000001400463f0 f i gui.obj
 0001:00045420       wmemmove                   0000000140046420 f i gui.obj
 0001:00045460       wmemset                    0000000140046460 f i gui.obj
 0001:000454c0       ?GetViewMatrix@Camera@finnsie@@QEAA?AU?$mat@$03$03M$0A@@glm@@XZ 00000001400464c0 f   camera.obj
 0001:00045530       ?ProcessKeyboard@Camera@finnsie@@QEAAXW4Camera_Movement@2@M@Z 0000000140046530 f   camera.obj
 0001:00045690       ?ProcessMouseMovement@Camera@finnsie@@QEAAXMME@Z 0000000140046690 f   camera.obj
 0001:00045780       ?ProcessMouseScroll@Camera@finnsie@@QEAAXM@Z 0000000140046780 f   camera.obj
 0001:000457c0       ?updateCameraVectors@Camera@finnsie@@AEAAXXZ 00000001400467c0 f   camera.obj
 0001:00045940       ??$?GM$0A@@glm@@YA?AU?$vec@$02M$0A@@0@AEBU10@0@Z 0000000140046940 f i camera.obj
 0001:000459c0       ??$?HM$0A@@glm@@YA?AU?$vec@$02M$0A@@0@AEBU10@0@Z 00000001400469c0 f i camera.obj
 0001:00045a40       ??$?YM@?$vec@$02M$0A@@glm@@QEAAAEAU01@AEBU01@@Z 0000000140046a40 f i camera.obj
 0001:00045ab0       ??$?ZM@?$vec@$02M$0A@@glm@@QEAAAEAU01@AEBU01@@Z 0000000140046ab0 f i camera.obj
 0001:00045b20       ??$cross@M$0A@@glm@@YA?AU?$vec@$02M$0A@@0@AEBU10@0@Z 0000000140046b20 f i camera.obj
 0001:00045b60       ??$lookAt@M$0A@@glm@@YA?AU?$mat@$03$03M$0A@@0@AEBU?$vec@$02M$0A@@0@00@Z 0000000140046b60 f i camera.obj
 0001:00045ba0       ??$lookAtRH@M$0A@@glm@@YA?AU?$mat@$03$03M$0A@@0@AEBU?$vec@$02M$0A@@0@00@Z 0000000140046ba0 f i camera.obj
 0001:00045f90       ?call@?$compute_cross@M$0A@$0A@@detail@glm@@SA?AU?$vec@$02M$0A@@3@AEBU43@0@Z 0000000140046f90 f i camera.obj
 0001:00046050       ?CreateContext@ImGui@@YAPEAUImGuiContext@@PEAUImFontAtlas@@@Z 0000000140047050 f   imgui.obj
 0001:00046100       ?DestroyContext@ImGui@@YAXPEAUImGuiContext@@@Z 0000000140047100 f   imgui.obj
 0001:00046160       ?GetCurrentContext@ImGui@@YAPEAUImGuiContext@@XZ 0000000140047160 f   imgui.obj
 0001:00046170       ?SetCurrentContext@ImGui@@YAXPEAUImGuiContext@@@Z 0000000140047170 f   imgui.obj
 0001:00046190       ?DebugCheckVersionAndDataLayout@ImGui@@YA_NPEBD_K11111@Z 0000000140047190 f   imgui.obj
 0001:000463e0       ?GetIO@ImGui@@YAAEAUImGuiIO@@XZ 00000001400473e0 f   imgui.obj
 0001:00046430       ?GetStyle@ImGui@@YAAEAUImGuiStyle@@XZ 0000000140047430 f   imgui.obj
 0001:00046480       ?NewFrame@ImGui@@YAXXZ     0000000140047480 f   imgui.obj
 0001:000470d0       ?EndFrame@ImGui@@YAXXZ     00000001400480d0 f   imgui.obj
 0001:00047570       ?Render@ImGui@@YAXXZ       0000000140048570 f   imgui.obj
 0001:00047c90       ?GetDrawData@ImGui@@YAPEAUImDrawData@@XZ 0000000140048c90 f   imgui.obj
 0001:00047d10       ?ShowMetricsWindow@ImGui@@YAXPEA_N@Z 0000000140048d10 f   imgui.obj
 0001:00049970       ?GetVersion@ImGui@@YAPEBDXZ 000000014004a970 f   imgui.obj
 0001:00049980       ?Begin@ImGui@@YA_NPEBDPEA_NH@Z 000000014004a980 f   imgui.obj
 0001:0004dc40       ?End@ImGui@@YAXXZ          000000014004ec40 f   imgui.obj
 0001:0004def0       ?BeginChild@ImGui@@YA_NPEBDAEBUImVec2@@_NH@Z 000000014004eef0 f   imgui.obj
 0001:0004df50       ?BeginChild@ImGui@@YA_NIAEBUImVec2@@_NH@Z 000000014004ef50 f   imgui.obj
 0001:0004dfc0       ?EndChild@ImGui@@YAXXZ     000000014004efc0 f   imgui.obj
 0001:0004e2a0       ?IsWindowAppearing@ImGui@@YA_NXZ 000000014004f2a0 f   imgui.obj
 0001:0004e2d0       ?IsWindowCollapsed@ImGui@@YA_NXZ 000000014004f2d0 f   imgui.obj
 0001:0004e300       ?IsWindowFocused@ImGui@@YA_NH@Z 000000014004f300 f   imgui.obj
 0001:0004e4c0       ?IsWindowHovered@ImGui@@YA_NH@Z 000000014004f4c0 f   imgui.obj
 0001:0004e690       ?GetWindowDrawList@ImGui@@YAPEAUImDrawList@@XZ 000000014004f690 f   imgui.obj
 0001:0004e6c0       ?GetWindowDpiScale@ImGui@@YAMXZ 000000014004f6c0 f   imgui.obj
 0001:0004e6f0       ?GetWindowViewport@ImGui@@YAPEAUImGuiViewport@@XZ 000000014004f6f0 f   imgui.obj
 0001:0004e760       ?GetWindowPos@ImGui@@YA?AUImVec2@@XZ 000000014004f760 f   imgui.obj
 0001:0004e7b0       ?GetWindowSize@ImGui@@YA?AUImVec2@@XZ 000000014004f7b0 f   imgui.obj
 0001:0004e7f0       ?GetWindowWidth@ImGui@@YAMXZ 000000014004f7f0 f   imgui.obj
 0001:0004e820       ?GetWindowHeight@ImGui@@YAMXZ 000000014004f820 f   imgui.obj
 0001:0004e850       ?SetNextWindowPos@ImGui@@YAXAEBUImVec2@@H0@Z 000000014004f850 f   imgui.obj
 0001:0004e930       ?SetNextWindowSize@ImGui@@YAXAEBUImVec2@@H@Z 000000014004f930 f   imgui.obj
 0001:0004e9e0       ?SetNextWindowSizeConstraints@ImGui@@YAXAEBUImVec2@@0P6AXPEAUImGuiSizeCallbackData@@@ZPEAX@Z 000000014004f9e0 f   imgui.obj
 0001:0004ea80       ?SetNextWindowContentSize@ImGui@@YAXAEBUImVec2@@@Z 000000014004fa80 f   imgui.obj
 0001:0004ead0       ?SetNextWindowCollapsed@ImGui@@YAX_NH@Z 000000014004fad0 f   imgui.obj
 0001:0004eb80       ?SetNextWindowFocus@ImGui@@YAXXZ 000000014004fb80 f   imgui.obj
 0001:0004ebc0       ?SetNextWindowBgAlpha@ImGui@@YAXM@Z 000000014004fbc0 f   imgui.obj
 0001:0004ec10       ?SetNextWindowViewport@ImGui@@YAXI@Z 000000014004fc10 f   imgui.obj
 0001:0004ec60       ?SetWindowPos@ImGui@@YAXAEBUImVec2@@H@Z 000000014004fc60 f   imgui.obj
 0001:0004eca0       ?SetWindowSize@ImGui@@YAXAEBUImVec2@@H@Z 000000014004fca0 f   imgui.obj
 0001:0004ece0       ?SetWindowCollapsed@ImGui@@YAX_NH@Z 000000014004fce0 f   imgui.obj
 0001:0004ed20       ?SetWindowFocus@ImGui@@YAXXZ 000000014004fd20 f   imgui.obj
 0001:0004ed50       ?SetWindowFontScale@ImGui@@YAXM@Z 000000014004fd50 f   imgui.obj
 0001:0004edd0       ?SetWindowPos@ImGui@@YAXPEBDAEBUImVec2@@H@Z 000000014004fdd0 f   imgui.obj
 0001:0004ee20       ?SetWindowSize@ImGui@@YAXPEBDAEBUImVec2@@H@Z 000000014004fe20 f   imgui.obj
 0001:0004ee70       ?SetWindowCollapsed@ImGui@@YAXPEBD_NH@Z 000000014004fe70 f   imgui.obj
 0001:0004eec0       ?SetWindowFocus@ImGui@@YAXPEBD@Z 000000014004fec0 f   imgui.obj
 0001:0004ef10       ?GetContentRegionMax@ImGui@@YA?AUImVec2@@XZ 000000014004ff10 f   imgui.obj
 0001:0004efb0       ?GetContentRegionAvail@ImGui@@YA?AUImVec2@@XZ 000000014004ffb0 f   imgui.obj
 0001:0004f010       ?GetWindowContentRegionMin@ImGui@@YA?AUImVec2@@XZ 0000000140050010 f   imgui.obj
 0001:0004f070       ?GetWindowContentRegionMax@ImGui@@YA?AUImVec2@@XZ 0000000140050070 f   imgui.obj
 0001:0004f0d0       ?GetWindowContentRegionWidth@ImGui@@YAMXZ 00000001400500d0 f   imgui.obj
 0001:0004f110       ?GetScrollX@ImGui@@YAMXZ   0000000140050110 f   imgui.obj
 0001:0004f140       ?GetScrollY@ImGui@@YAMXZ   0000000140050140 f   imgui.obj
 0001:0004f170       ?GetScrollMaxX@ImGui@@YAMXZ 0000000140050170 f   imgui.obj
 0001:0004f1a0       ?GetScrollMaxY@ImGui@@YAMXZ 00000001400501a0 f   imgui.obj
 0001:0004f1d0       ?SetScrollX@ImGui@@YAXM@Z  00000001400501d0 f   imgui.obj
 0001:0004f220       ?SetScrollY@ImGui@@YAXM@Z  0000000140050220 f   imgui.obj
 0001:0004f270       ?SetScrollHereX@ImGui@@YAXM@Z 0000000140050270 f   imgui.obj
 0001:0004f340       ?SetScrollHereY@ImGui@@YAXM@Z 0000000140050340 f   imgui.obj
 0001:0004f400       ?SetScrollFromPosX@ImGui@@YAXMM@Z 0000000140050400 f   imgui.obj
 0001:0004f450       ?SetScrollFromPosY@ImGui@@YAXMM@Z 0000000140050450 f   imgui.obj
 0001:0004f4a0       ?PushFont@ImGui@@YAXPEAUImFont@@@Z 00000001400504a0 f   imgui.obj
 0001:0004f530       ?PopFont@ImGui@@YAXXZ      0000000140050530 f   imgui.obj
 0001:0004f5d0       ?PushStyleColor@ImGui@@YAXHI@Z 00000001400505d0 f   imgui.obj
 0001:0004f690       ?PushStyleColor@ImGui@@YAXHAEBUImVec4@@@Z 0000000140050690 f   imgui.obj
 0001:0004f730       ?PopStyleColor@ImGui@@YAXH@Z 0000000140050730 f   imgui.obj
 0001:0004f7c0       ?PushStyleVar@ImGui@@YAXHM@Z 00000001400507c0 f   imgui.obj
 0001:0004f890       ?PushStyleVar@ImGui@@YAXHAEBUImVec2@@@Z 0000000140050890 f   imgui.obj
 0001:0004f960       ?PopStyleVar@ImGui@@YAXH@Z 0000000140050960 f   imgui.obj
 0001:0004faa0       ?GetStyleColorVec4@ImGui@@YAAEBUImVec4@@H@Z 0000000140050aa0 f   imgui.obj
 0001:0004fae0       ?GetFont@ImGui@@YAPEAUImFont@@XZ 0000000140050ae0 f   imgui.obj
 0001:0004fb00       ?GetFontSize@ImGui@@YAMXZ  0000000140050b00 f   imgui.obj
 0001:0004fb20       ?GetFontTexUvWhitePixel@ImGui@@YA?AUImVec2@@XZ 0000000140050b20 f   imgui.obj
 0001:0004fb50       ?GetColorU32@ImGui@@YAIHM@Z 0000000140050b50 f   imgui.obj
 0001:0004fbd0       ?GetColorU32@ImGui@@YAIAEBUImVec4@@@Z 0000000140050bd0 f   imgui.obj
 0001:0004fc30       ?GetColorU32@ImGui@@YAII@Z 0000000140050c30 f   imgui.obj
 0001:0004fcb0       ?PushItemWidth@ImGui@@YAXM@Z 0000000140050cb0 f   imgui.obj
 0001:0004fd70       ?PopItemWidth@ImGui@@YAXXZ 0000000140050d70 f   imgui.obj
 0001:0004fe00       ?SetNextItemWidth@ImGui@@YAXM@Z 0000000140050e00 f   imgui.obj
 0001:0004fe50       ?CalcItemWidth@ImGui@@YAMXZ 0000000140050e50 f   imgui.obj
 0001:0004ff20       ?PushTextWrapPos@ImGui@@YAXM@Z 0000000140050f20 f   imgui.obj
 0001:0004ff80       ?PopTextWrapPos@ImGui@@YAXXZ 0000000140050f80 f   imgui.obj
 0001:00050010       ?PushAllowKeyboardFocus@ImGui@@YAX_N@Z 0000000140051010 f   imgui.obj
 0001:00050050       ?PopAllowKeyboardFocus@ImGui@@YAXXZ 0000000140051050 f   imgui.obj
 0001:00050070       ?PushButtonRepeat@ImGui@@YAX_N@Z 0000000140051070 f   imgui.obj
 0001:000500a0       ?PopButtonRepeat@ImGui@@YAXXZ 00000001400510a0 f   imgui.obj
 0001:000500c0       ?SameLine@ImGui@@YAXMM@Z   00000001400510c0 f   imgui.obj
 0001:00050220       ?Indent@ImGui@@YAXM@Z      0000000140051220 f   imgui.obj
 0001:000502d0       ?Unindent@ImGui@@YAXM@Z    00000001400512d0 f   imgui.obj
 0001:00050380       ?BeginGroup@ImGui@@YAXXZ   0000000140051380 f   imgui.obj
 0001:00050540       ?EndGroup@ImGui@@YAXXZ     0000000140051540 f   imgui.obj
 0001:000508a0       ?GetCursorPos@ImGui@@YA?AUImVec2@@XZ 00000001400518a0 f   imgui.obj
 0001:00050910       ?GetCursorPosX@ImGui@@YAMXZ 0000000140051910 f   imgui.obj
 0001:00050950       ?GetCursorPosY@ImGui@@YAMXZ 0000000140051950 f   imgui.obj
 0001:00050990       ?SetCursorPos@ImGui@@YAXAEBUImVec2@@@Z 0000000140051990 f   imgui.obj
 0001:00050a30       ?SetCursorPosX@ImGui@@YAXM@Z 0000000140051a30 f   imgui.obj
 0001:00050ab0       ?SetCursorPosY@ImGui@@YAXM@Z 0000000140051ab0 f   imgui.obj
 0001:00050b30       ?GetCursorStartPos@ImGui@@YA?AUImVec2@@XZ 0000000140051b30 f   imgui.obj
 0001:00050b80       ?GetCursorScreenPos@ImGui@@YA?AUImVec2@@XZ 0000000140051b80 f   imgui.obj
 0001:00050bc0       ?SetCursorScreenPos@ImGui@@YAXAEBUImVec2@@@Z 0000000140051bc0 f   imgui.obj
 0001:00050c30       ?GetTextLineHeight@ImGui@@YAMXZ 0000000140051c30 f   imgui.obj
 0001:00050c60       ?GetTextLineHeightWithSpacing@ImGui@@YAMXZ 0000000140051c60 f   imgui.obj
 0001:00050ca0       ?GetFrameHeight@ImGui@@YAMXZ 0000000140051ca0 f   imgui.obj
 0001:00050cf0       ?GetFrameHeightWithSpacing@ImGui@@YAMXZ 0000000140051cf0 f   imgui.obj
 0001:00050d40       ?PushID@ImGui@@YAXPEBD@Z   0000000140051d40 f   imgui.obj
 0001:00050da0       ?PushID@ImGui@@YAXPEBD0@Z  0000000140051da0 f   imgui.obj
 0001:00050e10       ?PushID@ImGui@@YAXPEBX@Z   0000000140051e10 f   imgui.obj
 0001:00050e70       ?PushID@ImGui@@YAXH@Z      0000000140051e70 f   imgui.obj
 0001:00050ed0       ?PopID@ImGui@@YAXXZ        0000000140051ed0 f   imgui.obj
 0001:00050f10       ?GetID@ImGui@@YAIPEBD@Z    0000000140051f10 f   imgui.obj
 0001:00050f50       ?GetID@ImGui@@YAIPEBD0@Z   0000000140051f50 f   imgui.obj
 0001:00050f90       ?GetID@ImGui@@YAIPEBX@Z    0000000140051f90 f   imgui.obj
 0001:00050fd0       ?BeginTooltip@ImGui@@YAXXZ 0000000140051fd0 f   imgui.obj
 0001:00050ff0       ?EndTooltip@ImGui@@YAXXZ   0000000140051ff0 f   imgui.obj
 0001:00051040       ?SetTooltip@ImGui@@YAXPEBDZZ 0000000140052040 f   imgui.obj
 0001:00051090       ?SetTooltipV@ImGui@@YAXPEBDPEAD@Z 0000000140052090 f   imgui.obj
 0001:000510d0       ?OpenPopup@ImGui@@YAXPEBD@Z 00000001400520d0 f   imgui.obj
 0001:00051120       ?BeginPopup@ImGui@@YA_NPEBDH@Z 0000000140052120 f   imgui.obj
 0001:000511b0       ?BeginPopupContextItem@ImGui@@YA_NPEBDH@Z 00000001400521b0 f   imgui.obj
 0001:00051290       ?BeginPopupContextWindow@ImGui@@YA_NPEBDH_N@Z 0000000140052290 f   imgui.obj
 0001:00051340       ?BeginPopupContextVoid@ImGui@@YA_NPEBDH@Z 0000000140052340 f   imgui.obj
 0001:000513d0       ?BeginPopupModal@ImGui@@YA_NPEBDPEA_NH@Z 00000001400523d0 f   imgui.obj
 0001:00051580       ?EndPopup@ImGui@@YAXXZ     0000000140052580 f   imgui.obj
 0001:00051670       ?OpenPopupOnItemClick@ImGui@@YA_NPEBDH@Z 0000000140052670 f   imgui.obj
 0001:00051730       ?IsPopupOpen@ImGui@@YA_NPEBD@Z 0000000140052730 f   imgui.obj
 0001:000517e0       ?CloseCurrentPopup@ImGui@@YAXXZ 00000001400527e0 f   imgui.obj
 0001:00051960       ?DockSpace@ImGui@@YAXIAEBUImVec2@@HPEBUImGuiWindowClass@@@Z 0000000140052960 f   imgui.obj
 0001:00051e60       ?DockSpaceOverViewport@ImGui@@YAIPEAUImGuiViewport@@HPEBUImGuiWindowClass@@@Z 0000000140052e60 f   imgui.obj
 0001:00052020       ?SetNextWindowDockID@ImGui@@YAXIH@Z 0000000140053020 f   imgui.obj
 0001:000520a0       ?SetNextWindowClass@ImGui@@YAXPEBUImGuiWindowClass@@@Z 00000001400530a0 f   imgui.obj
 0001:00052130       ?GetWindowDockID@ImGui@@YAIXZ 0000000140053130 f   imgui.obj
 0001:00052160       ?IsWindowDocked@ImGui@@YA_NXZ 0000000140053160 f   imgui.obj
 0001:00052190       ?LogToTTY@ImGui@@YAXH@Z    0000000140053190 f   imgui.obj
 0001:000521f0       ?LogToFile@ImGui@@YAXHPEBD@Z 00000001400531f0 f   imgui.obj
 0001:000522c0       ?LogToClipboard@ImGui@@YAXH@Z 00000001400532c0 f   imgui.obj
 0001:00052300       ?LogFinish@ImGui@@YAXXZ    0000000140053300 f   imgui.obj
 0001:00052430       ?LogButtons@ImGui@@YAXXZ   0000000140053430 f   imgui.obj
 0001:00052580       ?LogText@ImGui@@YAXPEBDZZ  0000000140053580 f   imgui.obj
 0001:000526b0       ?BeginDragDropSource@ImGui@@YA_NH@Z 00000001400536b0 f   imgui.obj
 0001:00052a70       ?SetDragDropPayload@ImGui@@YA_NPEBDPEBX_KH@Z 0000000140053a70 f   imgui.obj
 0001:00052d70       ?EndDragDropSource@ImGui@@YAXXZ 0000000140053d70 f   imgui.obj
 0001:00052e30       ?BeginDragDropTarget@ImGui@@YA_NXZ 0000000140053e30 f   imgui.obj
 0001:00052fb0       ?AcceptDragDropPayload@ImGui@@YAPEBUImGuiPayload@@PEBDH@Z 0000000140053fb0 f   imgui.obj
 0001:000533d0       ?EndDragDropTarget@ImGui@@YAXXZ 00000001400543d0 f   imgui.obj
 0001:00053450       ?GetDragDropPayload@ImGui@@YAPEBUImGuiPayload@@XZ 0000000140054450 f   imgui.obj
 0001:000534a0       ?PushClipRect@ImGui@@YAXAEBUImVec2@@0_N@Z 00000001400544a0 f   imgui.obj
 0001:00053540       ?PopClipRect@ImGui@@YAXXZ  0000000140054540 f   imgui.obj
 0001:000535b0       ?SetItemDefaultFocus@ImGui@@YAXXZ 00000001400545b0 f   imgui.obj
 0001:00053740       ?SetKeyboardFocusHere@ImGui@@YAXH@Z 0000000140054740 f   imgui.obj
 0001:000537e0       ?IsItemHovered@ImGui@@YA_NH@Z 00000001400547e0 f   imgui.obj
 0001:00053990       ?IsItemActive@ImGui@@YA_NXZ 0000000140054990 f   imgui.obj
 0001:00053a00       ?IsItemFocused@ImGui@@YA_NXZ 0000000140054a00 f   imgui.obj
 0001:00053a90       ?IsItemClicked@ImGui@@YA_NH@Z 0000000140054a90 f   imgui.obj
 0001:00053ae0       ?IsItemVisible@ImGui@@YA_NXZ 0000000140054ae0 f   imgui.obj
 0001:00053b30       ?IsItemEdited@ImGui@@YA_NXZ 0000000140054b30 f   imgui.obj
 0001:00053b80       ?IsItemActivated@ImGui@@YA_NXZ 0000000140054b80 f   imgui.obj
 0001:00053bf0       ?IsItemDeactivated@ImGui@@YA_NXZ 0000000140054bf0 f   imgui.obj
 0001:00053cb0       ?IsItemDeactivatedAfterEdit@ImGui@@YA_NXZ 0000000140054cb0 f   imgui.obj
 0001:00053d20       ?IsItemToggledOpen@ImGui@@YA_NXZ 0000000140054d20 f   imgui.obj
 0001:00053d70       ?IsAnyItemHovered@ImGui@@YA_NXZ 0000000140054d70 f   imgui.obj
 0001:00053dc0       ?IsAnyItemActive@ImGui@@YA_NXZ 0000000140054dc0 f   imgui.obj
 0001:00053e00       ?IsAnyItemFocused@ImGui@@YA_NXZ 0000000140054e00 f   imgui.obj
 0001:00053e50       ?GetItemRectMin@ImGui@@YA?AUImVec2@@XZ 0000000140054e50 f   imgui.obj
 0001:00053e90       ?GetItemRectMax@ImGui@@YA?AUImVec2@@XZ 0000000140054e90 f   imgui.obj
 0001:00053ed0       ?GetItemRectSize@ImGui@@YA?AUImVec2@@XZ 0000000140054ed0 f   imgui.obj
 0001:00053f20       ?SetItemAllowOverlap@ImGui@@YAXXZ 0000000140054f20 f   imgui.obj
 0001:00053f90       ?IsRectVisible@ImGui@@YA_NAEBUImVec2@@@Z 0000000140054f90 f   imgui.obj
 0001:00054010       ?IsRectVisible@ImGui@@YA_NAEBUImVec2@@0@Z 0000000140055010 f   imgui.obj
 0001:00054070       ?GetTime@ImGui@@YANXZ      0000000140055070 f   imgui.obj
 0001:00054090       ?GetFrameCount@ImGui@@YAHXZ 0000000140055090 f   imgui.obj
 0001:000540b0       ?GetBackgroundDrawList@ImGui@@YAPEAUImDrawList@@XZ 00000001400550b0 f   imgui.obj
 0001:000540e0       ?GetForegroundDrawList@ImGui@@YAPEAUImDrawList@@XZ 00000001400550e0 f   imgui.obj
 0001:00054110       ?GetBackgroundDrawList@ImGui@@YAPEAUImDrawList@@PEAUImGuiViewport@@@Z 0000000140055110 f   imgui.obj
 0001:00054140       ?GetForegroundDrawList@ImGui@@YAPEAUImDrawList@@PEAUImGuiViewport@@@Z 0000000140055140 f   imgui.obj
 0001:00054170       ?GetDrawListSharedData@ImGui@@YAPEAUImDrawListSharedData@@XZ 0000000140055170 f   imgui.obj
 0001:00054190       ?GetStyleColorName@ImGui@@YAPEBDH@Z 0000000140055190 f   imgui.obj
 0001:00054500       ?SetStateStorage@ImGui@@YAXPEAUImGuiStorage@@@Z 0000000140055500 f   imgui.obj
 0001:00054560       ?GetStateStorage@ImGui@@YAPEAUImGuiStorage@@XZ 0000000140055560 f   imgui.obj
 0001:00054590       ?CalcListClipping@ImGui@@YAXHMPEAH0@Z 0000000140055590 f   imgui.obj
 0001:00054760       ?BeginChildFrame@ImGui@@YA_NIAEBUImVec2@@H@Z 0000000140055760 f   imgui.obj
 0001:00054840       ?EndChildFrame@ImGui@@YAXXZ 0000000140055840 f   imgui.obj
 0001:00054860       ?CalcTextSize@ImGui@@YA?AUImVec2@@PEBD0_NM@Z 0000000140055860 f   imgui.obj
 0001:000549a0       ?ColorConvertU32ToFloat4@ImGui@@YA?AUImVec4@@I@Z 00000001400559a0 f   imgui.obj
 0001:00054a50       ?ColorConvertFloat4ToU32@ImGui@@YAIAEBUImVec4@@@Z 0000000140055a50 f   imgui.obj
 0001:00054b30       ?ColorConvertRGBtoHSV@ImGui@@YAXMMMAEAM00@Z 0000000140055b30 f   imgui.obj
 0001:00054c70       ?ColorConvertHSVtoRGB@ImGui@@YAXMMMAEAM00@Z 0000000140055c70 f   imgui.obj
 0001:00054f10       ?GetKeyIndex@ImGui@@YAHH@Z 0000000140055f10 f   imgui.obj
 0001:00054f70       ?IsKeyDown@ImGui@@YA_NH@Z  0000000140055f70 f   imgui.obj
 0001:00054fe0       ?IsKeyPressed@ImGui@@YA_NH_N@Z 0000000140055fe0 f   imgui.obj
 0001:000550d0       ?IsKeyReleased@ImGui@@YA_NH@Z 00000001400560d0 f   imgui.obj
 0001:00055170       ?GetKeyPressedAmount@ImGui@@YAHHMM@Z 0000000140056170 f   imgui.obj
 0001:00055220       ?CaptureKeyboardFromApp@ImGui@@YAX_N@Z 0000000140056220 f   imgui.obj
 0001:00055260       ?IsMouseDown@ImGui@@YA_NH@Z 0000000140056260 f   imgui.obj
 0001:000552c0       ?IsMouseClicked@ImGui@@YA_NH_N@Z 00000001400562c0 f   imgui.obj
 0001:000553c0       ?IsMouseReleased@ImGui@@YA_NH@Z 00000001400563c0 f   imgui.obj
 0001:00055420       ?IsMouseDoubleClicked@ImGui@@YA_NH@Z 0000000140056420 f   imgui.obj
 0001:00055480       ?IsMouseHoveringRect@ImGui@@YA_NAEBUImVec2@@0_N@Z 0000000140056480 f   imgui.obj
 0001:000555c0       ?IsMousePosValid@ImGui@@YA_NPEBUImVec2@@@Z 00000001400565c0 f   imgui.obj
 0001:00055680       ?IsAnyMouseDown@ImGui@@YA_NXZ 0000000140056680 f   imgui.obj
 0001:000556d0       ?GetMousePos@ImGui@@YA?AUImVec2@@XZ 00000001400566d0 f   imgui.obj
 0001:00055710       ?GetMousePosOnOpeningCurrentPopup@ImGui@@YA?AUImVec2@@XZ 0000000140056710 f   imgui.obj
 0001:000557a0       ?IsMouseDragging@ImGui@@YA_NHM@Z 00000001400567a0 f   imgui.obj
 0001:00055820       ?GetMouseDragDelta@ImGui@@YA?AUImVec2@@HM@Z 0000000140056820 f   imgui.obj
 0001:00055970       ?ResetMouseDragDelta@ImGui@@YAXH@Z 0000000140056970 f   imgui.obj
 0001:000559e0       ?GetMouseCursor@ImGui@@YAHXZ 00000001400569e0 f   imgui.obj
 0001:00055a00       ?SetMouseCursor@ImGui@@YAXH@Z 0000000140056a00 f   imgui.obj
 0001:00055a20       ?CaptureMouseFromApp@ImGui@@YAX_N@Z 0000000140056a20 f   imgui.obj
 0001:00055a60       ?GetClipboardText@ImGui@@YAPEBDXZ 0000000140056a60 f   imgui.obj
 0001:00055ad0       ?SetClipboardText@ImGui@@YAXPEBD@Z 0000000140056ad0 f   imgui.obj
 0001:00055b30       ?LoadIniSettingsFromDisk@ImGui@@YAXPEBD@Z 0000000140056b30 f   imgui.obj
 0001:00055b90       ?LoadIniSettingsFromMemory@ImGui@@YAXPEBD_K@Z 0000000140056b90 f   imgui.obj
 0001:00055f60       ?SaveIniSettingsToDisk@ImGui@@YAXPEBD@Z 0000000140056f60 f   imgui.obj
 0001:00056000       ?SaveIniSettingsToMemory@ImGui@@YAPEBDPEA_K@Z 0000000140057000 f   imgui.obj
 0001:00056120       ?SetAllocatorFunctions@ImGui@@YAXP6APEAX_KPEAX@ZP6AX11@Z1@Z 0000000140057120 f   imgui.obj
 0001:00056160       ?MemAlloc@ImGui@@YAPEAX_K@Z 0000000140057160 f   imgui.obj
 0001:000561c0       ?MemFree@ImGui@@YAXPEAX@Z  00000001400571c0 f   imgui.obj
 0001:00056230       ?GetPlatformIO@ImGui@@YAAEAUImGuiPlatformIO@@XZ 0000000140057230 f   imgui.obj
 0001:00056280       ?GetMainViewport@ImGui@@YAPEAUImGuiViewport@@XZ 0000000140057280 f   imgui.obj
 0001:000562c0       ?UpdatePlatformWindows@ImGui@@YAXXZ 00000001400572c0 f   imgui.obj
 0001:00056a60       ?RenderPlatformWindowsDefault@ImGui@@YAXPEAX0@Z 0000000140057a60 f   imgui.obj
 0001:00056c10       ?DestroyPlatformWindows@ImGui@@YAXXZ 0000000140057c10 f   imgui.obj
 0001:00056c80       ?FindViewportByID@ImGui@@YAPEAUImGuiViewport@@I@Z 0000000140057c80 f   imgui.obj
 0001:00056d20       ?FindViewportByPlatformHandle@ImGui@@YAPEAUImGuiViewport@@PEAX@Z 0000000140057d20 f   imgui.obj
 0001:00056dc0       ??0ImGuiStyle@@QEAA@XZ     0000000140057dc0 f   imgui.obj
 0001:00057280       ?ScaleAllSizes@ImGuiStyle@@QEAAXM@Z 0000000140058280 f   imgui.obj
 0001:00057690       ?AddInputCharacter@ImGuiIO@@QEAAXI@Z 0000000140058690 f   imgui.obj
 0001:00057700       ?AddInputCharacterUTF16@ImGuiIO@@QEAAXG@Z 0000000140058700 f   imgui.obj
 0001:00057840       ?AddInputCharactersUTF8@ImGuiIO@@QEAAXPEBD@Z 0000000140058840 f   imgui.obj
 0001:000578d0       ?ClearInputCharacters@ImGuiIO@@QEAAXXZ 00000001400588d0 f   imgui.obj
 0001:00057900       ??0ImGuiIO@@QEAA@XZ        0000000140058900 f   imgui.obj
 0001:00057df0       ??0ImGuiTextFilter@@QEAA@PEBD@Z 0000000140058df0 f   imgui.obj
 0001:00057e70       ?Draw@ImGuiTextFilter@@QEAA_NPEBDM@Z 0000000140058e70 f   imgui.obj
 0001:00057f00       ?PassFilter@ImGuiTextFilter@@QEBA_NPEBD0@Z 0000000140058f00 f   imgui.obj
 0001:00058040       ?Build@ImGuiTextFilter@@QEAAXXZ 0000000140059040 f   imgui.obj
 0001:00058250       ?split@ImGuiTextRange@ImGuiTextFilter@@QEBAXDPEAU?$ImVector@UImGuiTextRange@ImGuiTextFilter@@@@@Z 0000000140059250 f   imgui.obj
 0001:00058320       ?append@ImGuiTextBuffer@@QEAAXPEBD0@Z 0000000140059320 f   imgui.obj
 0001:000584d0       ?appendf@ImGuiTextBuffer@@QEAAXPEBDZZ 00000001400594d0 f   imgui.obj
 0001:00058520       ?appendfv@ImGuiTextBuffer@@QEAAXPEBDPEAD@Z 0000000140059520 f   imgui.obj
 0001:00058670       ?GetInt@ImGuiStorage@@QEBAHIH@Z 0000000140059670 f   imgui.obj
 0001:000586e0       ?SetInt@ImGuiStorage@@QEAAXIH@Z 00000001400596e0 f   imgui.obj
 0001:00058780       ?GetBool@ImGuiStorage@@QEBA_NI_N@Z 0000000140059780 f   imgui.obj
 0001:000587f0       ?SetBool@ImGuiStorage@@QEAAXI_N@Z 00000001400597f0 f   imgui.obj
 0001:00058840       ?GetFloat@ImGuiStorage@@QEBAMIM@Z 0000000140059840 f   imgui.obj
 0001:000588b0       ?SetFloat@ImGuiStorage@@QEAAXIM@Z 00000001400598b0 f   imgui.obj
 0001:00058950       ?GetVoidPtr@ImGuiStorage@@QEBAPEAXI@Z 0000000140059950 f   imgui.obj
 0001:000589b0       ?SetVoidPtr@ImGuiStorage@@QEAAXIPEAX@Z 00000001400599b0 f   imgui.obj
 0001:00058a50       ?GetIntRef@ImGuiStorage@@QEAAPEAHIH@Z 0000000140059a50 f   imgui.obj
 0001:00058af0       ?GetBoolRef@ImGuiStorage@@QEAAPEA_NI_N@Z 0000000140059af0 f   imgui.obj
 0001:00058b40       ?GetFloatRef@ImGuiStorage@@QEAAPEAMIM@Z 0000000140059b40 f   imgui.obj
 0001:00058be0       ?GetVoidPtrRef@ImGuiStorage@@QEAAPEAPEAXIPEAX@Z 0000000140059be0 f   imgui.obj
 0001:00058c80       ?SetAllInt@ImGuiStorage@@QEAAXH@Z 0000000140059c80 f   imgui.obj
 0001:00058ce0       ?BuildSortByKey@ImGuiStorage@@QEAAXXZ 0000000140059ce0 f   imgui.obj
 0001:00058d30       ?Step@ImGuiListClipper@@QEAA_NXZ 0000000140059d30 f   imgui.obj
 0001:00058f10       ?Begin@ImGuiListClipper@@QEAAXHM@Z 0000000140059f10 f   imgui.obj
 0001:00059030       ?End@ImGuiListClipper@@QEAAXXZ 000000014005a030 f   imgui.obj
 0001:000590b0       ?ImHashData@@YAIPEBX_KI@Z  000000014005a0b0 f   imgui.obj
 0001:00059150       ?ImHashStr@@YAIPEBD_KI@Z   000000014005a150 f   imgui.obj
 0001:00059300       ?ImAlphaBlendColors@@YAIII@Z 000000014005a300 f   imgui.obj
 0001:00059410       ?ImStricmp@@YAHPEBD0@Z     000000014005a410 f   imgui.obj
 0001:00059490       ?ImStrnicmp@@YAHPEBD0_K@Z  000000014005a490 f   imgui.obj
 0001:00059530       ?ImStrncpy@@YAXPEADPEBD_K@Z 000000014005a530 f   imgui.obj
 0001:00059590       ?ImStrdup@@YAPEADPEBD@Z    000000014005a590 f   imgui.obj
 0001:00059610       ?ImStrdupcpy@@YAPEADPEADPEA_KPEBD@Z 000000014005a610 f   imgui.obj
 0001:00059730       ?ImStrchrRange@@YAPEBDPEBD0D@Z 000000014005a730 f   imgui.obj
 0001:00059780       ?ImStrlenW@@YAHPEBG@Z      000000014005a780 f   imgui.obj
 0001:000597d0       ?ImStreolRange@@YAPEBDPEBD0@Z 000000014005a7d0 f   imgui.obj
 0001:00059840       ?ImStrbolW@@YAPEBGPEBG0@Z  000000014005a840 f   imgui.obj
 0001:00059890       ?ImStristr@@YAPEBDPEBD000@Z 000000014005a890 f   imgui.obj
 0001:000599f0       ?ImStrTrimBlanks@@YAXPEAD@Z 000000014005a9f0 f   imgui.obj
 0001:00059b00       ?ImStrSkipBlank@@YAPEBDPEBD@Z 000000014005ab00 f   imgui.obj
 0001:00059b50       ?ImFormatString@@YAHPEAD_KPEBDZZ 000000014005ab50 f   imgui.obj
 0001:00059be0       ?ImFormatStringV@@YAHPEAD_KPEBD0@Z 000000014005abe0 f   imgui.obj
 0001:00059ca0       ?ImTextStrToUtf8@@YAHPEADHPEBG1@Z 000000014005aca0 f   imgui.obj
 0001:00059dc0       ?ImTextCharFromUtf8@@YAHPEAIPEBD1@Z 000000014005adc0 f   imgui.obj
 0001:0005a2c0       ?ImTextStrFromUtf8@@YAHPEAGHPEBD1PEAPEBD@Z 000000014005b2c0 f   imgui.obj
 0001:0005a3b0       ?ImTextCountCharsFromUtf8@@YAHPEBD0@Z 000000014005b3b0 f   imgui.obj
 0001:0005a430       ?ImTextCountUtf8BytesFromChar@@YAHPEBD0@Z 000000014005b430 f   imgui.obj
 0001:0005a470       ?ImTextCountUtf8BytesFromStr@@YAHPEBG0@Z 000000014005b470 f   imgui.obj
 0001:0005a8c0       ?ImFileOpen@@YAPEAU_iobuf@@PEBD0@Z 000000014005b8c0 f   imgui.obj
 0001:0005aa10       ?ImFileClose@@YA_NPEAU_iobuf@@@Z 000000014005ba10 f   imgui.obj
 0001:0005aa50       ?ImFileGetSize@@YA_KPEAU_iobuf@@@Z 000000014005ba50 f   imgui.obj
 0001:0005aaf0       ?ImFileRead@@YA_KPEAX_K1PEAU_iobuf@@@Z 000000014005baf0 f   imgui.obj
 0001:0005ab30       ?ImFileWrite@@YA_KPEBX_K1PEAU_iobuf@@@Z 000000014005bb30 f   imgui.obj
 0001:0005ab70       ?ImFileLoadToMemory@@YAPEAXPEBD0PEA_KH@Z 000000014005bb70 f   imgui.obj
 0001:0005b1c0       ?ImBezierClosestPoint@@YA?AUImVec2@@AEBU1@0000H@Z 000000014005c1c0 f   imgui.obj
 0001:0005b350       ?ImBezierClosestPointCasteljau@@YA?AUImVec2@@AEBU1@0000M@Z 000000014005c350 f   imgui.obj
 0001:0005b4c0       ?ImLineClosestPoint@@YA?AUImVec2@@AEBU1@00@Z 000000014005c4c0 f   imgui.obj
 0001:0005b5e0       ?ImTriangleContainsPoint@@YA_NAEBUImVec2@@000@Z 000000014005c5e0 f   imgui.obj
 0001:0005b7b0       ?ImTriangleClosestPoint@@YA?AUImVec2@@AEBU1@000@Z 000000014005c7b0 f   imgui.obj
 0001:0005b920       ?ImTriangleBarycentricCoords@@YAXAEBUImVec2@@000AEAM11@Z 000000014005c920 f   imgui.obj
 0001:0005ba20       ?ImGetDirQuadrantFromDelta@@YAHMM@Z 000000014005ca20 f   imgui.obj
 0001:0005baf0       ?FlattenIntoSingleLayer@ImDrawDataBuilder@@QEAAXXZ 000000014005caf0 f   imgui.obj
 0001:0005bc70       ??0ImGuiDockNode@@QEAA@I@Z 000000014005cc70 f   imgui.obj
 0001:0005bf70       ??1ImGuiDockNode@@QEAA@XZ  000000014005cf70 f   imgui.obj
 0001:0005bfe0       ??0ImGuiWindow@@QEAA@PEAUImGuiContext@@PEBD@Z 000000014005cfe0 f   imgui.obj
 0001:0005cac0       ??1ImGuiWindow@@QEAA@XZ    000000014005dac0 f   imgui.obj
 0001:0005cbe0       ?GetID@ImGuiWindow@@QEAAIPEBD0@Z 000000014005dbe0 f   imgui.obj
 0001:0005cc70       ?GetID@ImGuiWindow@@QEAAIPEBX@Z 000000014005dc70 f   imgui.obj
 0001:0005ccd0       ?GetID@ImGuiWindow@@QEAAIH@Z 000000014005dcd0 f   imgui.obj
 0001:0005cd30       ?GetIDNoKeepAlive@ImGuiWindow@@QEAAIPEBD0@Z 000000014005dd30 f   imgui.obj
 0001:0005cdb0       ?GetIDNoKeepAlive@ImGuiWindow@@QEAAIPEBX@Z 000000014005ddb0 f   imgui.obj
 0001:0005ce00       ?GetIDNoKeepAlive@ImGuiWindow@@QEAAIH@Z 000000014005de00 f   imgui.obj
 0001:0005ce50       ?GetIDFromRectangle@ImGuiWindow@@QEAAIAEBUImRect@@@Z 000000014005de50 f   imgui.obj
 0001:0005cf40       ?FindWindowByID@ImGui@@YAPEAUImGuiWindow@@I@Z 000000014005df40 f   imgui.obj
 0001:0005cf80       ?FindWindowByName@ImGui@@YAPEAUImGuiWindow@@PEBD@Z 000000014005df80 f   imgui.obj
 0001:0005cfb0       ?UpdateWindowParentAndRootLinks@ImGui@@YAXPEAUImGuiWindow@@H0@Z 000000014005dfb0 f   imgui.obj
 0001:0005d140       ?CalcWindowExpectedSize@ImGui@@YA?AUImVec2@@PEAUImGuiWindow@@@Z 000000014005e140 f   imgui.obj
 0001:0005d1b0       ?IsWindowChildOf@ImGui@@YA_NPEAUImGuiWindow@@0@Z 000000014005e1b0 f   imgui.obj
 0001:0005d210       ?IsWindowNavFocusable@ImGui@@YA_NPEAUImGuiWindow@@@Z 000000014005e210 f   imgui.obj
 0001:0005d270       ?GetWindowAllowedExtentRect@ImGui@@YA?AUImRect@@PEAUImGuiWindow@@@Z 000000014005e270 f   imgui.obj
 0001:0005d430       ?SetWindowPos@ImGui@@YAXPEAUImGuiWindow@@AEBUImVec2@@H@Z 000000014005e430 f   imgui.obj
 0001:0005d570       ?SetWindowSize@ImGui@@YAXPEAUImGuiWindow@@AEBUImVec2@@H@Z 000000014005e570 f   imgui.obj
 0001:0005d6a0       ?SetWindowCollapsed@ImGui@@YAXPEAUImGuiWindow@@_NH@Z 000000014005e6a0 f   imgui.obj
 0001:0005d700       ?FocusWindow@ImGui@@YAXPEAUImGuiWindow@@@Z 000000014005e700 f   imgui.obj
 0001:0005d950       ?FocusTopMostWindowUnderOne@ImGui@@YAXPEAUImGuiWindow@@0@Z 000000014005e950 f   imgui.obj
 0001:0005da60       ?BringWindowToFocusFront@ImGui@@YAXPEAUImGuiWindow@@@Z 000000014005ea60 f   imgui.obj
 0001:0005dbb0       ?BringWindowToDisplayFront@ImGui@@YAXPEAUImGuiWindow@@@Z 000000014005ebb0 f   imgui.obj
 0001:0005dd30       ?BringWindowToDisplayBack@ImGui@@YAXPEAUImGuiWindow@@@Z 000000014005ed30 f   imgui.obj
 0001:0005de70       ?SetCurrentFont@ImGui@@YAXPEAUImFont@@@Z 000000014005ee70 f   imgui.obj
 0001:0005e000       ?Initialize@ImGui@@YAXPEAUImGuiContext@@@Z 000000014005f000 f   imgui.obj
 0001:0005e250       ?Shutdown@ImGui@@YAXPEAUImGuiContext@@@Z 000000014005f250 f   imgui.obj
 0001:0005e690       ?UpdateHoveredWindowAndCaptureFlags@ImGui@@YAXXZ 000000014005f690 f   imgui.obj
 0001:0005eb10       ?StartMouseMovingWindow@ImGui@@YAXPEAUImGuiWindow@@@Z 000000014005fb10 f   imgui.obj
 0001:0005ec30       ?StartMouseMovingWindowOrNode@ImGui@@YAXPEAUImGuiWindow@@PEAUImGuiDockNode@@_N@Z 000000014005fc30 f   imgui.obj
 0001:0005edf0       ?UpdateMouseMovingWindowNewFrame@ImGui@@YAXXZ 000000014005fdf0 f   imgui.obj
 0001:0005f040       ?UpdateMouseMovingWindowEndFrame@ImGui@@YAXXZ 0000000140060040 f   imgui.obj
 0001:0005f2b0       ?TranslateWindowsInViewport@ImGui@@YAXPEAUImGuiViewportP@@AEBUImVec2@@1@Z 00000001400602b0 f   imgui.obj
 0001:0005f490       ?ScaleWindowsInViewport@ImGui@@YAXPEAUImGuiViewportP@@M@Z 0000000140060490 f   imgui.obj
 0001:0005f560       ?DestroyPlatformWindow@ImGui@@YAXPEAUImGuiViewportP@@@Z 0000000140060560 f   imgui.obj
 0001:0005f6b0       ?ShowViewportThumbnails@ImGui@@YAXXZ 00000001400606b0 f   imgui.obj
 0001:0005f900       ?MarkIniSettingsDirty@ImGui@@YAXXZ 0000000140060900 f   imgui.obj
 0001:0005f940       ?MarkIniSettingsDirty@ImGui@@YAXPEAUImGuiWindow@@@Z 0000000140060940 f   imgui.obj
 0001:0005f9a0       ?CreateNewWindowSettings@ImGui@@YAPEAUImGuiWindowSettings@@PEBD@Z 00000001400609a0 f   imgui.obj
 0001:0005fb10       ?FindWindowSettings@ImGui@@YAPEAUImGuiWindowSettings@@I@Z 0000000140060b10 f   imgui.obj
 0001:0005fb90       ?FindOrCreateWindowSettings@ImGui@@YAPEAUImGuiWindowSettings@@PEBD@Z 0000000140060b90 f   imgui.obj
 0001:0005fbe0       ?FindSettingsHandler@ImGui@@YAPEAUImGuiSettingsHandler@@PEBD@Z 0000000140060be0 f   imgui.obj
 0001:0005fc90       ?SetScrollX@ImGui@@YAXPEAUImGuiWindow@@M@Z 0000000140060c90 f   imgui.obj
 0001:0005fcd0       ?SetScrollY@ImGui@@YAXPEAUImGuiWindow@@M@Z 0000000140060cd0 f   imgui.obj
 0001:0005fd10       ?SetScrollFromPosX@ImGui@@YAXPEAUImGuiWindow@@MM@Z 0000000140060d10 f   imgui.obj
 0001:0005fdb0       ?SetScrollFromPosY@ImGui@@YAXPEAUImGuiWindow@@MM@Z 0000000140060db0 f   imgui.obj
 0001:0005fe90       ?ScrollToBringRectIntoView@ImGui@@YA?AUImVec2@@PEAUImGuiWindow@@AEBUImRect@@@Z 0000000140060e90 f   imgui.obj
 0001:00060200       ?SetActiveID@ImGui@@YAXIPEAUImGuiWindow@@@Z 0000000140061200 f   imgui.obj
 0001:000603a0       ?SetFocusID@ImGui@@YAXIPEAUImGuiWindow@@@Z 00000001400613a0 f   imgui.obj
 0001:00060570       ?ClearActiveID@ImGui@@YAXXZ 0000000140061570 f   imgui.obj
 0001:00060590       ?GetHoveredID@ImGui@@YAIXZ 0000000140061590 f   imgui.obj
 0001:000605e0       ?SetHoveredID@ImGui@@YAXI@Z 00000001400615e0 f   imgui.obj
 0001:00060650       ?KeepAliveID@ImGui@@YAXI@Z 0000000140061650 f   imgui.obj
 0001:000606b0       ?MarkItemEdited@ImGui@@YAXI@Z 00000001400616b0 f   imgui.obj
 0001:00060760       ?PushOverrideID@ImGui@@YAXI@Z 0000000140061760 f   imgui.obj
 0001:000607b0       ?ItemSize@ImGui@@YAXAEBUImVec2@@M@Z 00000001400617b0 f   imgui.obj
 0001:00060a00       ?ItemSize@ImGui@@YAXAEBUImRect@@M@Z 0000000140061a00 f   imgui.obj
 0001:00060a40       ?ItemAdd@ImGui@@YA_NAEBUImRect@@IPEBU2@@Z 0000000140061a40 f   imgui.obj
 0001:00060c20       ?ItemHoverable@ImGui@@YA_NAEBUImRect@@I@Z 0000000140061c20 f   imgui.obj
 0001:00060dd0       ?IsClippedEx@ImGui@@YA_NAEBUImRect@@I_N@Z 0000000140061dd0 f   imgui.obj
 0001:00060e60       ?FocusableItemRegister@ImGui@@YA_NPEAUImGuiWindow@@I@Z 0000000140061e60 f   imgui.obj
 0001:00061010       ?FocusableItemUnregister@ImGui@@YAXPEAUImGuiWindow@@@Z 0000000140062010 f   imgui.obj
 0001:00061050       ?CalcItemSize@ImGui@@YA?AUImVec2@@U2@MM@Z 0000000140062050 f   imgui.obj
 0001:00061180       ?CalcWrapWidthForPos@ImGui@@YAMAEBUImVec2@@M@Z 0000000140062180 f   imgui.obj
 0001:00061240       ?PushMultiItemsWidths@ImGui@@YAXHM@Z 0000000140062240 f   imgui.obj
 0001:000613c0       ?PushItemFlag@ImGui@@YAXH_N@Z 00000001400623c0 f   imgui.obj
 0001:00061450       ?PopItemFlag@ImGui@@YAXXZ  0000000140062450 f   imgui.obj
 0001:000614d0       ?IsItemToggledSelection@ImGui@@YA_NXZ 00000001400624d0 f   imgui.obj
 0001:00061520       ?GetContentRegionMaxAbs@ImGui@@YA?AUImVec2@@XZ 0000000140062520 f   imgui.obj
 0001:000615a0       ?LogBegin@ImGui@@YAXW4ImGuiLogType@@H@Z 00000001400625a0 f   imgui.obj
 0001:000616f0       ?LogToBuffer@ImGui@@YAXH@Z 00000001400626f0 f   imgui.obj
 0001:00061730       ?BeginChildEx@ImGui@@YA_NPEBDIAEBUImVec2@@_NH@Z 0000000140062730 f   imgui.obj
 0001:00061a40       ?OpenPopupEx@ImGui@@YAXI@Z 0000000140062a40 f   imgui.obj
 0001:00061c80       ?ClosePopupToLevel@ImGui@@YAXH_N@Z 0000000140062c80 f   imgui.obj
 0001:00061db0       ?ClosePopupsOverWindow@ImGui@@YAXPEAUImGuiWindow@@_N@Z 0000000140062db0 f   imgui.obj
 0001:00061f60       ?IsPopupOpen@ImGui@@YA_NI@Z 0000000140062f60 f   imgui.obj
 0001:00061fe0       ?BeginPopupEx@ImGui@@YA_NIH@Z 0000000140062fe0 f   imgui.obj
 0001:000620d0       ?BeginTooltipEx@ImGui@@YAXHH@Z 00000001400630d0 f   imgui.obj
 0001:000622b0       ?GetTopMostPopupModal@ImGui@@YAPEAUImGuiWindow@@XZ 00000001400632b0 f   imgui.obj
 0001:00062330       ?FindBestWindowPosForPopup@ImGui@@YA?AUImVec2@@PEAUImGuiWindow@@@Z 0000000140063330 f   imgui.obj
 0001:00062890       ?FindBestWindowPosForPopupEx@ImGui@@YA?AUImVec2@@AEBU2@0PEAHAEBUImRect@@2W4ImGuiPopupPositionPolicy@@@Z 0000000140063890 f   imgui.obj
 0001:00062f60       ?NavInitWindow@ImGui@@YAXPEAUImGuiWindow@@_N@Z 0000000140063f60 f   imgui.obj
 0001:000630b0       ?NavMoveRequestButNoResultYet@ImGui@@YA_NXZ 00000001400640b0 f   imgui.obj
 0001:00063110       ?NavMoveRequestCancel@ImGui@@YAXXZ 0000000140064110 f   imgui.obj
 0001:00063140       ?NavMoveRequestForward@ImGui@@YAXHHAEBUImRect@@H@Z 0000000140064140 f   imgui.obj
 0001:00063210       ?NavMoveRequestTryWrapping@ImGui@@YAXPEAUImGuiWindow@@H@Z 0000000140064210 f   imgui.obj
 0001:00063570       ?GetNavInputAmount@ImGui@@YAMHW4ImGuiInputReadMode@@@Z 0000000140064570 f   imgui.obj
 0001:000637a0       ?GetNavInputAmount2d@ImGui@@YA?AUImVec2@@HW4ImGuiInputReadMode@@MM@Z 00000001400647a0 f   imgui.obj
 0001:00063a60       ?CalcTypematicRepeatAmount@ImGui@@YAHMMMM@Z 0000000140064a60 f   imgui.obj
 0001:00063b80       ?ActivateItem@ImGui@@YAXI@Z 0000000140064b80 f   imgui.obj
 0001:00063bb0       ?SetNavID@ImGui@@YAXIHI@Z  0000000140064bb0 f   imgui.obj
 0001:00063c70       ?SetNavIDWithRectRel@ImGui@@YAXIHIAEBUImRect@@@Z 0000000140064c70 f   imgui.obj
 0001:00063d00       ?PushFocusScope@ImGui@@YAXI@Z 0000000140064d00 f   imgui.obj
 0001:00063d70       ?PopFocusScope@ImGui@@YAXXZ 0000000140064d70 f   imgui.obj
 0001:00063dd0       ?IsMouseDragPastThreshold@ImGui@@YA_NHM@Z 0000000140064dd0 f   imgui.obj
 0001:00063e80       ?DockContextInitialize@ImGui@@YAXPEAUImGuiContext@@@Z 0000000140064e80 f   imgui.obj
 0001:00063fc0       ?DockContextShutdown@ImGui@@YAXPEAUImGuiContext@@@Z 0000000140064fc0 f   imgui.obj
 0001:00064070       ?DockContextOnLoadSettings@ImGui@@YAXPEAUImGuiContext@@@Z 0000000140065070 f   imgui.obj
 0001:000640c0       ?DockContextRebuildNodes@ImGui@@YAXPEAUImGuiContext@@@Z 00000001400650c0 f   imgui.obj
 0001:00064130       ?DockContextUpdateUndocking@ImGui@@YAXPEAUImGuiContext@@@Z 0000000140065130 f   imgui.obj
 0001:000642e0       ?DockContextUpdateDocking@ImGui@@YAXPEAUImGuiContext@@@Z 00000001400652e0 f   imgui.obj
 0001:00064420       ?DockContextGenNodeID@ImGui@@YAIPEAUImGuiContext@@@Z 0000000140065420 f   imgui.obj
 0001:00064460       ?DockContextQueueDock@ImGui@@YAXPEAUImGuiContext@@PEAUImGuiWindow@@PEAUImGuiDockNode@@1HM_N@Z 0000000140065460 f   imgui.obj
 0001:00064540       ?DockContextQueueUndockWindow@ImGui@@YAXPEAUImGuiContext@@PEAUImGuiWindow@@@Z 0000000140065540 f   imgui.obj
 0001:000645a0       ?DockContextQueueUndockNode@ImGui@@YAXPEAUImGuiContext@@PEAUImGuiDockNode@@@Z 00000001400655a0 f   imgui.obj
 0001:00064600       ?DockContextCalcDropPosForDocking@ImGui@@YA_NPEAUImGuiWindow@@PEAUImGuiDockNode@@0H_NPEAUImVec2@@@Z 0000000140065600 f   imgui.obj
 0001:00064750       ?GetWindowAlwaysWantOwnTabBar@ImGui@@YA_NPEAUImGuiWindow@@@Z 0000000140065750 f   imgui.obj
 0001:000647c0       ?BeginDocked@ImGui@@YAXPEAUImGuiWindow@@PEA_N@Z 00000001400657c0 f   imgui.obj
 0001:00064dd0       ?BeginDockableDragDropSource@ImGui@@YAXPEAUImGuiWindow@@@Z 0000000140065dd0 f   imgui.obj
 0001:00064f70       ?BeginDockableDragDropTarget@ImGui@@YAXPEAUImGuiWindow@@@Z 0000000140065f70 f   imgui.obj
 0001:000654e0       ?SetWindowDock@ImGui@@YAXPEAUImGuiWindow@@IH@Z 00000001400664e0 f   imgui.obj
 0001:00065650       ?DockBuilderDockWindow@ImGui@@YAXPEBDI@Z 0000000140066650 f   imgui.obj
 0001:00065700       ?DockBuilderGetNode@ImGui@@YAPEAUImGuiDockNode@@I@Z 0000000140066700 f   imgui.obj
 0001:00065730       ?DockBuilderAddNode@ImGui@@YAIIH@Z 0000000140066730 f   imgui.obj
 0001:00065820       ?DockBuilderRemoveNode@ImGui@@YAXI@Z 0000000140066820 f   imgui.obj
 0001:000658c0       ?DockBuilderRemoveNodeDockedWindows@ImGui@@YAXI_N@Z 00000001400668c0 f   imgui.obj
 0001:00065b20       ?DockBuilderRemoveNodeChildNodes@ImGui@@YAXI@Z 0000000140066b20 f   imgui.obj
 0001:00065f00       ?DockBuilderSetNodePos@ImGui@@YAXIUImVec2@@@Z 0000000140066f00 f   imgui.obj
 0001:00065f70       ?DockBuilderSetNodeSize@ImGui@@YAXIUImVec2@@@Z 0000000140066f70 f   imgui.obj
 0001:00066030       ?DockBuilderSplitNode@ImGui@@YAIIHMPEAI0@Z 0000000140067030 f   imgui.obj
 0001:00066270       ?DockBuilderCopyDockSpace@ImGui@@YAXIIPEAU?$ImVector@PEBD@@@Z 0000000140067270 f   imgui.obj
 0001:000665d0       ?DockBuilderCopyNode@ImGui@@YAXIIPEAU?$ImVector@I@@@Z 00000001400675d0 f   imgui.obj
 0001:000666f0       ?DockBuilderCopyWindowSettings@ImGui@@YAXPEBD0@Z 00000001400676f0 f   imgui.obj
 0001:00066850       ?DockBuilderFinish@ImGui@@YAXI@Z 0000000140067850 f   imgui.obj
 0001:00066880       ?BeginDragDropTargetCustom@ImGui@@YA_NAEBUImRect@@I@Z 0000000140067880 f   imgui.obj
 0001:000669e0       ?ClearDragDrop@ImGui@@YAXXZ 00000001400679e0 f   imgui.obj
 0001:00066aa0       ?IsDragDropPayloadBeingAccepted@ImGui@@YA_NXZ 0000000140067aa0 f   imgui.obj
 0001:00066af0       ?RenderText@ImGui@@YAXUImVec2@@PEBD1_N@Z 0000000140067af0 f   imgui.obj
 0001:00066ca0       ?RenderTextWrapped@ImGui@@YAXUImVec2@@PEBD1M@Z 0000000140067ca0 f   imgui.obj
 0001:00066e20       ?RenderTextClipped@ImGui@@YAXAEBUImVec2@@0PEBD1PEBU2@0PEBUImRect@@@Z 0000000140067e20 f   imgui.obj
 0001:00066f20       ?RenderTextClippedEx@ImGui@@YAXPEAUImDrawList@@AEBUImVec2@@1PEBD2PEBU3@1PEBUImRect@@@Z 0000000140067f20 f   imgui.obj
 0001:000672a0       ?RenderTextEllipsis@ImGui@@YAXPEAUImDrawList@@AEBUImVec2@@1MMPEBD2PEBU3@@Z 00000001400682a0 f   imgui.obj
 0001:000678f0       ?RenderFrame@ImGui@@YAXUImVec2@@0I_NM@Z 00000001400688f0 f   imgui.obj
 0001:00067b00       ?RenderFrameBorder@ImGui@@YAXUImVec2@@0M@Z 0000000140068b00 f   imgui.obj
 0001:00067cb0       ?RenderNavHighlight@ImGui@@YAXAEBUImRect@@IH@Z 0000000140068cb0 f   imgui.obj
 0001:00067fe0       ?FindRenderedTextEnd@ImGui@@YAPEBDPEBD0@Z 0000000140068fe0 f   imgui.obj
 0001:00068070       ?LogRenderedText@ImGui@@YAXPEBUImVec2@@PEBD1@Z 0000000140069070 f   imgui.obj
 0001:00068320       ?GetWindowResizeID@ImGui@@YAIPEAUImGuiWindow@@H@Z 0000000140069320 f   imgui.obj
 0001:000683e0       ?GcCompactTransientWindowBuffers@ImGui@@YAXPEAUImGuiWindow@@@Z 00000001400693e0 f   imgui.obj
 0001:000684c0       ?GcAwakeTransientWindowBuffers@ImGui@@YAXPEAUImGuiWindow@@@Z 00000001400694c0 f   imgui.obj
 0001:00083410       ??$IM_DELETE@D@@YAXPEAD@Z  0000000140084410 f i imgui.obj
 0001:00083430       ??$IM_DELETE@UImDrawList@@@@YAXPEAUImDrawList@@@Z 0000000140084430 f i imgui.obj
 0001:00083460       ??$IM_DELETE@UImFontAtlas@@@@YAXPEAUImFontAtlas@@@Z 0000000140084460 f i imgui.obj
 0001:00083490       ??$IM_DELETE@UImGuiContext@@@@YAXPEAUImGuiContext@@@Z 0000000140084490 f i imgui.obj
 0001:000834c0       ??$IM_DELETE@UImGuiDockContext@@@@YAXPEAUImGuiDockContext@@@Z 00000001400844c0 f i imgui.obj
 0001:000834f0       ??$IM_DELETE@UImGuiDockNode@@@@YAXPEAUImGuiDockNode@@@Z 00000001400844f0 f i imgui.obj
 0001:00083520       ??$IM_DELETE@UImGuiTabBar@@@@YAXPEAUImGuiTabBar@@@Z 0000000140084520 f i imgui.obj
 0001:00083550       ??$IM_DELETE@UImGuiViewportP@@@@YAXPEAUImGuiViewportP@@@Z 0000000140084550 f i imgui.obj
 0001:00083580       ??$IM_DELETE@UImGuiWindow@@@@YAXPEAUImGuiWindow@@@Z 0000000140084580 f i imgui.obj
 0001:000835b0       ??0ImGuiTextBuffer@@QEAA@XZ 00000001400845b0 f i imgui.obj
 0001:000835b0       ??0ImGuiStorage@@QEAA@XZ   00000001400845b0 f i imgui.obj
 0001:000835b0       ??0?$ImChunkStream@UImGuiWindowSettings@@@@QEAA@XZ 00000001400845b0 f i imgui.obj
 0001:000835d0       ??0?$ImPool@UImGuiDockContextPruneNodeData@@@@QEAA@XZ 00000001400845d0 f i imgui.obj
 0001:000835d0       ??0?$ImPool@UImGuiTabBar@@@@QEAA@XZ 00000001400845d0 f i imgui.obj
 0001:00083610       ??0?$ImVector@G@@QEAA@XZ   0000000140084610 f i imgui.obj
 0001:00083610       ??0?$ImVector@PEAUImFont@@@@QEAA@XZ 0000000140084610 f i imgui.obj
 0001:00083610       ??0?$ImVector@UImGuiColumns@@@@QEAA@XZ 0000000140084610 f i imgui.obj
 0001:00083610       ??0?$ImVector@E@@QEAA@XZ   0000000140084610 f i imgui.obj
 0001:00083610       ??0?$ImVector@UImGuiSettingsHandler@@@@QEAA@XZ 0000000140084610 f i imgui.obj
 0001:00083610       ??0?$ImVector@PEAUMyDocument@@@@QEAA@XZ 0000000140084610 f i imgui_demo.obj
 0001:00083610       ??0?$ImVector@UImDrawChannel@@@@QEAA@XZ 0000000140084610 f i imgui.obj
 0001:00083610       ??0?$ImVector@UImDrawCmd@@@@QEAA@XZ 0000000140084610 f i imgui.obj
 0001:00083610       ??0?$ImVector@PEBD@@QEAA@XZ 0000000140084610 f i imgui_demo.obj
 0001:00083610       ??0?$ImVector@UImGuiDockNodeSettings@@@@QEAA@XZ 0000000140084610 f i imgui.obj
 0001:00083610       ??0?$ImVector@UImGuiPtrOrIndex@@@@QEAA@XZ 0000000140084610 f i imgui.obj
 0001:00083610       ??0?$ImVector@UImFontBuildDstData@@@@QEAA@XZ 0000000140084610 f i imgui_draw.obj
 0001:00083610       ??0?$ImVector@H@@QEAA@XZ   0000000140084610 f i imgui.obj
 0001:00083610       ??0?$ImVector@UImGuiColumnData@@@@QEAA@XZ 0000000140084610 f i imgui_widgets.obj
 0001:00083610       ??0?$ImVector@UImGuiPlatformMonitor@@@@QEAA@XZ 0000000140084610 f i imgui.obj
 0001:00083610       ??0?$ImVector@UImGuiStyleMod@@@@QEAA@XZ 0000000140084610 f i imgui.obj
 0001:00083610       ??0?$ImVector@PEAX@@QEAA@XZ 0000000140084610 f i imgui.obj
 0001:00083610       ??0?$ImVector@M@@QEAA@XZ   0000000140084610 f i imgui.obj
 0001:00083610       ??0?$ImVector@UImFontAtlasCustomRect@@@@QEAA@XZ 0000000140084610 f i imgui_draw.obj
 0001:00083610       ??0?$ImVector@UImGuiGroupData@@@@QEAA@XZ 0000000140084610 f i imgui.obj
 0001:00083610       ??0?$ImVector@UImGuiColorMod@@@@QEAA@XZ 0000000140084610 f i imgui.obj
 0001:00083610       ??0?$ImVector@UImGuiTabBar@@@@QEAA@XZ 0000000140084610 f i imgui.obj
 0001:00083610       ??0?$ImVector@UImDrawVert@@@@QEAA@XZ 0000000140084610 f i imgui.obj
 0001:00083610       ??0?$ImVector@PEAUImGuiDockNode@@@@QEAA@XZ 0000000140084610 f i imgui.obj
 0001:00083610       ??0?$ImVector@UImGuiPopupData@@@@QEAA@XZ 0000000140084610 f i imgui.obj
 0001:00083610       ??0?$ImVector@PEAUImDrawList@@@@QEAA@XZ 0000000140084610 f i imgui.obj
 0001:00083610       ??0?$ImVector@UImGuiTabItem@@@@QEAA@XZ 0000000140084610 f i imgui_widgets.obj
 0001:00083610       ??0?$ImVector@Ustbrp_rect@@@@QEAA@XZ 0000000140084610 f i imgui_draw.obj
 0001:00083610       ??0?$ImVector@UImGuiShrinkWidthItem@@@@QEAA@XZ 0000000140084610 f i imgui.obj
 0001:00083610       ??0?$ImVector@UImFontGlyph@@@@QEAA@XZ 0000000140084610 f i imgui_draw.obj
 0001:00083610       ??0?$ImVector@UImGuiDockContextPruneNodeData@@@@QEAA@XZ 0000000140084610 f i imgui.obj
 0001:00083610       ??0?$ImVector@UImGuiStoragePair@ImGuiStorage@@@@QEAA@XZ 0000000140084610 f i imgui.obj
 0001:00083610       ??0?$ImVector@UImVec2@@@@QEAA@XZ 0000000140084610 f i imgui.obj
 0001:00083610       ??0?$ImVector@UImGuiDockRequest@@@@QEAA@XZ 0000000140084610 f i imgui.obj
 0001:00083610       ??0?$ImVector@Ustbtt_packedchar@@@@QEAA@XZ 0000000140084610 f i imgui_draw.obj
 0001:00083610       ??0?$ImVector@UMyDocument@@@@QEAA@XZ 0000000140084610 f i imgui_demo.obj
 0001:00083610       ??0?$ImVector@UImVec4@@@@QEAA@XZ 0000000140084610 f i imgui.obj
 0001:00083610       ??0?$ImVector@PEAUImGuiViewportP@@@@QEAA@XZ 0000000140084610 f i imgui.obj
 0001:00083610       ??0?$ImVector@UImFontBuildSrcData@@@@QEAA@XZ 0000000140084610 f i imgui_draw.obj
 0001:00083610       ??0?$ImVector@I@@QEAA@XZ   0000000140084610 f i imgui.obj
 0001:00083610       ??0?$ImVector@UImFontConfig@@@@QEAA@XZ 0000000140084610 f i imgui_draw.obj
 0001:00083610       ??0?$ImVector@UImGuiTextRange@ImGuiTextFilter@@@@QEAA@XZ 0000000140084610 f i imgui.obj
 0001:00083610       ??0?$ImVector@PEAD@@QEAA@XZ 0000000140084610 f i imgui_demo.obj
 0001:00083610       ??0?$ImVector@D@@QEAA@XZ   0000000140084610 f i imgui.obj
 0001:00083610       ??0?$ImVector@PEAUImGuiViewport@@@@QEAA@XZ 0000000140084610 f i imgui.obj
 0001:00083610       ??0?$ImVector@PEAUImGuiWindow@@@@QEAA@XZ 0000000140084610 f i imgui.obj
 0001:00083640       ??0ImDrawData@@QEAA@XZ     0000000140084640 f i imgui.obj
 0001:000836a0       ??0ImDrawDataBuilder@@QEAA@XZ 00000001400846a0 f i imgui.obj
 0001:000836e0       ??0ImDrawList@@QEAA@PEBUImDrawListSharedData@@@Z 00000001400846e0 f i imgui.obj
 0001:000837a0       ??0ImDrawListSplitter@@QEAA@XZ 00000001400847a0 f i imgui.obj
 0001:000837d0       ??0ImGuiColorMod@@QEAA@XZ  00000001400847d0 f i imgui.obj
 0001:00083800       ??0ImGuiContext@@QEAA@PEAUImFontAtlas@@@Z 0000000140084800 f i imgui.obj
 0001:000847b0       ??0ImGuiDockContext@@QEAA@XZ 00000001400857b0 f i imgui.obj
 0001:00084800       ??0ImGuiDockContextPruneNodeData@@QEAA@XZ 0000000140085800 f i imgui.obj
 0001:00084840       ??0ImGuiDockNodeFindInfoResults@@QEAA@XZ 0000000140085840 f i imgui.obj
 0001:00084870       ??0ImGuiDockNodeSettings@@QEAA@XZ 0000000140085870 f i imgui.obj
 0001:00084910       ??0ImGuiDockPreviewData@@QEAA@XZ 0000000140085910 f i imgui.obj
 0001:000849c0       ??0ImGuiDockRequest@@QEAA@XZ 00000001400859c0 f i imgui.obj
 0001:00084a40       ??0ImGuiInputTextState@@QEAA@XZ 0000000140085a40 f i imgui.obj
 0001:00084aa0       ??0ImGuiListClipper@@QEAA@HM@Z 0000000140085aa0 f i imgui.obj
 0001:00084ae0       ??0ImGuiNavMoveResult@@QEAA@XZ 0000000140085ae0 f i imgui.obj
 0001:00084b10       ??0ImGuiNextItemData@@QEAA@XZ 0000000140085b10 f i imgui.obj
 0001:00084b30       ??0ImGuiNextWindowData@@QEAA@XZ 0000000140085b30 f i imgui.obj
 0001:00084bd0       ??0ImGuiPayload@@QEAA@XZ   0000000140085bd0 f i imgui.obj
 0001:00084bf0       ??0ImGuiPlatformIO@@QEAA@XZ 0000000140085bf0 f i imgui.obj
 0001:00084c40       ??0ImGuiPopupData@@QEAA@XZ 0000000140085c40 f i imgui.obj
 0001:00084cc0       ??0ImGuiSettingsHandler@@QEAA@XZ 0000000140085cc0 f i imgui.obj
 0001:00084ce0       ??0ImGuiSizeCallbackData@@QEAA@XZ 0000000140085ce0 f i imgui.obj
 0001:00084d30       ??0ImGuiStoragePair@ImGuiStorage@@QEAA@IH@Z 0000000140085d30 f i imgui.obj
 0001:00084d60       ??0ImGuiStoragePair@ImGuiStorage@@QEAA@IM@Z 0000000140085d60 f i imgui.obj
 0001:00084d90       ??0ImGuiStyleMod@@QEAA@HM@Z 0000000140085d90 f i imgui.obj
 0001:00084dd0       ??0ImGuiStyleMod@@QEAA@HUImVec2@@@Z 0000000140085dd0 f i imgui.obj
 0001:00084e30       ??0ImGuiViewport@@QEAA@XZ  0000000140085e30 f i imgui.obj
 0001:00084f20       ??0ImGuiViewportP@@QEAA@XZ 0000000140085f20 f i imgui.obj
 0001:00085120       ??0ImGuiWindowClass@@QEAA@XZ 0000000140086120 f i imgui.obj
 0001:00085190       ??0ImGuiWindowSettings@@QEAA@XZ 0000000140086190 f i imgui.obj
 0001:00085260       ??0ImGuiWindowTempData@@QEAA@XZ 0000000140086260 f i imgui.obj
 0001:000856e0       ??0ImRect@@QEAA@AEBUImVec2@@0@Z 00000001400866e0 f i imgui.obj
 0001:00085720       ??0ImRect@@QEAA@AEBUImVec4@@@Z 0000000140086720 f i imgui.obj
 0001:00085790       ??0ImRect@@QEAA@MMMM@Z     0000000140086790 f i imgui.obj
 0001:00085800       ??0ImRect@@QEAA@XZ         0000000140086800 f i imgui.obj
 0001:00085850       ??0ImVec1@@QEAA@M@Z        0000000140086850 f i imgui.obj
 0001:00085870       ??0ImVec1@@QEAA@XZ         0000000140086870 f i imgui.obj
 0001:00085890       ??0ImVec2@@QEAA@XZ         0000000140086890 f i imgui.obj
 0001:000858c0       ??0ImVec2ih@@QEAA@AEBUImVec2@@@Z 00000001400868c0 f i imgui.obj
 0001:00085900       ??0ImVec2ih@@QEAA@FF@Z     0000000140086900 f i imgui.obj
 0001:00085940       ??0ImVec2ih@@QEAA@XZ       0000000140086940 f i imgui.obj
 0001:00085960       ??0ImVec4@@QEAA@XZ         0000000140086960 f i imgui.obj
 0001:000859a0       ??1ImBitVector@@QEAA@XZ    00000001400869a0 f i imgui_draw.obj
 0001:000859a0       ??1?$ImChunkStream@UImGuiWindowSettings@@@@QEAA@XZ 00000001400869a0 f i imgui.obj
 0001:000859a0       ??1ImGuiTextBuffer@@QEAA@XZ 00000001400869a0 f i imgui.obj
 0001:000859a0       ??1ExampleAppDocuments@@QEAA@XZ 00000001400869a0 f i imgui_demo.obj
 0001:000859a0       ??1ImGuiStorage@@QEAA@XZ   00000001400869a0 f i imgui.obj
 0001:000859c0       ??1?$ImPool@UImGuiDockContextPruneNodeData@@@@QEAA@XZ 00000001400869c0 f i imgui.obj
 0001:00085a00       ??1?$ImPool@UImGuiTabBar@@@@QEAA@XZ 0000000140086a00 f i imgui.obj
 0001:00085a40       ??1?$ImVector@UMyDocument@@@@QEAA@XZ 0000000140086a40 f i imgui_demo.obj
 0001:00085a40       ??1?$ImVector@UImFontBuildDstData@@@@QEAA@XZ 0000000140086a40 f i imgui_draw.obj
 0001:00085a40       ??1?$ImVector@UImVec4@@@@QEAA@XZ 0000000140086a40 f i imgui.obj
 0001:00085a40       ??1?$ImVector@UImFontGlyph@@@@QEAA@XZ 0000000140086a40 f i imgui_draw.obj
 0001:00085a40       ??1?$ImVector@UImGuiDockContextPruneNodeData@@@@QEAA@XZ 0000000140086a40 f i imgui.obj
 0001:00085a40       ??1?$ImVector@UImVec2@@@@QEAA@XZ 0000000140086a40 f i imgui.obj
 0001:00085a40       ??1?$ImVector@E@@QEAA@XZ   0000000140086a40 f i imgui.obj
 0001:00085a40       ??1?$ImVector@H@@QEAA@XZ   0000000140086a40 f i imgui.obj
 0001:00085a40       ??1?$ImVector@PEAD@@QEAA@XZ 0000000140086a40 f i imgui_demo.obj
 0001:00085a40       ??1?$ImVector@UImGuiGroupData@@@@QEAA@XZ 0000000140086a40 f i imgui.obj
 0001:00085a40       ??1?$ImVector@UImGuiColorMod@@@@QEAA@XZ 0000000140086a40 f i imgui.obj
 0001:00085a40       ??1?$ImVector@UImGuiTextRange@ImGuiTextFilter@@@@QEAA@XZ 0000000140086a40 f i imgui.obj
 0001:00085a40       ??1?$ImVector@UImFontConfig@@@@QEAA@XZ 0000000140086a40 f i imgui_draw.obj
 0001:00085a40       ??1?$ImVector@Ustbtt_packedchar@@@@QEAA@XZ 0000000140086a40 f i imgui_draw.obj
 0001:00085a40       ??1?$ImVector@PEAUMyDocument@@@@QEAA@XZ 0000000140086a40 f i imgui_demo.obj
 0001:00085a40       ??1?$ImVector@UImGuiSettingsHandler@@@@QEAA@XZ 0000000140086a40 f i imgui.obj
 0001:00085a40       ??1?$ImVector@UImGuiTabBar@@@@QEAA@XZ 0000000140086a40 f i imgui.obj
 0001:00085a40       ??1?$ImVector@UImGuiTabItem@@@@QEAA@XZ 0000000140086a40 f i imgui.obj
 0001:00085a40       ??1?$ImVector@PEAUImGuiViewport@@@@QEAA@XZ 0000000140086a40 f i imgui.obj
 0001:00085a40       ??1?$ImVector@UImGuiShrinkWidthItem@@@@QEAA@XZ 0000000140086a40 f i imgui.obj
 0001:00085a40       ??1?$ImVector@UImDrawChannel@@@@QEAA@XZ 0000000140086a40 f i imgui.obj
 0001:00085a40       ??1?$ImVector@PEAUImFont@@@@QEAA@XZ 0000000140086a40 f i imgui.obj
 0001:00085a40       ??1?$ImVector@M@@QEAA@XZ   0000000140086a40 f i imgui.obj
 0001:00085a40       ??1?$ImVector@UImGuiPtrOrIndex@@@@QEAA@XZ 0000000140086a40 f i imgui.obj
 0001:00085a40       ??1?$ImVector@Ustbrp_rect@@@@QEAA@XZ 0000000140086a40 f i imgui_draw.obj
 0001:00085a40       ??1?$ImVector@UImGuiPopupData@@@@QEAA@XZ 0000000140086a40 f i imgui.obj
 0001:00085a40       ??1?$ImVector@UImGuiColumnData@@@@QEAA@XZ 0000000140086a40 f i imgui.obj
 0001:00085a40       ??1?$ImVector@PEAUImGuiViewportP@@@@QEAA@XZ 0000000140086a40 f i imgui.obj
 0001:00085a40       ??1?$ImVector@I@@QEAA@XZ   0000000140086a40 f i imgui.obj
 0001:00085a40       ??1?$ImVector@PEAUImGuiWindow@@@@QEAA@XZ 0000000140086a40 f i imgui.obj
 0001:00085a40       ??1?$ImVector@UImFontBuildSrcData@@@@QEAA@XZ 0000000140086a40 f i imgui_draw.obj
 0001:00085a40       ??1?$ImVector@UImGuiStyleMod@@@@QEAA@XZ 0000000140086a40 f i imgui.obj
 0001:00085a40       ??1?$ImVector@D@@QEAA@XZ   0000000140086a40 f i imgui.obj
 0001:00085a40       ??1?$ImVector@UImGuiPlatformMonitor@@@@QEAA@XZ 0000000140086a40 f i imgui.obj
 0001:00085a40       ??1?$ImVector@UImGuiDockRequest@@@@QEAA@XZ 0000000140086a40 f i imgui.obj
 0001:00085a40       ??1?$ImVector@UImDrawVert@@@@QEAA@XZ 0000000140086a40 f i imgui.obj
 0001:00085a40       ??1?$ImVector@UImGuiColumns@@@@QEAA@XZ 0000000140086a40 f i imgui.obj
 0001:00085a40       ??1?$ImVector@G@@QEAA@XZ   0000000140086a40 f i imgui.obj
 0001:00085a40       ??1?$ImVector@PEAX@@QEAA@XZ 0000000140086a40 f i imgui.obj
 0001:00085a40       ??1?$ImVector@UImGuiStoragePair@ImGuiStorage@@@@QEAA@XZ 0000000140086a40 f i imgui.obj
 0001:00085a40       ??1?$ImVector@PEAUImGuiDockNode@@@@QEAA@XZ 0000000140086a40 f i imgui.obj
 0001:00085a40       ??1?$ImVector@UImGuiDockNodeSettings@@@@QEAA@XZ 0000000140086a40 f i imgui.obj
 0001:00085a40       ??1?$ImVector@UImDrawCmd@@@@QEAA@XZ 0000000140086a40 f i imgui.obj
 0001:00085a40       ??1?$ImVector@PEBD@@QEAA@XZ 0000000140086a40 f i imgui_demo.obj
 0001:00085a40       ??1?$ImVector@UImFontAtlasCustomRect@@@@QEAA@XZ 0000000140086a40 f i imgui_draw.obj
 0001:00085a40       ??1?$ImVector@PEAUImDrawList@@@@QEAA@XZ 0000000140086a40 f i imgui.obj
 0001:00085a70       ??1ImDrawData@@QEAA@XZ     0000000140086a70 f i imgui.obj
 0001:00085a90       ??1ImDrawDataBuilder@@QEAA@XZ 0000000140086a90 f i imgui.obj
 0001:00085ac0       ??1ImDrawList@@QEAA@XZ     0000000140086ac0 f i imgui.obj
 0001:00085b60       ??1ImDrawListSplitter@@QEAA@XZ 0000000140086b60 f i imgui.obj
 0001:00085b90       ??1ImGuiColumns@@QEAA@XZ   0000000140086b90 f i imgui.obj
 0001:00085bc0       ??1ImGuiContext@@QEAA@XZ   0000000140086bc0 f i imgui.obj
 0001:00085db0       ??1ImGuiDockContext@@QEAA@XZ 0000000140086db0 f i imgui.obj
 0001:00085df0       ??1ImGuiDockPreviewData@@QEAA@XZ 0000000140086df0 f i imgui.obj
 0001:00085e10       ??1ImGuiIO@@QEAA@XZ        0000000140086e10 f i imgui.obj
 0001:00085e40       ??1ImGuiInputTextState@@QEAA@XZ 0000000140086e40 f i imgui.obj
 0001:00085e90       ??1ImGuiListClipper@@QEAA@XZ 0000000140086e90 f i imgui.obj
 0001:00085ed0       ??1ImGuiPlatformIO@@QEAA@XZ 0000000140086ed0 f i imgui.obj
 0001:00085f10       ??1ImGuiTabBar@@QEAA@XZ    0000000140086f10 f i imgui.obj
 0001:00085f40       ??1ImGuiViewport@@QEAA@XZ  0000000140086f40 f i imgui.obj
 0001:00085f90       ??1ImGuiViewportP@@QEAA@XZ 0000000140086f90 f i imgui.obj
 0001:00086040       ??1ImGuiWindowTempData@@QEAA@XZ 0000000140087040 f i imgui.obj
 0001:000860b0       ??2@YAPEAX_KUImNewDummy@@PEAX@Z 00000001400870b0 f i imgui.obj
 0001:000860d0       ??3@YAXPEAXUImNewDummy@@0@Z 00000001400870d0 f i imgui.obj
 0001:000860e0       ??A?$ImVector@D@@QEAAAEADH@Z 00000001400870e0 f i imgui.obj
 0001:00086130       ??A?$ImVector@G@@QEAAAEAGH@Z 0000000140087130 f i imgui.obj
 0001:00086180       ??A?$ImVector@H@@QEAAAEAHH@Z 0000000140087180 f i imgui_demo.obj
 0001:00086180       ??A?$ImVector@I@@QEAAAEAIH@Z 0000000140087180 f i imgui.obj
 0001:00086180       ??A?$ImVector@M@@QEAAAEAMH@Z 0000000140087180 f i imgui_draw.obj
 0001:000861d0       ??A?$ImVector@PEAUImGuiViewportP@@@@QEAAAEAPEAUImGuiViewportP@@H@Z 00000001400871d0 f i imgui.obj
 0001:000861d0       ??A?$ImVector@PEAD@@QEAAAEAPEADH@Z 00000001400871d0 f i imgui_demo.obj
 0001:000861d0       ??A?$ImVector@PEAUImDrawList@@@@QEAAAEAPEAUImDrawList@@H@Z 00000001400871d0 f i imgui.obj
 0001:000861d0       ??A?$ImVector@PEAUImGuiWindow@@@@QEAAAEAPEAUImGuiWindow@@H@Z 00000001400871d0 f i imgui.obj
 0001:000861d0       ??A?$ImVector@PEBD@@QEAAAEAPEBDH@Z 00000001400871d0 f i imgui.obj
 0001:000861d0       ??A?$ImVector@UImGuiShrinkWidthItem@@@@QEAAAEAUImGuiShrinkWidthItem@@H@Z 00000001400871d0 f i imgui_widgets.obj
 0001:000861d0       ??A?$ImVector@UImVec2@@@@QEAAAEAUImVec2@@H@Z 00000001400871d0 f i imgui_demo.obj
 0001:000861d0       ??A?$ImVector@PEAUImGuiDockNode@@@@QEAAAEAPEAUImGuiDockNode@@H@Z 00000001400871d0 f i imgui.obj
 0001:000861d0       ??A?$ImVector@PEAUImGuiViewport@@@@QEAAAEAPEAUImGuiViewport@@H@Z 00000001400871d0 f i imgui.obj
 0001:000861d0       ??A?$ImVector@PEAUMyDocument@@@@QEAAAEAPEAUMyDocument@@H@Z 00000001400871d0 f i imgui_demo.obj
 0001:000861d0       ??A?$ImVector@PEAUImFont@@@@QEAAAEAPEAUImFont@@H@Z 00000001400871d0 f i imgui.obj
 0001:00086220       ??A?$ImVector@UImDrawVert@@@@QEAAAEAUImDrawVert@@H@Z 0000000140087220 f i imgui.obj
 0001:00086270       ??A?$ImVector@UImGuiColumnData@@@@QEBAAEBUImGuiColumnData@@H@Z 0000000140087270 f i imgui.obj
 0001:000862c0       ??A?$ImVector@UImGuiColumns@@@@QEAAAEAUImGuiColumns@@H@Z 00000001400872c0 f i imgui.obj
 0001:00086310       ??A?$ImVector@UImGuiStoragePair@ImGuiStorage@@@@QEAAAEAUImGuiStoragePair@ImGuiStorage@@H@Z 0000000140087310 f i imgui.obj
 0001:00086310       ??A?$ImVector@UImGuiDockContextPruneNodeData@@@@QEAAAEAUImGuiDockContextPruneNodeData@@H@Z 0000000140087310 f i imgui.obj
 0001:00086310       ??A?$ImVector@Ustbrp_rect@@@@QEAAAEAUstbrp_rect@@H@Z 0000000140087310 f i imgui_draw.obj
 0001:00086310       ??A?$ImVector@UImGuiTextRange@ImGuiTextFilter@@@@QEAAAEAUImGuiTextRange@ImGuiTextFilter@@H@Z 0000000140087310 f i imgui.obj
 0001:00086360       ??A?$ImVector@UImGuiDockNodeSettings@@@@QEAAAEAUImGuiDockNodeSettings@@H@Z 0000000140087360 f i imgui.obj
 0001:00086360       ??A?$ImVector@UImGuiPlatformMonitor@@@@QEAAAEAUImGuiPlatformMonitor@@H@Z 0000000140087360 f i imgui.obj
 0001:000863b0       ??A?$ImVector@UImGuiDockRequest@@@@QEAAAEAUImGuiDockRequest@@H@Z 00000001400873b0 f i imgui.obj
 0001:00086400       ??A?$ImVector@UImGuiSettingsHandler@@@@QEAAAEAUImGuiSettingsHandler@@H@Z 0000000140087400 f i imgui.obj
 0001:00086400       ??A?$ImVector@UImGuiPopupData@@@@QEAAAEAUImGuiPopupData@@H@Z 0000000140087400 f i imgui.obj
 0001:00086450       ??A?$ImVector@UImGuiTabBar@@@@QEAAAEAUImGuiTabBar@@H@Z 0000000140087450 f i imgui.obj
 0001:000864a0       ??A?$ImVector@UImFontGlyph@@@@QEAAAEAUImFontGlyph@@H@Z 00000001400874a0 f i imgui_draw.obj
 0001:000864a0       ??A?$ImVector@UImGuiTabItem@@@@QEAAAEAUImGuiTabItem@@H@Z 00000001400874a0 f i imgui.obj
 0001:000864f0       ??A?$ImVector@UImGuiTextRange@ImGuiTextFilter@@@@QEBAAEBUImGuiTextRange@ImGuiTextFilter@@H@Z 00000001400874f0 f i imgui.obj
 0001:00086540       ??AImVec2@@QEAAAEAM_K@Z    0000000140087540 f i imgui.obj
 0001:00086590       ??_GImDrawList@@QEAAPEAXI@Z 0000000140087590 f i imgui.obj
 0001:000865d0       ??_GImFontAtlas@@QEAAPEAXI@Z 00000001400875d0 f i imgui.obj
 0001:00086610       ??_GImGuiColumns@@QEAAPEAXI@Z 0000000140087610 f i imgui.obj
 0001:00086650       ??_GImGuiContext@@QEAAPEAXI@Z 0000000140087650 f i imgui.obj
 0001:00086690       ??_GImGuiDockContext@@QEAAPEAXI@Z 0000000140087690 f i imgui.obj
 0001:000866d0       ??_GImGuiDockNode@@QEAAPEAXI@Z 00000001400876d0 f i imgui.obj
 0001:00086710       ??_GImGuiTabBar@@QEAAPEAXI@Z 0000000140087710 f i imgui.obj
 0001:00086750       ??_GImGuiViewportP@@QEAAPEAXI@Z 0000000140087750 f i imgui.obj
 0001:00086790       ??_GImGuiWindow@@QEAAPEAXI@Z 0000000140087790 f i imgui.obj
 0001:000867d0       ?Add@?$ImPool@UImGuiDockContextPruneNodeData@@@@QEAAPEAUImGuiDockContextPruneNodeData@@XZ 00000001400877d0 f i imgui.obj
 0001:00086900       ?Add@ImRect@@QEAAXAEBU1@@Z 0000000140087900 f i imgui.obj
 0001:000869b0       ?Add@ImRect@@QEAAXAEBUImVec2@@@Z 00000001400879b0 f i imgui.obj
 0001:00086a60       ?CalcFontSize@ImGuiWindow@@QEBAMXZ 0000000140087a60 f i imgui.obj
 0001:00086ae0       ?ChannelsMerge@ImDrawList@@QEAAXXZ 0000000140087ae0 f i imgui.obj
 0001:00086b10       ?ChannelsSetCurrent@ImDrawList@@QEAAXH@Z 0000000140087b10 f i imgui.obj
 0001:00086b50       ?ChannelsSplit@ImDrawList@@QEAAXH@Z 0000000140087b50 f i imgui.obj
 0001:00086b90       ?Clear@?$ImPool@UImGuiDockContextPruneNodeData@@@@QEAAXXZ 0000000140087b90 f i imgui.obj
 0001:00086c30       ?Clear@?$ImPool@UImGuiTabBar@@@@QEAAXXZ 0000000140087c30 f i imgui.obj
 0001:00086ce0       ?Clear@ImDrawData@@QEAAXXZ 0000000140087ce0 f i imgui.obj
 0001:00086d80       ?Clear@ImDrawDataBuilder@@QEAAXXZ 0000000140087d80 f i imgui.obj
 0001:00086dd0       ?Clear@ImDrawListSplitter@@QEAAXXZ 0000000140087dd0 f i imgui.obj
 0001:00086df0       ?Clear@ImGuiNavMoveResult@@QEAAXXZ 0000000140087df0 f i imgui.obj
 0001:00086e80       ?Clear@ImGuiPayload@@QEAAXXZ 0000000140087e80 f i imgui.obj
 0001:00086ef0       ?clear@?$ImChunkStream@UImGuiWindowSettings@@@@QEAAXXZ 0000000140087ef0 f i imgui.obj
 0001:00086ef0       ?Clear@ImBitVector@@QEAAXXZ 0000000140087ef0 f i imgui_draw.obj
 0001:00086ef0       ?Clear@ImGuiStorage@@QEAAXXZ 0000000140087ef0 f i imgui.obj
 0001:00086ef0       ?clear@ImGuiTextBuffer@@QEAAXXZ 0000000140087ef0 f i imgui.obj
 0001:00086f10       ?ClearFlags@ImGuiNextItemData@@QEAAXXZ 0000000140087f10 f i imgui_widgets.obj
 0001:00086f10       ?ClearFlags@ImGuiNextWindowData@@QEAAXXZ 0000000140087f10 f i imgui.obj
 0001:00086f30       ?ClearFreeMemory@ImGuiInputTextState@@QEAAXXZ 0000000140087f30 f i imgui.obj
 0001:00086f80       ?ClearRequestFlags@ImGuiViewportP@@QEAAXXZ 0000000140087f80 f i imgui.obj
 0001:00086fb0       ?ClipWith@ImRect@@QEAAXAEBU1@@Z 0000000140087fb0 f i imgui.obj
 0001:00087020       ?ClipWithFull@ImRect@@QEAAXAEBU1@@Z 0000000140088020 f i imgui.obj
 0001:000870a0       ?Contains@ImRect@@QEBA_NAEBU1@@Z 00000001400880a0 f i imgui.obj
 0001:00087120       ?Contains@ImRect@@QEBA_NAEBUImVec2@@@Z 0000000140088120 f i imgui.obj
 0001:000871a0       ?DebugStartItemPicker@ImGui@@YAXXZ 00000001400881a0 f i imgui.obj
 0001:000871c0       ?DockNodeGetRootNode@ImGui@@YAPEAUImGuiDockNode@@PEAU2@@Z 00000001400881c0 f i imgui.obj
 0001:000871f0       ?Expand@ImRect@@QEAAXAEBUImVec2@@@Z 00000001400881f0 f i imgui.obj
 0001:00087270       ?Expand@ImRect@@QEAAXM@Z   0000000140088270 f i imgui.obj
 0001:000872f0       ?GetBL@ImRect@@QEBA?AUImVec2@@XZ 00000001400882f0 f i imgui.obj
 0001:00087330       ?GetBR@ImRect@@QEBA?AUImVec2@@XZ 0000000140088330 f i imgui.obj
 0001:00087360       ?GetByIndex@?$ImPool@UImGuiTabBar@@@@QEAAPEAUImGuiTabBar@@H@Z 0000000140088360 f i imgui.obj
 0001:00087390       ?GetByKey@?$ImPool@UImGuiDockContextPruneNodeData@@@@QEAAPEAUImGuiDockContextPruneNodeData@@I@Z 0000000140088390 f i imgui.obj
 0001:00087400       ?GetCenter@ImRect@@QEBA?AUImVec2@@XZ 0000000140088400 f i imgui.obj
 0001:00087460       ?GetCurrentWindow@ImGui@@YAPEAUImGuiWindow@@XZ 0000000140088460 f i imgui.obj
 0001:000874a0       ?GetCurrentWindowRead@ImGui@@YAPEAUImGuiWindow@@XZ 00000001400884a0 f i imgui.obj
 0001:000874c0       ?GetDefaultFont@ImGui@@YAPEAUImFont@@XZ 00000001400884c0 f i imgui.obj
 0001:00087530       ?GetForegroundDrawList@ImGui@@YAPEAUImDrawList@@PEAUImGuiWindow@@@Z 0000000140088530 f i imgui.obj
 0001:00087550       ?GetHeight@ImRect@@QEBAMXZ 0000000140088550 f i imgui.obj
 0001:00087570       ?GetMainRect@ImGuiViewportP@@QEBA?AUImRect@@XZ 0000000140088570 f i imgui.obj
 0001:000875e0       ?GetMergedFlags@ImGuiDockNode@@QEBAHXZ 00000001400885e0 f i imgui.obj
 0001:00087600       ?GetOrAddByKey@?$ImPool@UImGuiDockContextPruneNodeData@@@@QEAAPEAUImGuiDockContextPruneNodeData@@I@Z 0000000140088600 f i imgui.obj
 0001:00087680       ?GetSize@ImRect@@QEBA?AUImVec2@@XZ 0000000140088680 f i imgui.obj
 0001:000876d0       ?GetTR@ImRect@@QEBA?AUImVec2@@XZ 00000001400886d0 f i imgui.obj
 0001:00087710       ?GetTabName@ImGuiTabBar@@QEBAPEBDPEBUImGuiTabItem@@@Z 0000000140088710 f i imgui.obj
 0001:00087790       ?GetTabOrder@ImGuiTabBar@@QEBAHPEBUImGuiTabItem@@@Z 0000000140088790 f i imgui.obj
 0001:000877c0       ?GetVarPtr@ImGuiStyleVarInfo@@QEBAPEAXPEAUImGuiStyle@@@Z 00000001400887c0 f i imgui.obj
 0001:000877e0       ?GetWidth@ImRect@@QEBAMXZ  00000001400887e0 f i imgui.obj
 0001:000879e0       ?GetWorkPos@ImGuiViewport@@QEAA?AUImVec2@@XZ 00000001400889e0 f i imgui.obj
 0001:00087a30       ?GetWorkRect@ImGuiViewportP@@QEBA?AUImRect@@XZ 0000000140088a30 f i imgui.obj
 0001:00087ad0       ?GetWorkSize@ImGuiViewport@@QEAA?AUImVec2@@XZ 0000000140088ad0 f i imgui.obj
 0001:00087b40       ?ImTriangleArea@@YAMAEBUImVec2@@00@Z 0000000140088b40 f i imgui.obj
 0001:00087be0       ?IsActiveIdUsingKey@ImGui@@YA_NH@Z 0000000140088be0 f i imgui.obj
 0001:00087c70       ?IsActiveIdUsingNavDir@ImGui@@YA_NH@Z 0000000140088c70 f i imgui.obj
 0001:00087cd0       ?IsActiveIdUsingNavInput@ImGui@@YA_NH@Z 0000000140088cd0 f i imgui.obj
 0001:00087d30       ?IsCentralNode@ImGuiDockNode@@QEBA_NXZ 0000000140088d30 f i imgui.obj
 0001:00087d70       ?IsDataType@ImGuiPayload@@QEBA_NPEBD@Z 0000000140088d70 f i imgui.obj
 0001:00087dd0       ?IsDelivery@ImGuiPayload@@QEBA_NXZ 0000000140088dd0 f i imgui.obj
 0001:00087de0       ?IsDockSpace@ImGuiDockNode@@QEBA_NXZ 0000000140088de0 f i imgui.obj
 0001:00087e20       ?IsEmpty@ImGuiDockNode@@QEBA_NXZ 0000000140088e20 f i imgui.obj
 0001:00087e70       ?IsFloatingNode@ImGuiDockNode@@QEBA_NXZ 0000000140088e70 f i imgui.obj
 0001:00087eb0       ?IsHiddenTabBar@ImGuiDockNode@@QEBA_NXZ 0000000140088eb0 f i imgui.obj
 0001:00087ef0       ?IsInverted@ImRect@@QEBA_NXZ 0000000140088ef0 f i imgui.obj
 0001:00087f40       ?IsKeyPressedMap@ImGui@@YA_NH_N@Z 0000000140088f40 f i imgui.obj
 0001:00087fa0       ?IsLeafNode@ImGuiDockNode@@QEBA_NXZ 0000000140088fa0 f i imgui.obj
 0001:00087fe0       ?IsLoaded@ImFont@@QEBA_NXZ 0000000140088fe0 f i imgui.obj
 0001:00088010       ?IsNavInputDown@ImGui@@YA_NH@Z 0000000140089010 f i imgui.obj
 0001:00088060       ?IsNavInputTest@ImGui@@YA_NHW4ImGuiInputReadMode@@@Z 0000000140089060 f i imgui.obj
 0001:000880a0       ?IsNoTabBar@ImGuiDockNode@@QEBA_NXZ 00000001400890a0 f i imgui.obj
 0001:000880e0       ?IsPreview@ImGuiPayload@@QEBA_NXZ 00000001400890e0 f i imgui.obj
 0001:000880f0       ?IsRootNode@ImGuiDockNode@@QEBA_NXZ 00000001400890f0 f i imgui.obj
 0001:00088120       ?IsSplitNode@ImGuiDockNode@@QEBA_NXZ 0000000140089120 f i imgui.obj
 0001:00088160       ?MenuBarHeight@ImGuiWindow@@QEBAMXZ 0000000140089160 f i imgui.obj
 0001:000881e0       ?MenuBarRect@ImGuiWindow@@QEBA?AUImRect@@XZ 00000001400891e0 f i imgui.obj
 0001:0008ada0       ?Overlaps@ImRect@@QEBA_NAEBU1@@Z 000000014008bda0 f i imgui.obj
 0001:0008ae60       ?PathFillConvex@ImDrawList@@QEAAXI@Z 000000014008be60 f i imgui.obj
 0001:0008aeb0       ?PathLineTo@ImDrawList@@QEAAXAEBUImVec2@@@Z 000000014008beb0 f i imgui.obj
 0001:0008aef0       ?PathStroke@ImDrawList@@QEAAXI_NM@Z 000000014008bef0 f i imgui.obj
 0001:0008af60       ?Rect@ImGuiDockNode@@QEBA?AUImRect@@XZ 000000014008bf60 f i imgui.obj
 0001:0008afd0       ?Rect@ImGuiWindow@@QEBA?AUImRect@@XZ 000000014008bfd0 f i imgui.obj
 0001:0008b040       ?Reserve@?$ImPool@UImGuiDockContextPruneNodeData@@@@QEAAXH@Z 000000014008c040 f i imgui.obj
 0001:0008b090       ?TitleBarHeight@ImGuiWindow@@QEBAMXZ 000000014008c090 f i imgui.obj
 0001:0008b100       ?TitleBarRect@ImGuiWindow@@QEBA?AUImRect@@XZ 000000014008c100 f i imgui.obj
 0001:0008b190       ?Translate@ImRect@@QEAAXAEBUImVec2@@@Z 000000014008c190 f i imgui.obj
 0001:0008b210       ?TranslateX@ImRect@@QEAAXM@Z 000000014008c210 f i imgui.obj
 0001:0008b250       ?TranslateY@ImRect@@QEAAXM@Z 000000014008c250 f i imgui.obj
 0001:0008b290       ?_grow_capacity@?$ImVector@PEAUMyDocument@@@@QEBAHH@Z 000000014008c290 f i imgui_demo.obj
 0001:0008b290       ?_grow_capacity@?$ImVector@UImFontConfig@@@@QEBAHH@Z 000000014008c290 f i imgui_draw.obj
 0001:0008b290       ?_grow_capacity@?$ImVector@Ustbrp_rect@@@@QEBAHH@Z 000000014008c290 f i imgui_draw.obj
 0001:0008b290       ?_grow_capacity@?$ImVector@UImFontGlyph@@@@QEBAHH@Z 000000014008c290 f i imgui_draw.obj
 0001:0008b290       ?_grow_capacity@?$ImVector@UImGuiDockContextPruneNodeData@@@@QEBAHH@Z 000000014008c290 f i imgui.obj
 0001:0008b290       ?_grow_capacity@?$ImVector@UImGuiColumnData@@@@QEBAHH@Z 000000014008c290 f i imgui_widgets.obj
 0001:0008b290       ?_grow_capacity@?$ImVector@UImGuiPopupData@@@@QEBAHH@Z 000000014008c290 f i imgui.obj
 0001:0008b290       ?_grow_capacity@?$ImVector@UImGuiSettingsHandler@@@@QEBAHH@Z 000000014008c290 f i imgui.obj
 0001:0008b290       ?_grow_capacity@?$ImVector@UImGuiTabBar@@@@QEBAHH@Z 000000014008c290 f i imgui_widgets.obj
 0001:0008b290       ?_grow_capacity@?$ImVector@PEAUImGuiViewportP@@@@QEBAHH@Z 000000014008c290 f i imgui.obj
 0001:0008b290       ?_grow_capacity@?$ImVector@PEAD@@QEBAHH@Z 000000014008c290 f i imgui_demo.obj
 0001:0008b290       ?_grow_capacity@?$ImVector@UImGuiColumns@@@@QEBAHH@Z 000000014008c290 f i imgui_widgets.obj
 0001:0008b290       ?_grow_capacity@?$ImVector@I@@QEBAHH@Z 000000014008c290 f i imgui.obj
 0001:0008b290       ?_grow_capacity@?$ImVector@PEAUImGuiViewport@@@@QEBAHH@Z 000000014008c290 f i imgui.obj
 0001:0008b290       ?_grow_capacity@?$ImVector@D@@QEBAHH@Z 000000014008c290 f i imgui.obj
 0001:0008b290       ?_grow_capacity@?$ImVector@UImGuiDockRequest@@@@QEBAHH@Z 000000014008c290 f i imgui.obj
 0001:0008b290       ?_grow_capacity@?$ImVector@PEAUImGuiDockNode@@@@QEBAHH@Z 000000014008c290 f i imgui.obj
 0001:0008b290       ?_grow_capacity@?$ImVector@UImVec4@@@@QEBAHH@Z 000000014008c290 f i imgui_draw.obj
 0001:0008b290       ?_grow_capacity@?$ImVector@UImGuiShrinkWidthItem@@@@QEBAHH@Z 000000014008c290 f i imgui_widgets.obj
 0001:0008b290       ?_grow_capacity@?$ImVector@UImFontBuildSrcData@@@@QEBAHH@Z 000000014008c290 f i imgui_draw.obj
 0001:0008b290       ?_grow_capacity@?$ImVector@UImGuiStoragePair@ImGuiStorage@@@@QEBAHH@Z 000000014008c290 f i imgui.obj
 0001:0008b290       ?_grow_capacity@?$ImVector@PEBD@@QEBAHH@Z 000000014008c290 f i imgui_demo.obj
 0001:0008b290       ?_grow_capacity@?$ImVector@UImGuiTabItem@@@@QEBAHH@Z 000000014008c290 f i imgui_widgets.obj
 0001:0008b290       ?_grow_capacity@?$ImVector@E@@QEBAHH@Z 000000014008c290 f i imgui.obj
 0001:0008b290       ?_grow_capacity@?$ImVector@UImGuiGroupData@@@@QEBAHH@Z 000000014008c290 f i imgui.obj
 0001:0008b290       ?_grow_capacity@?$ImVector@Ustbtt_packedchar@@@@QEBAHH@Z 000000014008c290 f i imgui_draw.obj
 0001:0008b290       ?_grow_capacity@?$ImVector@UImDrawCmd@@@@QEBAHH@Z 000000014008c290 f i imgui_draw.obj
 0001:0008b290       ?_grow_capacity@?$ImVector@H@@QEBAHH@Z 000000014008c290 f i imgui.obj
 0001:0008b290       ?_grow_capacity@?$ImVector@UImGuiColorMod@@@@QEBAHH@Z 000000014008c290 f i imgui.obj
 0001:0008b290       ?_grow_capacity@?$ImVector@PEAX@@QEBAHH@Z 000000014008c290 f i imgui_draw.obj
 0001:0008b290       ?_grow_capacity@?$ImVector@PEAUImFont@@@@QEBAHH@Z 000000014008c290 f i imgui.obj
 0001:0008b290       ?_grow_capacity@?$ImVector@UMyDocument@@@@QEBAHH@Z 000000014008c290 f i imgui_demo.obj
 0001:0008b290       ?_grow_capacity@?$ImVector@M@@QEBAHH@Z 000000014008c290 f i imgui.obj
 0001:0008b290       ?_grow_capacity@?$ImVector@G@@QEBAHH@Z 000000014008c290 f i imgui.obj
 0001:0008b290       ?_grow_capacity@?$ImVector@PEAUImGuiWindow@@@@QEBAHH@Z 000000014008c290 f i imgui.obj
 0001:0008b290       ?_grow_capacity@?$ImVector@UImGuiStyleMod@@@@QEBAHH@Z 000000014008c290 f i imgui.obj
 0001:0008b290       ?_grow_capacity@?$ImVector@PEAUImDrawList@@@@QEBAHH@Z 000000014008c290 f i imgui.obj
 0001:0008b290       ?_grow_capacity@?$ImVector@UImDrawChannel@@@@QEBAHH@Z 000000014008c290 f i imgui_draw.obj
 0001:0008b290       ?_grow_capacity@?$ImVector@UImFontBuildDstData@@@@QEBAHH@Z 000000014008c290 f i imgui_draw.obj
 0001:0008b290       ?_grow_capacity@?$ImVector@UImGuiTextRange@ImGuiTextFilter@@@@QEBAHH@Z 000000014008c290 f i imgui.obj
 0001:0008b290       ?_grow_capacity@?$ImVector@UImFontAtlasCustomRect@@@@QEBAHH@Z 000000014008c290 f i imgui_draw.obj
 0001:0008b290       ?_grow_capacity@?$ImVector@UImVec2@@@@QEBAHH@Z 000000014008c290 f i imgui.obj
 0001:0008b290       ?_grow_capacity@?$ImVector@UImGuiPtrOrIndex@@@@QEBAHH@Z 000000014008c290 f i imgui_widgets.obj
 0001:0008b290       ?_grow_capacity@?$ImVector@UImDrawVert@@@@QEBAHH@Z 000000014008c290 f i imgui_draw.obj
 0001:0008b290       ?_grow_capacity@?$ImVector@UImGuiPlatformMonitor@@@@QEBAHH@Z 000000014008c290 f i imgui_impl_glfw.obj
 0001:0008b290       ?_grow_capacity@?$ImVector@UImGuiDockNodeSettings@@@@QEBAHH@Z 000000014008c290 f i imgui.obj
 0001:0008b300       ?alloc_chunk@?$ImChunkStream@UImGuiWindowSettings@@@@QEAAPEAUImGuiWindowSettings@@_K@Z 000000014008c300 f i imgui.obj
 0001:0008b3a0       ?back@?$ImVector@H@@QEAAAEAHXZ 000000014008c3a0 f i imgui.obj
 0001:0008b3a0       ?back@?$ImVector@I@@QEAAAEAIXZ 000000014008c3a0 f i imgui.obj
 0001:0008b3a0       ?back@?$ImVector@M@@QEAAAEAMXZ 000000014008c3a0 f i imgui.obj
 0001:0008b3f0       ?back@?$ImVector@PEAUImFont@@@@QEAAAEAPEAUImFont@@XZ 000000014008c3f0 f i imgui.obj
 0001:0008b3f0       ?back@?$ImVector@PEAUImGuiWindow@@@@QEAAAEAPEAUImGuiWindow@@XZ 000000014008c3f0 f i imgui.obj
 0001:0008b3f0       ?back@?$ImVector@UImVec2@@@@QEAAAEAUImVec2@@XZ 000000014008c3f0 f i imgui_draw.obj
 0001:0008b3f0       ?back@?$ImVector@PEAX@@QEAAAEAPEAXXZ 000000014008c3f0 f i imgui_draw.obj
 0001:0008b440       ?back@?$ImVector@UImDrawCmd@@@@QEAAAEAUImDrawCmd@@XZ 000000014008c440 f i imgui.obj
 0001:0008b490       ?back@?$ImVector@UImGuiColorMod@@@@QEAAAEAUImGuiColorMod@@XZ 000000014008c490 f i imgui.obj
 0001:0008b4e0       ?back@?$ImVector@UImGuiGroupData@@@@QEAAAEAUImGuiGroupData@@XZ 000000014008c4e0 f i imgui.obj
 0001:0008b530       ?back@?$ImVector@UImGuiPopupData@@@@QEAAAEAUImGuiPopupData@@XZ 000000014008c530 f i imgui.obj
 0001:0008b580       ?back@?$ImVector@UImGuiStyleMod@@@@QEAAAEAUImGuiStyleMod@@XZ 000000014008c580 f i imgui.obj
 0001:0008b5d0       ?back@?$ImVector@UImGuiTabItem@@@@QEAAAEAUImGuiTabItem@@XZ 000000014008c5d0 f i imgui.obj
 0001:0008b5d0       ?back@?$ImVector@UImFontGlyph@@@@QEAAAEAUImFontGlyph@@XZ 000000014008c5d0 f i imgui_draw.obj
 0001:0008b620       ?back@?$ImVector@UImVec4@@@@QEAAAEAUImVec4@@XZ 000000014008c620 f i imgui.obj
 0001:0008b620       ?back@?$ImVector@UImGuiPtrOrIndex@@@@QEAAAEAUImGuiPtrOrIndex@@XZ 000000014008c620 f i imgui_widgets.obj
 0001:0008b670       ?begin@?$ImChunkStream@UImGuiWindowSettings@@@@QEAAPEAUImGuiWindowSettings@@XZ 000000014008c670 f i imgui.obj
 0001:0008b6b0       ?begin@ImGuiTextBuffer@@QEBAPEBDXZ 000000014008c6b0 f i imgui.obj
 0001:0008b6f0       ?c_str@ImGuiTextBuffer@@QEBAPEBDXZ 000000014008c6f0 f i imgui.obj
 0001:0008b730       ?chunk_size@?$ImChunkStream@UImGuiWindowSettings@@@@QEAAHPEBUImGuiWindowSettings@@@Z 000000014008c730 f i imgui.obj
 0001:0008b750       ?clear@?$ImVector@UImGuiTabBar@@@@QEAAXXZ 000000014008c750 f i imgui.obj
 0001:0008b750       ?clear@?$ImVector@UImGuiStyleMod@@@@QEAAXXZ 000000014008c750 f i imgui.obj
 0001:0008b750       ?clear@?$ImVector@UImGuiShrinkWidthItem@@@@QEAAXXZ 000000014008c750 f i imgui.obj
 0001:0008b750       ?clear@?$ImVector@UImFontBuildDstData@@@@QEAAXXZ 000000014008c750 f i imgui_draw.obj
 0001:0008b750       ?clear@?$ImVector@UImGuiPtrOrIndex@@@@QEAAXXZ 000000014008c750 f i imgui.obj
 0001:0008b750       ?clear@?$ImVector@PEAD@@QEAAXXZ 000000014008c750 f i imgui_demo.obj
 0001:0008b750       ?clear@?$ImVector@UImGuiDockContextPruneNodeData@@@@QEAAXXZ 000000014008c750 f i imgui.obj
 0001:0008b750       ?clear@?$ImVector@I@@QEAAXXZ 000000014008c750 f i imgui.obj
 0001:0008b750       ?clear@?$ImVector@M@@QEAAXXZ 000000014008c750 f i imgui.obj
 0001:0008b750       ?clear@?$ImVector@H@@QEAAXXZ 000000014008c750 f i imgui.obj
 0001:0008b750       ?clear@?$ImVector@D@@QEAAXXZ 000000014008c750 f i imgui.obj
 0001:0008b750       ?clear@?$ImVector@PEAUImFont@@@@QEAAXXZ 000000014008c750 f i imgui.obj
 0001:0008b750       ?clear@?$ImVector@UImVec4@@@@QEAAXXZ 000000014008c750 f i imgui_draw.obj
 0001:0008b750       ?clear@?$ImVector@UImFontAtlasCustomRect@@@@QEAAXXZ 000000014008c750 f i imgui_draw.obj
 0001:0008b750       ?clear@?$ImVector@UImGuiColorMod@@@@QEAAXXZ 000000014008c750 f i imgui.obj
 0001:0008b750       ?clear@?$ImVector@PEAX@@QEAAXXZ 000000014008c750 f i imgui_draw.obj
 0001:0008b750       ?clear@?$ImVector@PEAUImGuiViewportP@@@@QEAAXXZ 000000014008c750 f i imgui.obj
 0001:0008b750       ?clear@?$ImVector@UImGuiSettingsHandler@@@@QEAAXXZ 000000014008c750 f i imgui.obj
 0001:0008b750       ?clear@?$ImVector@UImGuiStoragePair@ImGuiStorage@@@@QEAAXXZ 000000014008c750 f i imgui.obj
 0001:0008b750       ?clear@?$ImVector@PEAUImGuiWindow@@@@QEAAXXZ 000000014008c750 f i imgui.obj
 0001:0008b750       ?clear@?$ImVector@E@@QEAAXXZ 000000014008c750 f i imgui.obj
 0001:0008b750       ?clear@?$ImVector@UImGuiDockRequest@@@@QEAAXXZ 000000014008c750 f i imgui.obj
 0001:0008b750       ?clear@?$ImVector@PEAUMyDocument@@@@QEAAXXZ 000000014008c750 f i imgui_demo.obj
 0001:0008b750       ?clear@?$ImVector@UImDrawVert@@@@QEAAXXZ 000000014008c750 f i imgui_draw.obj
 0001:0008b750       ?clear@?$ImVector@UImVec2@@@@QEAAXXZ 000000014008c750 f i imgui_demo.obj
 0001:0008b750       ?clear@?$ImVector@UImGuiColumnData@@@@QEAAXXZ 000000014008c750 f i imgui_widgets.obj
 0001:0008b750       ?clear@?$ImVector@G@@QEAAXXZ 000000014008c750 f i imgui.obj
 0001:0008b750       ?clear@?$ImVector@UImGuiGroupData@@@@QEAAXXZ 000000014008c750 f i imgui.obj
 0001:0008b750       ?clear@?$ImVector@UImFontConfig@@@@QEAAXXZ 000000014008c750 f i imgui_draw.obj
 0001:0008b750       ?clear@?$ImVector@UImFontGlyph@@@@QEAAXXZ 000000014008c750 f i imgui_draw.obj
 0001:0008b750       ?clear@?$ImVector@UImGuiPopupData@@@@QEAAXXZ 000000014008c750 f i imgui.obj
 0001:0008b750       ?clear@?$ImVector@UImDrawChannel@@@@QEAAXXZ 000000014008c750 f i imgui_draw.obj
 0001:0008b750       ?clear@?$ImVector@Ustbrp_rect@@@@QEAAXXZ 000000014008c750 f i imgui_draw.obj
 0001:0008b750       ?clear@?$ImVector@UImDrawCmd@@@@QEAAXXZ 000000014008c750 f i imgui_draw.obj
 0001:0008b7a0       ?contains@?$ImVector@I@@QEBA_NAEBI@Z 000000014008c7a0 f i imgui.obj
 0001:0008b820       ?contains@?$ImVector@PEAUImGuiViewport@@@@QEBA_NAEBQEAUImGuiViewport@@@Z 000000014008c820 f i imgui.obj
 0001:0008b8a0       ?empty@?$ImVector@UImFontGlyph@@@@QEBA_NXZ 000000014008c8a0 f i imgui_widgets.obj
 0001:0008b8a0       ?empty@?$ImVector@D@@QEBA_NXZ 000000014008c8a0 f i imgui_demo.obj
 0001:0008b8a0       ?empty@?$ImVector@PEAUMyDocument@@@@QEBA_NXZ 000000014008c8a0 f i imgui_demo.obj
 0001:0008b8a0       ?empty@?$ImVector@G@@QEBA_NXZ 000000014008c8a0 f i imgui_widgets.obj
 0001:0008b8a0       ?empty@?$ImVector@PEAUImGuiWindow@@@@QEBA_NXZ 000000014008c8a0 f i imgui.obj
 0001:0008b8a0       ?empty@?$ImVector@I@@QEBA_NXZ 000000014008c8a0 f i imgui_draw.obj
 0001:0008b8a0       ?empty@?$ImChunkStream@UImGuiWindowSettings@@@@QEBA_NXZ 000000014008c8a0 f i imgui.obj
 0001:0008b8a0       ?empty@?$ImVector@UImGuiGroupData@@@@QEBA_NXZ 000000014008c8a0 f i imgui.obj
 0001:0008b8a0       ?empty@?$ImVector@PEAUImDrawList@@@@QEBA_NXZ 000000014008c8a0 f i imgui.obj
 0001:0008b8a0       ?empty@?$ImVector@PEAX@@QEBA_NXZ 000000014008c8a0 f i imgui_draw.obj
 0001:0008b8a0       ?empty@?$ImVector@PEAUImFont@@@@QEBA_NXZ 000000014008c8a0 f i imgui.obj
 0001:0008b8a0       ?empty@?$ImVector@M@@QEBA_NXZ 000000014008c8a0 f i imgui.obj
 0001:0008b8a0       ?empty@?$ImVector@H@@QEBA_NXZ 000000014008c8a0 f i imgui.obj
 0001:0008b8a0       ?empty@?$ImVector@UImFontConfig@@@@QEBA_NXZ 000000014008c8a0 f i imgui_draw.obj
 0001:0008b8a0       ?empty@?$ImVector@UImVec2@@@@QEBA_NXZ 000000014008c8a0 f i imgui_demo.obj
 0001:0008b8a0       ?empty@?$ImVector@UImGuiPtrOrIndex@@@@QEBA_NXZ 000000014008c8a0 f i imgui_widgets.obj
 0001:0008b8a0       ?empty@?$ImVector@UImDrawCmd@@@@QEBA_NXZ 000000014008c8a0 f i imgui.obj
 0001:0008b8a0       ?empty@?$ImVector@UImGuiPopupData@@@@QEBA_NXZ 000000014008c8a0 f i imgui.obj
 0001:0008b8a0       ?empty@?$ImVector@UImGuiTextRange@ImGuiTextFilter@@@@QEBA_NXZ 000000014008c8a0 f i imgui.obj
 0001:0008b8d0       ?empty@ImGuiTextBuffer@@QEBA_NXZ 000000014008c8d0 f i imgui.obj
 0001:0008b900       ?empty@ImGuiTextRange@ImGuiTextFilter@@QEBA_NXZ 000000014008c900 f i imgui.obj
 0001:0008b940       ?end@?$ImChunkStream@UImGuiWindowSettings@@@@QEAAPEAUImGuiWindowSettings@@XZ 000000014008c940 f i imgui.obj
 0001:0008b960       ?end@?$ImVector@UImDrawCmd@@@@QEAAPEAUImDrawCmd@@XZ 000000014008c960 f i imgui.obj
 0001:0008b980       ?end@?$ImVector@UImGuiStoragePair@ImGuiStorage@@@@QEBAPEBUImGuiStoragePair@ImGuiStorage@@XZ 000000014008c980 f i imgui.obj
 0001:0008b980       ?end@?$ImVector@UImGuiStoragePair@ImGuiStorage@@@@QEAAPEAUImGuiStoragePair@ImGuiStorage@@XZ 000000014008c980 f i imgui.obj
 0001:0008b9a0       ?erase@?$ImVector@PEAUImGuiViewportP@@@@QEAAPEAPEAUImGuiViewportP@@PEBQEAU2@@Z 000000014008c9a0 f i imgui.obj
 0001:0008b9a0       ?erase@?$ImVector@PEAUImGuiWindow@@@@QEAAPEAPEAUImGuiWindow@@PEBQEAU2@@Z 000000014008c9a0 f i imgui.obj
 0001:0008b9a0       ?erase@?$ImVector@PEAD@@QEAAPEAPEADPEBQEAD@Z 000000014008c9a0 f i imgui_demo.obj
 0001:0008ba90       ?front@?$ImVector@D@@QEBAAEBDXZ 000000014008ca90 f i imgui.obj
 0001:0008bae0       ?index_from_ptr@?$ImVector@UImGuiTabItem@@@@QEBAHPEBUImGuiTabItem@@@Z 000000014008cae0 f i imgui.obj
 0001:0008bb70       ?insert@?$ImVector@PEAUImGuiWindow@@@@QEAAPEAPEAUImGuiWindow@@PEBQEAU2@AEBQEAU2@@Z 000000014008cb70 f i imgui.obj
 0001:0008bcc0       ?insert@?$ImVector@UImGuiStoragePair@ImGuiStorage@@@@QEAAPEAUImGuiStoragePair@ImGuiStorage@@PEBU23@AEBU23@@Z 000000014008ccc0 f i imgui.obj
 0001:0008be10       ?next_chunk@?$ImChunkStream@UImGuiWindowSettings@@@@QEAAPEAUImGuiWindowSettings@@PEAU2@@Z 000000014008ce10 f i imgui.obj
 0001:0008bee0       ?offset_from_ptr@?$ImChunkStream@UImGuiWindowSettings@@@@QEAAHPEBUImGuiWindowSettings@@@Z 000000014008cee0 f i imgui.obj
 0001:0008bf50       ?pop_back@?$ImVector@H@@QEAAXXZ 000000014008cf50 f i imgui.obj
 0001:0008bf50       ?pop_back@?$ImVector@UImGuiColorMod@@@@QEAAXXZ 000000014008cf50 f i imgui.obj
 0001:0008bf50       ?pop_back@?$ImVector@I@@QEAAXXZ 000000014008cf50 f i imgui.obj
 0001:0008bf50       ?pop_back@?$ImVector@UImDrawCmd@@@@QEAAXXZ 000000014008cf50 f i imgui.obj
 0001:0008bf50       ?pop_back@?$ImVector@UImGuiPtrOrIndex@@@@QEAAXXZ 000000014008cf50 f i imgui_widgets.obj
 0001:0008bf50       ?pop_back@?$ImVector@PEAUImGuiWindow@@@@QEAAXXZ 000000014008cf50 f i imgui.obj
 0001:0008bf50       ?pop_back@?$ImVector@PEAX@@QEAAXXZ 000000014008cf50 f i imgui_draw.obj
 0001:0008bf50       ?pop_back@?$ImVector@UImGuiGroupData@@@@QEAAXXZ 000000014008cf50 f i imgui.obj
 0001:0008bf50       ?pop_back@?$ImVector@UImGuiPopupData@@@@QEAAXXZ 000000014008cf50 f i imgui.obj
 0001:0008bf50       ?pop_back@?$ImVector@UImVec2@@@@QEAAXXZ 000000014008cf50 f i imgui_demo.obj
 0001:0008bf50       ?pop_back@?$ImVector@PEAUImFont@@@@QEAAXXZ 000000014008cf50 f i imgui.obj
 0001:0008bf50       ?pop_back@?$ImVector@UImGuiStyleMod@@@@QEAAXXZ 000000014008cf50 f i imgui.obj
 0001:0008bf50       ?pop_back@?$ImVector@M@@QEAAXXZ 000000014008cf50 f i imgui.obj
 0001:0008bf50       ?pop_back@?$ImVector@UImVec4@@@@QEAAXXZ 000000014008cf50 f i imgui_draw.obj
 0001:0008bfa0       ?ptr_from_offset@?$ImChunkStream@UImGuiWindowSettings@@@@QEAAPEAUImGuiWindowSettings@@H@Z 000000014008cfa0 f i imgui.obj
 0001:0008bff0       ?push_back@?$ImVector@D@@QEAAXAEBD@Z 000000014008cff0 f i imgui.obj
 0001:0008c070       ?push_back@?$ImVector@G@@QEAAXAEBG@Z 000000014008d070 f i imgui.obj
 0001:0008c0f0       ?push_back@?$ImVector@I@@QEAAXAEBI@Z 000000014008d0f0 f i imgui.obj
 0001:0008c0f0       ?push_back@?$ImVector@H@@QEAAXAEBH@Z 000000014008d0f0 f i imgui.obj
 0001:0008c0f0       ?push_back@?$ImVector@M@@QEAAXAEBM@Z 000000014008d0f0 f i imgui.obj
 0001:0008c160       ?push_back@?$ImVector@PEAUImFont@@@@QEAAXAEBQEAUImFont@@@Z 000000014008d160 f i imgui.obj
 0001:0008c160       ?push_back@?$ImVector@PEAD@@QEAAXAEBQEAD@Z 000000014008d160 f i imgui_demo.obj
 0001:0008c160       ?push_back@?$ImVector@PEAUImGuiViewportP@@@@QEAAXAEBQEAUImGuiViewportP@@@Z 000000014008d160 f i imgui.obj
 0001:0008c160       ?push_back@?$ImVector@PEAX@@QEAAXAEBQEAX@Z 000000014008d160 f i imgui_draw.obj
 0001:0008c160       ?push_back@?$ImVector@PEAUMyDocument@@@@QEAAXAEBQEAUMyDocument@@@Z 000000014008d160 f i imgui_demo.obj
 0001:0008c160       ?push_back@?$ImVector@PEAUImDrawList@@@@QEAAXAEBQEAUImDrawList@@@Z 000000014008d160 f i imgui.obj
 0001:0008c160       ?push_back@?$ImVector@PEBD@@QEAAXAEBQEBD@Z 000000014008d160 f i imgui_demo.obj
 0001:0008c160       ?push_back@?$ImVector@PEAUImGuiWindow@@@@QEAAXAEBQEAUImGuiWindow@@@Z 000000014008d160 f i imgui.obj
 0001:0008c160       ?push_back@?$ImVector@PEAUImGuiViewport@@@@QEAAXAEBQEAUImGuiViewport@@@Z 000000014008d160 f i imgui.obj
 0001:0008c160       ?push_back@?$ImVector@UImVec2@@@@QEAAXAEBUImVec2@@@Z 000000014008d160 f i imgui.obj
 0001:0008c160       ?push_back@?$ImVector@PEAUImGuiDockNode@@@@QEAAXAEBQEAUImGuiDockNode@@@Z 000000014008d160 f i imgui.obj
 0001:0008c1e0       ?push_back@?$ImVector@UImGuiColorMod@@@@QEAAXAEBUImGuiColorMod@@@Z 000000014008d1e0 f i imgui.obj
 0001:0008c260       ?push_back@?$ImVector@UImGuiDockNodeSettings@@@@QEAAXAEBUImGuiDockNodeSettings@@@Z 000000014008d260 f i imgui.obj
 0001:0008c260       ?push_back@?$ImVector@UImGuiPlatformMonitor@@@@QEAAXAEBUImGuiPlatformMonitor@@@Z 000000014008d260 f i imgui_impl_glfw.obj
 0001:0008c2e0       ?push_back@?$ImVector@UImGuiDockRequest@@@@QEAAXAEBUImGuiDockRequest@@@Z 000000014008d2e0 f i imgui.obj
 0001:0008c360       ?push_back@?$ImVector@UImGuiPopupData@@@@QEAAXAEBUImGuiPopupData@@@Z 000000014008d360 f i imgui.obj
 0001:0008c360       ?push_back@?$ImVector@UImGuiSettingsHandler@@@@QEAAXAEBUImGuiSettingsHandler@@@Z 000000014008d360 f i imgui.obj
 0001:0008c3e0       ?push_back@?$ImVector@UImGuiStyleMod@@@@QEAAXAEBUImGuiStyleMod@@@Z 000000014008d3e0 f i imgui.obj
 0001:0008c460       ?push_back@?$ImVector@UImGuiTextRange@ImGuiTextFilter@@@@QEAAXAEBUImGuiTextRange@ImGuiTextFilter@@@Z 000000014008d460 f i imgui.obj
 0001:0008c460       ?push_back@?$ImVector@UImGuiPtrOrIndex@@@@QEAAXAEBUImGuiPtrOrIndex@@@Z 000000014008d460 f i imgui_widgets.obj
 0001:0008c460       ?push_back@?$ImVector@UImVec4@@@@QEAAXAEBUImVec4@@@Z 000000014008d460 f i imgui_draw.obj
 0001:0008c4e0       ?push_front@?$ImVector@PEAUImGuiWindow@@@@QEAAXAEBQEAUImGuiWindow@@@Z 000000014008d4e0 f i imgui.obj
 0001:0008c530       ?reserve@?$ImVector@E@@QEAAXH@Z 000000014008d530 f i imgui.obj
 0001:0008c530       ?reserve@?$ImVector@D@@QEAAXH@Z 000000014008d530 f i imgui.obj
 0001:0008c5c0       ?reserve@?$ImVector@G@@QEAAXH@Z 000000014008d5c0 f i imgui.obj
 0001:0008c650       ?reserve@?$ImVector@I@@QEAAXH@Z 000000014008d650 f i imgui.obj
 0001:0008c650       ?reserve@?$ImVector@H@@QEAAXH@Z 000000014008d650 f i imgui.obj
 0001:0008c650       ?reserve@?$ImVector@M@@QEAAXH@Z 000000014008d650 f i imgui.obj
 0001:0008c6e0       ?reserve@?$ImVector@PEAUImDrawList@@@@QEAAXH@Z 000000014008d6e0 f i imgui.obj
 0001:0008c6e0       ?reserve@?$ImVector@PEAUMyDocument@@@@QEAAXH@Z 000000014008d6e0 f i imgui_demo.obj
 0001:0008c6e0       ?reserve@?$ImVector@UImGuiShrinkWidthItem@@@@QEAAXH@Z 000000014008d6e0 f i imgui_widgets.obj
 0001:0008c6e0       ?reserve@?$ImVector@UImVec2@@@@QEAAXH@Z 000000014008d6e0 f i imgui.obj
 0001:0008c6e0       ?reserve@?$ImVector@PEAX@@QEAAXH@Z 000000014008d6e0 f i imgui_draw.obj
 0001:0008c6e0       ?reserve@?$ImVector@PEAD@@QEAAXH@Z 000000014008d6e0 f i imgui_demo.obj
 0001:0008c6e0       ?reserve@?$ImVector@PEAUImFont@@@@QEAAXH@Z 000000014008d6e0 f i imgui.obj
 0001:0008c6e0       ?reserve@?$ImVector@PEAUImGuiDockNode@@@@QEAAXH@Z 000000014008d6e0 f i imgui.obj
 0001:0008c6e0       ?reserve@?$ImVector@PEAUImGuiWindow@@@@QEAAXH@Z 000000014008d6e0 f i imgui.obj
 0001:0008c6e0       ?reserve@?$ImVector@PEBD@@QEAAXH@Z 000000014008d6e0 f i imgui_demo.obj
 0001:0008c6e0       ?reserve@?$ImVector@PEAUImGuiViewportP@@@@QEAAXH@Z 000000014008d6e0 f i imgui.obj
 0001:0008c6e0       ?reserve@?$ImVector@PEAUImGuiViewport@@@@QEAAXH@Z 000000014008d6e0 f i imgui.obj
 0001:0008c770       ?reserve@?$ImVector@UImDrawVert@@@@QEAAXH@Z 000000014008d770 f i imgui.obj
 0001:0008c770       ?reserve@?$ImVector@UImGuiColorMod@@@@QEAAXH@Z 000000014008d770 f i imgui.obj
 0001:0008c800       ?reserve@?$ImVector@UImGuiDockContextPruneNodeData@@@@QEAAXH@Z 000000014008d800 f i imgui.obj
 0001:0008c800       ?reserve@?$ImVector@UImGuiStoragePair@ImGuiStorage@@@@QEAAXH@Z 000000014008d800 f i imgui.obj
 0001:0008c800       ?reserve@?$ImVector@UImVec4@@@@QEAAXH@Z 000000014008d800 f i imgui_draw.obj
 0001:0008c800       ?reserve@?$ImVector@UImGuiPtrOrIndex@@@@QEAAXH@Z 000000014008d800 f i imgui_widgets.obj
 0001:0008c800       ?reserve@?$ImVector@Ustbrp_rect@@@@QEAAXH@Z 000000014008d800 f i imgui_draw.obj
 0001:0008c800       ?reserve@?$ImVector@UImGuiTextRange@ImGuiTextFilter@@@@QEAAXH@Z 000000014008d800 f i imgui.obj
 0001:0008c890       ?reserve@?$ImVector@UImGuiDockNodeSettings@@@@QEAAXH@Z 000000014008d890 f i imgui.obj
 0001:0008c890       ?reserve@?$ImVector@UImGuiPlatformMonitor@@@@QEAAXH@Z 000000014008d890 f i imgui_impl_glfw.obj
 0001:0008c920       ?reserve@?$ImVector@UImGuiDockRequest@@@@QEAAXH@Z 000000014008d920 f i imgui.obj
 0001:0008c9b0       ?reserve@?$ImVector@UImGuiGroupData@@@@QEAAXH@Z 000000014008d9b0 f i imgui.obj
 0001:0008ca40       ?reserve@?$ImVector@UImGuiPopupData@@@@QEAAXH@Z 000000014008da40 f i imgui.obj
 0001:0008ca40       ?reserve@?$ImVector@UImGuiSettingsHandler@@@@QEAAXH@Z 000000014008da40 f i imgui.obj
 0001:0008cad0       ?reserve@?$ImVector@UImGuiStyleMod@@@@QEAAXH@Z 000000014008dad0 f i imgui.obj
 0001:0008cb60       ?reserve@ImGuiTextBuffer@@QEAAXH@Z 000000014008db60 f i imgui.obj
 0001:0008cb90       ?resize@?$ImVector@D@@QEAAXH@Z 000000014008db90 f i imgui.obj
 0001:0008cb90       ?resize@?$ImVector@E@@QEAAXH@Z 000000014008db90 f i imgui.obj
 0001:0008cbe0       ?resize@?$ImVector@G@@QEAAXH@Z 000000014008dbe0 f i imgui.obj
 0001:0008cc30       ?resize@?$ImVector@M@@QEAAXH@Z 000000014008dc30 f i imgui.obj
 0001:0008cc30       ?resize@?$ImVector@H@@QEAAXH@Z 000000014008dc30 f i imgui.obj
 0001:0008cc30       ?resize@?$ImVector@I@@QEAAXH@Z 000000014008dc30 f i imgui.obj
 0001:0008cc80       ?resize@?$ImVector@UImGuiShrinkWidthItem@@@@QEAAXH@Z 000000014008dc80 f i imgui_widgets.obj
 0001:0008cc80       ?resize@?$ImVector@PEAUImGuiViewport@@@@QEAAXH@Z 000000014008dc80 f i imgui.obj
 0001:0008cc80       ?resize@?$ImVector@PEAUImGuiWindow@@@@QEAAXH@Z 000000014008dc80 f i imgui.obj
 0001:0008cc80       ?resize@?$ImVector@PEAUImDrawList@@@@QEAAXH@Z 000000014008dc80 f i imgui.obj
 0001:0008cc80       ?resize@?$ImVector@PEAX@@QEAAXH@Z 000000014008dc80 f i imgui_draw.obj
 0001:0008cc80       ?resize@?$ImVector@UImVec2@@@@QEAAXH@Z 000000014008dc80 f i imgui_draw.obj
 0001:0008ccd0       ?resize@?$ImVector@Ustbrp_rect@@@@QEAAXH@Z 000000014008dcd0 f i imgui_draw.obj
 0001:0008ccd0       ?resize@?$ImVector@UImGuiTextRange@ImGuiTextFilter@@@@QEAAXH@Z 000000014008dcd0 f i imgui.obj
 0001:0008ccd0       ?resize@?$ImVector@UImVec4@@@@QEAAXH@Z 000000014008dcd0 f i imgui_draw.obj
 0001:0008ccd0       ?resize@?$ImVector@UImGuiDockContextPruneNodeData@@@@QEAAXH@Z 000000014008dcd0 f i imgui.obj
 0001:0008cd20       ?resize@?$ImVector@UImGuiPlatformMonitor@@@@QEAAXH@Z 000000014008dd20 f i imgui_impl_glfw.obj
 0001:0008cd20       ?resize@?$ImVector@UImGuiDockNodeSettings@@@@QEAAXH@Z 000000014008dd20 f i imgui.obj
 0001:0008cd70       ?resize@?$ImVector@UImGuiDockRequest@@@@QEAAXH@Z 000000014008dd70 f i imgui.obj
 0001:0008cdc0       ?resize@?$ImVector@UImGuiGroupData@@@@QEAAXH@Z 000000014008ddc0 f i imgui.obj
 0001:0008ce10       ?resize@?$ImVector@UImGuiPopupData@@@@QEAAXH@Z 000000014008de10 f i imgui.obj
 0001:0008ce60       ?size@ImGuiTextBuffer@@QEBAHXZ 000000014008de60 f i imgui.obj
 0001:0008ce90       ?size_in_bytes@?$ImVector@UImGuiStoragePair@ImGuiStorage@@@@QEBAHXZ 000000014008de90 f i imgui.obj
 0001:0008ce90       ?size_in_bytes@?$ImVector@Ustbrp_rect@@@@QEBAHXZ 000000014008de90 f i imgui_draw.obj
 0001:0008cea0       ?swap@?$ImVector@PEAUImGuiWindow@@@@QEAAXAEAU1@@Z 000000014008dea0 f i imgui.obj
 0001:0008cea0       ?swap@?$ImVector@UImDrawVert@@@@QEAAXAEAU1@@Z 000000014008dea0 f i imgui_draw.obj
 0001:0008cf30       _vsnprintf                 000000014008df30 f i imgui.obj
 0001:0008cf70       _vsnprintf_l               000000014008df70 f i imgui.obj
 0001:0008cff0       _vsscanf_l                 000000014008dff0 f i imgui.obj
 0001:0008d040       fabsf                      000000014008e040 f i imgui.obj
 0001:0008d060       sscanf                     000000014008e060 f i imgui.obj
 0001:0008d0b0       ?ShowDemoWindow@ImGui@@YAXPEA_N@Z 000000014008e0b0 f   imgui_demo.obj
 0001:0008df20       ?ShowAboutWindow@ImGui@@YAXPEA_N@Z 000000014008ef20 f   imgui_demo.obj
 0001:0008e6f0       ?ShowStyleEditor@ImGui@@YAXPEAUImGuiStyle@@@Z 000000014008f6f0 f   imgui_demo.obj
 0001:00090510       ?ShowStyleSelector@ImGui@@YA_NPEBD@Z 0000000140091510 f   imgui_demo.obj
 0001:00090590       ?ShowFontSelector@ImGui@@YAXPEBD@Z 0000000140091590 f   imgui_demo.obj
 0001:000906e0       ?ShowUserGuide@ImGui@@YAXXZ 00000001400916e0 f   imgui_demo.obj
 0001:000a16d0       ??0ExampleAppConsole@@QEAA@XZ 00000001400a26d0 f i imgui_demo.obj
 0001:000a1880       ??0ExampleAppDocuments@@QEAA@XZ 00000001400a2880 f i imgui_demo.obj
 0001:000a1b20       ??0ExampleAppLog@@QEAA@XZ  00000001400a2b20 f i imgui_demo.obj
 0001:000a1b90       ??0ImColor@@QEAA@AEBUImVec4@@@Z 00000001400a2b90 f i imgui_demo.obj
 0001:000a1bd0       ??0ImColor@@QEAA@MMMM@Z    00000001400a2bd0 f i imgui_demo.obj
 0001:000a1c50       ??0MyDocument@@QEAA@PEBD_NAEBUImVec4@@@Z 00000001400a2c50 f i imgui_demo.obj
 0001:000a1ce0       ??1ExampleAppConsole@@QEAA@XZ 00000001400a2ce0 f i imgui_demo.obj
 0001:000a1da0       ??1ExampleAppLog@@QEAA@XZ  00000001400a2da0 f i imgui_demo.obj
 0001:000a1de0       ??1ImGuiTextFilter@@QEAA@XZ 00000001400a2de0 f i imgui_demo.obj
 0001:000a1e10       ??A?$ImVector@UImFontBuildDstData@@@@QEAAAEAUImFontBuildDstData@@H@Z 00000001400a2e10 f i imgui_draw.obj
 0001:000a1e10       ??A?$ImVector@UImDrawChannel@@@@QEAAAEAUImDrawChannel@@H@Z 00000001400a2e10 f i imgui_draw.obj
 0001:000a1e10       ??A?$ImVector@UMyDocument@@@@QEAAAEAUMyDocument@@H@Z 00000001400a2e10 f i imgui_demo.obj
 0001:000a1e10       ??A?$ImVector@UImFontAtlasCustomRect@@@@QEAAAEAUImFontAtlasCustomRect@@H@Z 00000001400a2e10 f i imgui_draw.obj
 0001:000a1e60       ??AImGuiTextBuffer@@QEBADH@Z 00000001400a2e60 f i imgui_demo.obj
 0001:000a1eb0       ??BImColor@@QEBA?AUImVec4@@XZ 00000001400a2eb0 f i imgui_demo.obj
 0001:000a1ee0       ??BImColor@@QEBAIXZ        00000001400a2ee0 f i imgui_demo.obj
 0001:000a1f00       ?AddLog@ExampleAppConsole@@QEAAXPEBDZZ 00000001400a2f00 f i imgui_demo.obj
 0001:000a1fe0       ?AddLog@ExampleAppLog@@QEAAXPEBDZZ 00000001400a2fe0 f i imgui_demo.obj
 0001:000a20c0       ?Clear@ExampleAppLog@@QEAAXXZ 00000001400a30c0 f i imgui_demo.obj
 0001:000a2120       ?ClearLog@ExampleAppConsole@@QEAAXXZ 00000001400a3120 f i imgui_demo.obj
 0001:000a2190       ?DisplayContents@MyDocument@@SAXPEAU1@@Z 00000001400a3190 f i imgui_demo.obj
 0001:000a2280       ?DisplayContextMenu@MyDocument@@SAXPEAU1@@Z 00000001400a3280 f i imgui_demo.obj
 0001:000a2360       ?DoForceClose@MyDocument@@QEAAXXZ 00000001400a3360 f i imgui_demo.obj
 0001:000a2380       ?DoOpen@MyDocument@@QEAAXXZ 00000001400a3380 f i imgui_demo.obj
 0001:000a2390       ?DoQueueClose@MyDocument@@QEAAXXZ 00000001400a3390 f i imgui_demo.obj
 0001:000a23a0       ?DoSave@MyDocument@@QEAAXXZ 00000001400a33a0 f i imgui_demo.obj
 0001:000a23b0       ?Draw@ExampleAppConsole@@QEAAXPEBDPEA_N@Z 00000001400a33b0 f i imgui_demo.obj
 0001:000a29a0       ?Draw@ExampleAppLog@@QEAAXPEBDPEA_N@Z 00000001400a39a0 f i imgui_demo.obj
 0001:000a2e80       ?ExecCommand@ExampleAppConsole@@QEAAXPEBD@Z 00000001400a3e80 f i imgui_demo.obj
 0001:000a31b0       ?GetDebugName@ImFont@@QEBAPEBDXZ 00000001400a41b0 f i imgui_demo.obj
 0001:000a31f0       ?HSV@ImColor@@SA?AU1@MMMM@Z 00000001400a41f0 f i imgui_demo.obj
 0001:000a3270       ?IsActive@ImGuiTextFilter@@QEBA_NXZ 00000001400a4270 f i imgui_demo.obj
 0001:000a3720       ?Strdup@ExampleAppConsole@@SAPEADPEBD@Z 00000001400a4720 f i imgui_demo.obj
 0001:000a37c0       ?Stricmp@ExampleAppConsole@@SAHPEBD0@Z 00000001400a47c0 f i imgui_demo.obj
 0001:000a3840       ?Strnicmp@ExampleAppConsole@@SAHPEBD0H@Z 00000001400a4840 f i imgui_demo.obj
 0001:000a38e0       ?Strtrim@ExampleAppConsole@@SAXPEAD@Z 00000001400a48e0 f i imgui_demo.obj
 0001:000a3960       ?TextEditCallback@ExampleAppConsole@@QEAAHPEAUImGuiInputTextCallbackData@@@Z 00000001400a4960 f i imgui_demo.obj
 0001:000a3f70       ?TextEditCallbackStub@ExampleAppConsole@@SAHPEAUImGuiInputTextCallbackData@@@Z 00000001400a4f70 f i imgui_demo.obj
 0001:000a3fa0       ?back@?$ImVector@D@@QEBAAEBDXZ 00000001400a4fa0 f i imgui_demo.obj
 0001:000a3ff0       ?capacity@?$ImVector@D@@QEBAHXZ 00000001400a4ff0 f i imgui_demo.obj
 0001:000a4000       ?end@ImGuiTextBuffer@@QEBAPEBDXZ 00000001400a5000 f i imgui_demo.obj
 0001:000a4040       ?push_back@?$ImVector@UImFontAtlasCustomRect@@@@QEAAXAEBUImFontAtlasCustomRect@@@Z 00000001400a5040 f i imgui_draw.obj
 0001:000a4040       ?push_back@?$ImVector@UMyDocument@@@@QEAAXAEBUMyDocument@@@Z 00000001400a5040 f i imgui_demo.obj
 0001:000a40c0       ?reserve@?$ImVector@UImFontBuildDstData@@@@QEAAXH@Z 00000001400a50c0 f i imgui_draw.obj
 0001:000a40c0       ?reserve@?$ImVector@UImDrawChannel@@@@QEAAXH@Z 00000001400a50c0 f i imgui_draw.obj
 0001:000a40c0       ?reserve@?$ImVector@UMyDocument@@@@QEAAXH@Z 00000001400a50c0 f i imgui_demo.obj
 0001:000a40c0       ?reserve@?$ImVector@UImFontAtlasCustomRect@@@@QEAAXH@Z 00000001400a50c0 f i imgui_draw.obj
 0001:000a4150       _vsprintf_l                00000001400a5150 f i imgui_demo.obj
 0001:000a41a0       sprintf                    00000001400a51a0 f i imgui_demo.obj
 0001:000a41f0       ?ImGui_ImplGlfw_InitForOpenGL@@YA_NPEAUGLFWwindow@@_N@Z 00000001400a51f0 f   imgui_impl_glfw.obj
 0001:000a4220       ?ImGui_ImplGlfw_InitForVulkan@@YA_NPEAUGLFWwindow@@_N@Z 00000001400a5220 f   imgui_impl_glfw.obj
 0001:000a4250       ?ImGui_ImplGlfw_Shutdown@@YAXXZ 00000001400a5250 f   imgui_impl_glfw.obj
 0001:000a4320       ?ImGui_ImplGlfw_NewFrame@@YAXXZ 00000001400a5320 f   imgui_impl_glfw.obj
 0001:000a44a0       ?ImGui_ImplGlfw_MouseButtonCallback@@YAXPEAUGLFWwindow@@HHH@Z 00000001400a54a0 f   imgui_impl_glfw.obj
 0001:000a4530       ?ImGui_ImplGlfw_ScrollCallback@@YAXPEAUGLFWwindow@@NN@Z 00000001400a5530 f   imgui_impl_glfw.obj
 0001:000a45f0       ?ImGui_ImplGlfw_KeyCallback@@YAXPEAUGLFWwindow@@HHHH@Z 00000001400a55f0 f   imgui_impl_glfw.obj
 0001:000a47c0       ?ImGui_ImplGlfw_CharCallback@@YAXPEAUGLFWwindow@@I@Z 00000001400a57c0 f   imgui_impl_glfw.obj
 0001:000a4830       ?ImGui_ImplGlfw_MonitorCallback@@YAXPEAUGLFWmonitor@@H@Z 00000001400a5830 f   imgui_impl_glfw.obj
 0001:000a65b0       ??$IM_DELETE@UImGuiViewportDataGlfw@@@@YAXPEAUImGuiViewportDataGlfw@@@Z 00000001400a75b0 f i imgui_impl_glfw.obj
 0001:000a65e0       ??0ImGuiPlatformMonitor@@QEAA@XZ 00000001400a75e0 f i imgui_impl_glfw.obj
 0001:000a66a0       ??0ImGuiViewportDataGlfw@@QEAA@XZ 00000001400a76a0 f i imgui_impl_glfw.obj
 0001:000a66d0       ??1ImGuiViewportDataGlfw@@QEAA@XZ 00000001400a76d0 f i imgui_impl_glfw.obj
 0001:000a6710       ??_GImGuiViewportDataGlfw@@QEAAPEAXI@Z 00000001400a7710 f i imgui_impl_glfw.obj
 0001:000a6750       ?IsBuilt@ImFontAtlas@@QEBA_NXZ 00000001400a7750 f i imgui_impl_glfw.obj
 0001:000a67a0       ?ImGui_ImplOpenGL3_Init@@YA_NPEBD@Z 00000001400a77a0 f   imgui_impl_opengl3.obj
 0001:000a69b0       ?ImGui_ImplOpenGL3_Shutdown@@YAXXZ 00000001400a79b0 f   imgui_impl_opengl3.obj
 0001:000a69d0       ?ImGui_ImplOpenGL3_NewFrame@@YAXXZ 00000001400a79d0 f   imgui_impl_opengl3.obj
 0001:000a69f0       ?ImGui_ImplOpenGL3_RenderDrawData@@YAXPEAUImDrawData@@@Z 00000001400a79f0 f   imgui_impl_opengl3.obj
 0001:000a7490       ?ImGui_ImplOpenGL3_CreateFontsTexture@@YA_NXZ 00000001400a8490 f   imgui_impl_opengl3.obj
 0001:000a7640       ?ImGui_ImplOpenGL3_DestroyFontsTexture@@YAXXZ 00000001400a8640 f   imgui_impl_opengl3.obj
 0001:000a76a0       ?ImGui_ImplOpenGL3_CreateDeviceObjects@@YA_NXZ 00000001400a86a0 f   imgui_impl_opengl3.obj
 0001:000a7b40       ?ImGui_ImplOpenGL3_DestroyDeviceObjects@@YAXXZ 00000001400a8b40 f   imgui_impl_opengl3.obj
 0001:000a84d0       ??A?$ImVector@UImDrawCmd@@@@QEBAAEBUImDrawCmd@@H@Z 00000001400a94d0 f i imgui_impl_opengl3.obj
 0001:000a8520       ?Separator@ImGui@@YAXXZ    00000001400a9520 f   imgui_widgets.obj
 0001:000a85a0       ?NewLine@ImGui@@YAXXZ      00000001400a95a0 f   imgui_widgets.obj
 0001:000a8670       ?Spacing@ImGui@@YAXXZ      00000001400a9670 f   imgui_widgets.obj
 0001:000a86c0       ?Dummy@ImGui@@YAXAEBUImVec2@@@Z 00000001400a96c0 f   imgui_widgets.obj
 0001:000a8750       ?AlignTextToFramePadding@ImGui@@YAXXZ 00000001400a9750 f   imgui_widgets.obj
 0001:000a8810       ?TextUnformatted@ImGui@@YAXPEBD0@Z 00000001400a9810 f   imgui_widgets.obj
 0001:000a8840       ?Text@ImGui@@YAXPEBDZZ     00000001400a9840 f   imgui_widgets.obj
 0001:000a8890       ?TextV@ImGui@@YAXPEBDPEAD@Z 00000001400a9890 f   imgui_widgets.obj
 0001:000a8930       ?TextColored@ImGui@@YAXAEBUImVec4@@PEBDZZ 00000001400a9930 f   imgui_widgets.obj
 0001:000a8980       ?TextColoredV@ImGui@@YAXAEBUImVec4@@PEBDPEAD@Z 00000001400a9980 f   imgui_widgets.obj
 0001:000a89d0       ?TextDisabled@ImGui@@YAXPEBDZZ 00000001400a99d0 f   imgui_widgets.obj
 0001:000a8a20       ?TextDisabledV@ImGui@@YAXPEBDPEAD@Z 00000001400a9a20 f   imgui_widgets.obj
 0001:000a8a80       ?TextWrapped@ImGui@@YAXPEBDZZ 00000001400a9a80 f   imgui_widgets.obj
 0001:000a8ad0       ?TextWrappedV@ImGui@@YAXPEBDPEAD@Z 00000001400a9ad0 f   imgui_widgets.obj
 0001:000a8b50       ?LabelText@ImGui@@YAXPEBD0ZZ 00000001400a9b50 f   imgui_widgets.obj
 0001:000a8ba0       ?LabelTextV@ImGui@@YAXPEBD0PEAD@Z 00000001400a9ba0 f   imgui_widgets.obj
 0001:000a8e90       ?BulletText@ImGui@@YAXPEBDZZ 00000001400a9e90 f   imgui_widgets.obj
 0001:000a8ee0       ?BulletTextV@ImGui@@YAXPEBDPEAD@Z 00000001400a9ee0 f   imgui_widgets.obj
 0001:000a91b0       ?Button@ImGui@@YA_NPEBDAEBUImVec2@@@Z 00000001400aa1b0 f   imgui_widgets.obj
 0001:000a91e0       ?SmallButton@ImGui@@YA_NPEBD@Z 00000001400aa1e0 f   imgui_widgets.obj
 0001:000a9270       ?InvisibleButton@ImGui@@YA_NPEBDAEBUImVec2@@@Z 00000001400aa270 f   imgui_widgets.obj
 0001:000a93b0       ?ArrowButton@ImGui@@YA_NPEBDH@Z 00000001400aa3b0 f   imgui_widgets.obj
 0001:000a9400       ?Image@ImGui@@YAXPEAXAEBUImVec2@@11AEBUImVec4@@2@Z 00000001400aa400 f   imgui_widgets.obj
 0001:000a96b0       ?ImageButton@ImGui@@YA_NPEAXAEBUImVec2@@11HAEBUImVec4@@2@Z 00000001400aa6b0 f   imgui_widgets.obj
 0001:000a9ae0       ?Checkbox@ImGui@@YA_NPEBDPEA_N@Z 00000001400aaae0 f   imgui_widgets.obj
 0001:000aa0b0       ?CheckboxFlags@ImGui@@YA_NPEBDPEAII@Z 00000001400ab0b0 f   imgui_widgets.obj
 0001:000aa160       ?RadioButton@ImGui@@YA_NPEBD_N@Z 00000001400ab160 f   imgui_widgets.obj
 0001:000aa720       ?RadioButton@ImGui@@YA_NPEBDPEAHH@Z 00000001400ab720 f   imgui_widgets.obj
 0001:000aa790       ?ProgressBar@ImGui@@YAXMAEBUImVec2@@PEBD@Z 00000001400ab790 f   imgui_widgets.obj
 0001:000aabb0       ?Bullet@ImGui@@YAXXZ       00000001400abbb0 f   imgui_widgets.obj
 0001:000aadd0       ?BeginCombo@ImGui@@YA_NPEBD0H@Z 00000001400abdd0 f   imgui_widgets.obj
 0001:000ab8d0       ?EndCombo@ImGui@@YAXXZ     00000001400ac8d0 f   imgui_widgets.obj
 0001:000ab8f0       ?Combo@ImGui@@YA_NPEBDPEAHQEBQEBDHH@Z 00000001400ac8f0 f   imgui_widgets.obj
 0001:000ab950       ?Combo@ImGui@@YA_NPEBDPEAH0H@Z 00000001400ac950 f   imgui_widgets.obj
 0001:000aba10       ?Combo@ImGui@@YA_NPEBDPEAHP6A_NPEAXHPEAPEBD@Z2HH@Z 00000001400aca10 f   imgui_widgets.obj
 0001:000abc30       ?DragFloat@ImGui@@YA_NPEBDPEAMMMM0M@Z 00000001400acc30 f   imgui_widgets.obj
 0001:000abca0       ?DragFloat2@ImGui@@YA_NPEBDQEAMMMM0M@Z 00000001400acca0 f   imgui_widgets.obj
 0001:000abd20       ?DragFloat3@ImGui@@YA_NPEBDQEAMMMM0M@Z 00000001400acd20 f   imgui_widgets.obj
 0001:000abda0       ?DragFloat4@ImGui@@YA_NPEBDQEAMMMM0M@Z 00000001400acda0 f   imgui_widgets.obj
 0001:000abe20       ?DragFloatRange2@ImGui@@YA_NPEBDPEAM1MMM00M@Z 00000001400ace20 f   imgui_widgets.obj
 0001:000ac0e0       ?DragInt@ImGui@@YA_NPEBDPEAHMHH0@Z 00000001400ad0e0 f   imgui_widgets.obj
 0001:000ac150       ?DragInt2@ImGui@@YA_NPEBDQEAHMHH0@Z 00000001400ad150 f   imgui_widgets.obj
 0001:000ac1d0       ?DragInt3@ImGui@@YA_NPEBDQEAHMHH0@Z 00000001400ad1d0 f   imgui_widgets.obj
 0001:000ac250       ?DragInt4@ImGui@@YA_NPEBDQEAHMHH0@Z 00000001400ad250 f   imgui_widgets.obj
 0001:000ac2d0       ?DragIntRange2@ImGui@@YA_NPEBDPEAH1MHH00@Z 00000001400ad2d0 f   imgui_widgets.obj
 0001:000ac520       ?DragScalar@ImGui@@YA_NPEBDHPEAXMPEBX20M@Z 00000001400ad520 f   imgui_widgets.obj
 0001:000acbd0       ?DragScalarN@ImGui@@YA_NPEBDHPEAXHMPEBX20M@Z 00000001400adbd0 f   imgui_widgets.obj
 0001:000acdb0       ?SliderFloat@ImGui@@YA_NPEBDPEAMMM0M@Z 00000001400addb0 f   imgui_widgets.obj
 0001:000ace10       ?SliderFloat2@ImGui@@YA_NPEBDQEAMMM0M@Z 00000001400ade10 f   imgui_widgets.obj
 0001:000ace80       ?SliderFloat3@ImGui@@YA_NPEBDQEAMMM0M@Z 00000001400ade80 f   imgui_widgets.obj
 0001:000acef0       ?SliderFloat4@ImGui@@YA_NPEBDQEAMMM0M@Z 00000001400adef0 f   imgui_widgets.obj
 0001:000acf60       ?SliderAngle@ImGui@@YA_NPEBDPEAMMM0@Z 00000001400adf60 f   imgui_widgets.obj
 0001:000ad020       ?SliderInt@ImGui@@YA_NPEBDPEAHHH0@Z 00000001400ae020 f   imgui_widgets.obj
 0001:000ad080       ?SliderInt2@ImGui@@YA_NPEBDQEAHHH0@Z 00000001400ae080 f   imgui_widgets.obj
 0001:000ad0f0       ?SliderInt3@ImGui@@YA_NPEBDQEAHHH0@Z 00000001400ae0f0 f   imgui_widgets.obj
 0001:000ad160       ?SliderInt4@ImGui@@YA_NPEBDQEAHHH0@Z 00000001400ae160 f   imgui_widgets.obj
 0001:000ad1d0       ?SliderScalar@ImGui@@YA_NPEBDHPEAXPEBX20M@Z 00000001400ae1d0 f   imgui_widgets.obj
 0001:000ad8d0       ?SliderScalarN@ImGui@@YA_NPEBDHPEAXHPEBX20M@Z 00000001400ae8d0 f   imgui_widgets.obj
 0001:000adaa0       ?VSliderFloat@ImGui@@YA_NPEBDAEBUImVec2@@PEAMMM0M@Z 00000001400aeaa0 f   imgui_widgets.obj
 0001:000adb10       ?VSliderInt@ImGui@@YA_NPEBDAEBUImVec2@@PEAHHH0@Z 00000001400aeb10 f   imgui_widgets.obj
 0001:000adb80       ?VSliderScalar@ImGui@@YA_NPEBDAEBUImVec2@@HPEAXPEBX30M@Z 00000001400aeb80 f   imgui_widgets.obj
 0001:000ae170       ?InputText@ImGui@@YA_NPEBDPEAD_KHP6AHPEAUImGuiInputTextCallbackData@@@ZPEAX@Z 00000001400af170 f   imgui_widgets.obj
 0001:000ae210       ?InputTextMultiline@ImGui@@YA_NPEBDPEAD_KAEBUImVec2@@HP6AHPEAUImGuiInputTextCallbackData@@@ZPEAX@Z 00000001400af210 f   imgui_widgets.obj
 0001:000ae280       ?InputTextWithHint@ImGui@@YA_NPEBD0PEAD_KHP6AHPEAUImGuiInputTextCallbackData@@@ZPEAX@Z 00000001400af280 f   imgui_widgets.obj
 0001:000ae330       ?InputFloat@ImGui@@YA_NPEBDPEAMMM0H@Z 00000001400af330 f   imgui_widgets.obj
 0001:000ae400       ?InputFloat2@ImGui@@YA_NPEBDQEAM0H@Z 00000001400af400 f   imgui_widgets.obj
 0001:000ae470       ?InputFloat3@ImGui@@YA_NPEBDQEAM0H@Z 00000001400af470 f   imgui_widgets.obj
 0001:000ae4e0       ?InputFloat4@ImGui@@YA_NPEBDQEAM0H@Z 00000001400af4e0 f   imgui_widgets.obj
 0001:000ae550       ?InputInt@ImGui@@YA_NPEBDPEAHHHH@Z 00000001400af550 f   imgui_widgets.obj
 0001:000ae640       ?InputInt2@ImGui@@YA_NPEBDQEAHH@Z 00000001400af640 f   imgui_widgets.obj
 0001:000ae6a0       ?InputInt3@ImGui@@YA_NPEBDQEAHH@Z 00000001400af6a0 f   imgui_widgets.obj
 0001:000ae700       ?InputInt4@ImGui@@YA_NPEBDQEAHH@Z 00000001400af700 f   imgui_widgets.obj
 0001:000ae760       ?InputDouble@ImGui@@YA_NPEBDPEANNN0H@Z 00000001400af760 f   imgui_widgets.obj
 0001:000ae840       ?InputScalar@ImGui@@YA_NPEBDHPEAXPEBX20H@Z 00000001400af840 f   imgui_widgets.obj
 0001:000aecd0       ?InputScalarN@ImGui@@YA_NPEBDHPEAXHPEBX20H@Z 00000001400afcd0 f   imgui_widgets.obj
 0001:000aeea0       ?ColorEdit3@ImGui@@YA_NPEBDQEAMH@Z 00000001400afea0 f   imgui_widgets.obj
 0001:000aeee0       ?ColorEdit4@ImGui@@YA_NPEBDQEAMH@Z 00000001400afee0 f   imgui_widgets.obj
 0001:000b07d0       ?ColorPicker3@ImGui@@YA_NPEBDQEAMH@Z 00000001400b17d0 f   imgui_widgets.obj
 0001:000b0900       ?ColorPicker4@ImGui@@YA_NPEBDQEAMHPEBM@Z 00000001400b1900 f   imgui_widgets.obj
 0001:000b33f0       ?ColorButton@ImGui@@YA_NPEBDAEBUImVec4@@HUImVec2@@@Z 00000001400b43f0 f   imgui_widgets.obj
 0001:000b3c50       ?SetColorEditOptions@ImGui@@YAXH@Z 00000001400b4c50 f   imgui_widgets.obj
 0001:000b3db0       ?TreeNode@ImGui@@YA_NPEBD@Z 00000001400b4db0 f   imgui_widgets.obj
 0001:000b3e10       ?TreeNode@ImGui@@YA_NPEBD0ZZ 00000001400b4e10 f   imgui_widgets.obj
 0001:000b3e70       ?TreeNode@ImGui@@YA_NPEBXPEBDZZ 00000001400b4e70 f   imgui_widgets.obj
 0001:000b3ed0       ?TreeNodeV@ImGui@@YA_NPEBD0PEAD@Z 00000001400b4ed0 f   imgui_widgets.obj
 0001:000b3f10       ?TreeNodeV@ImGui@@YA_NPEBXPEBDPEAD@Z 00000001400b4f10 f   imgui_widgets.obj
 0001:000b3f50       ?TreeNodeEx@ImGui@@YA_NPEBDH@Z 00000001400b4f50 f   imgui_widgets.obj
 0001:000b3fb0       ?TreeNodeEx@ImGui@@YA_NPEBDH0ZZ 00000001400b4fb0 f   imgui_widgets.obj
 0001:000b4010       ?TreeNodeEx@ImGui@@YA_NPEBXHPEBDZZ 00000001400b5010 f   imgui_widgets.obj
 0001:000b4070       ?TreeNodeExV@ImGui@@YA_NPEBDH0PEAD@Z 00000001400b5070 f   imgui_widgets.obj
 0001:000b4130       ?TreeNodeExV@ImGui@@YA_NPEBXHPEBDPEAD@Z 00000001400b5130 f   imgui_widgets.obj
 0001:000b41f0       ?TreePush@ImGui@@YAXPEBD@Z 00000001400b51f0 f   imgui_widgets.obj
 0001:000b4260       ?TreePush@ImGui@@YAXPEBX@Z 00000001400b5260 f   imgui_widgets.obj
 0001:000b42d0       ?TreePop@ImGui@@YAXXZ      00000001400b52d0 f   imgui_widgets.obj
 0001:000b4420       ?GetTreeNodeToLabelSpacing@ImGui@@YAMXZ 00000001400b5420 f   imgui_widgets.obj
 0001:000b4470       ?CollapsingHeader@ImGui@@YA_NPEBDH@Z 00000001400b5470 f   imgui_widgets.obj
 0001:000b44e0       ?CollapsingHeader@ImGui@@YA_NPEBDPEA_NH@Z 00000001400b54e0 f   imgui_widgets.obj
 0001:000b46b0       ?SetNextItemOpen@ImGui@@YAX_NH@Z 00000001400b56b0 f   imgui_widgets.obj
 0001:000b4740       ?Selectable@ImGui@@YA_NPEBD_NHAEBUImVec2@@@Z 00000001400b5740 f   imgui_widgets.obj
 0001:000b5030       ?Selectable@ImGui@@YA_NPEBDPEA_NHAEBUImVec2@@@Z 00000001400b6030 f   imgui_widgets.obj
 0001:000b50b0       ?ListBox@ImGui@@YA_NPEBDPEAHQEBQEBDHH@Z 00000001400b60b0 f   imgui_widgets.obj
 0001:000b5110       ?ListBox@ImGui@@YA_NPEBDPEAHP6A_NPEAXHPEAPEBD@Z2HH@Z 00000001400b6110 f   imgui_widgets.obj
 0001:000b52d0       ?ListBoxHeader@ImGui@@YA_NPEBDAEBUImVec2@@@Z 00000001400b62d0 f   imgui_widgets.obj
 0001:000b55d0       ?ListBoxHeader@ImGui@@YA_NPEBDHH@Z 00000001400b65d0 f   imgui_widgets.obj
 0001:000b56a0       ?ListBoxFooter@ImGui@@YAXXZ 00000001400b66a0 f   imgui_widgets.obj
 0001:000b5730       ?PlotLines@ImGui@@YAXPEBDPEBMHH0MMUImVec2@@H@Z 00000001400b6730 f   imgui_widgets.obj
 0001:000b57d0       ?PlotLines@ImGui@@YAXPEBDP6AMPEAXH@Z1HH0MMUImVec2@@@Z 00000001400b67d0 f   imgui_widgets.obj
 0001:000b5860       ?PlotHistogram@ImGui@@YAXPEBDPEBMHH0MMUImVec2@@H@Z 00000001400b6860 f   imgui_widgets.obj
 0001:000b5910       ?PlotHistogram@ImGui@@YAXPEBDP6AMPEAXH@Z1HH0MMUImVec2@@@Z 00000001400b6910 f   imgui_widgets.obj
 0001:000b59a0       ?Value@ImGui@@YAXPEBD_N@Z  00000001400b69a0 f   imgui_widgets.obj
 0001:000b5a00       ?Value@ImGui@@YAXPEBDH@Z   00000001400b6a00 f   imgui_widgets.obj
 0001:000b5a30       ?Value@ImGui@@YAXPEBDI@Z   00000001400b6a30 f   imgui_widgets.obj
 0001:000b5a60       ?Value@ImGui@@YAXPEBDM0@Z  00000001400b6a60 f   imgui_widgets.obj
 0001:000b5b10       ?BeginMenuBar@ImGui@@YA_NXZ 00000001400b6b10 f   imgui_widgets.obj
 0001:000b5d20       ?EndMenuBar@ImGui@@YAXXZ   00000001400b6d20 f   imgui_widgets.obj
 0001:000b5fc0       ?BeginMainMenuBar@ImGui@@YA_NXZ 00000001400b6fc0 f   imgui_widgets.obj
 0001:000b6220       ?EndMainMenuBar@ImGui@@YAXXZ 00000001400b7220 f   imgui_widgets.obj
 0001:000b6290       ?BeginMenu@ImGui@@YA_NPEBD_N@Z 00000001400b7290 f   imgui_widgets.obj
 0001:000b6f30       ?EndMenu@ImGui@@YAXXZ      00000001400b7f30 f   imgui_widgets.obj
 0001:000b6fd0       ?MenuItem@ImGui@@YA_NPEBD0_N1@Z 00000001400b7fd0 f   imgui_widgets.obj
 0001:000b74c0       ?MenuItem@ImGui@@YA_NPEBD0PEA_N_N@Z 00000001400b84c0 f   imgui_widgets.obj
 0001:000b7570       ?Columns@ImGui@@YAXHPEBD_N@Z 00000001400b8570 f   imgui_widgets.obj
 0001:000b7640       ?NextColumn@ImGui@@YAXXZ   00000001400b8640 f   imgui_widgets.obj
 0001:000b7950       ?GetColumnIndex@ImGui@@YAHXZ 00000001400b8950 f   imgui_widgets.obj
 0001:000b79a0       ?GetColumnWidth@ImGui@@YAMH@Z 00000001400b89a0 f   imgui_widgets.obj
 0001:000b7a70       ?SetColumnWidth@ImGui@@YAXHM@Z 00000001400b8a70 f   imgui_widgets.obj
 0001:000b7b00       ?GetColumnOffset@ImGui@@YAMH@Z 00000001400b8b00 f   imgui_widgets.obj
 0001:000b7bd0       ?SetColumnOffset@ImGui@@YAXHM@Z 00000001400b8bd0 f   imgui_widgets.obj
 0001:000b7dd0       ?GetColumnsCount@ImGui@@YAHXZ 00000001400b8dd0 f   imgui_widgets.obj
 0001:000b7e20       ?BeginTabBar@ImGui@@YA_NPEBDH@Z 00000001400b8e20 f   imgui_widgets.obj
 0001:000b7f40       ?EndTabBar@ImGui@@YAXXZ    00000001400b8f40 f   imgui_widgets.obj
 0001:000b8100       ?BeginTabItem@ImGui@@YA_NPEBDPEA_NH@Z 00000001400b9100 f   imgui_widgets.obj
 0001:000b8220       ?EndTabItem@ImGui@@YAXXZ   00000001400b9220 f   imgui_widgets.obj
 0001:000b8320       ?SetTabItemClosed@ImGui@@YAXPEBD@Z 00000001400b9320 f   imgui_widgets.obj
 0001:000b8480       ??0ImGuiInputTextCallbackData@@QEAA@XZ 00000001400b9480 f   imgui_widgets.obj
 0001:000b84b0       ?DeleteChars@ImGuiInputTextCallbackData@@QEAAXHH@Z 00000001400b94b0 f   imgui_widgets.obj
 0001:000b8610       ?InsertChars@ImGuiInputTextCallbackData@@QEAAXHPEBD0@Z 00000001400b9610 f   imgui_widgets.obj
 0001:000b8950       ?InputFloat@ImGui@@YA_NPEBDPEAMMMHH@Z 00000001400b9950 f   imgui_widgets.obj
 0001:000b8a20       ?InputFloat2@ImGui@@YA_NPEBDQEAMHH@Z 00000001400b9a20 f   imgui_widgets.obj
 0001:000b8b00       ?InputFloat3@ImGui@@YA_NPEBDQEAMHH@Z 00000001400b9b00 f   imgui_widgets.obj
 0001:000b8be0       ?InputFloat4@ImGui@@YA_NPEBDQEAMHH@Z 00000001400b9be0 f   imgui_widgets.obj
 0001:000b8d00       ?ImParseFormatFindStart@@YAPEBDPEBD@Z 00000001400b9d00 f   imgui_widgets.obj
 0001:000b8d90       ?ImParseFormatFindEnd@@YAPEBDPEBD@Z 00000001400b9d90 f   imgui_widgets.obj
 0001:000b8e90       ?ImParseFormatTrimDecorations@@YAPEBDPEBDPEAD_K@Z 00000001400b9e90 f   imgui_widgets.obj
 0001:000b8f40       ?ImParseFormatPrecision@@YAHPEBDH@Z 00000001400b9f40 f   imgui_widgets.obj
 0001:000b97f0       ??0ImGuiMenuColumns@@QEAA@XZ 00000001400ba7f0 f   imgui_widgets.obj
 0001:000b9860       ?Update@ImGuiMenuColumns@@QEAAXHM_N@Z 00000001400ba860 f   imgui_widgets.obj
 0001:000b99b0       ?DeclColumns@ImGuiMenuColumns@@QEAAMMMM@Z 00000001400ba9b0 f   imgui_widgets.obj
 0001:000b9b20       ?CalcExtraSpace@ImGuiMenuColumns@@QEBAMM@Z 00000001400bab20 f   imgui_widgets.obj
 0001:000b9b60       ?OnKeyPressed@ImGuiInputTextState@@QEAAXH@Z 00000001400bab60 f   imgui_widgets.obj
 0001:000b9bf0       ??0ImGuiTabBar@@QEAA@XZ    00000001400babf0 f   imgui_widgets.obj
 0001:000b9d40       ?ShrinkWidths@ImGui@@YAXPEAUImGuiShrinkWidthItem@@HM@Z 00000001400bad40 f   imgui_widgets.obj
 0001:000ba020       ?BeginColumns@ImGui@@YAXPEBDHH@Z 00000001400bb020 f   imgui_widgets.obj
 0001:000ba6e0       ?EndColumns@ImGui@@YAXXZ   00000001400bb6e0 f   imgui_widgets.obj
 0001:000bac60       ?PushColumnClipRect@ImGui@@YAXH@Z 00000001400bbc60 f   imgui_widgets.obj
 0001:000bace0       ?PushColumnsBackground@ImGui@@YAXXZ 00000001400bbce0 f   imgui_widgets.obj
 0001:000bada0       ?PopColumnsBackground@ImGui@@YAXXZ 00000001400bbda0 f   imgui_widgets.obj
 0001:000bae10       ?GetColumnsID@ImGui@@YAIPEBDH@Z 00000001400bbe10 f   imgui_widgets.obj
 0001:000baea0       ?FindOrCreateColumns@ImGui@@YAPEAUImGuiColumns@@PEAUImGuiWindow@@I@Z 00000001400bbea0 f   imgui_widgets.obj
 0001:000bafb0       ?GetColumnOffsetFromNorm@ImGui@@YAMPEBUImGuiColumns@@M@Z 00000001400bbfb0 f   imgui_widgets.obj
 0001:000baff0       ?GetColumnNormFromOffset@ImGui@@YAMPEBUImGuiColumns@@M@Z 00000001400bbff0 f   imgui_widgets.obj
 0001:000bb030       ?BeginTabBarEx@ImGui@@YA_NPEAUImGuiTabBar@@AEBUImRect@@HPEAUImGuiDockNode@@@Z 00000001400bc030 f   imgui_widgets.obj
 0001:000bb4d0       ?TabBarFindTabByID@ImGui@@YAPEAUImGuiTabItem@@PEAUImGuiTabBar@@I@Z 00000001400bc4d0 f   imgui_widgets.obj
 0001:000bb550       ?TabBarFindMostRecentlySelectedTabForActiveWindow@ImGui@@YAPEAUImGuiTabItem@@PEAUImGuiTabBar@@@Z 00000001400bc550 f   imgui_widgets.obj
 0001:000bb600       ?TabBarAddTab@ImGui@@YAXPEAUImGuiTabBar@@HPEAUImGuiWindow@@@Z 00000001400bc600 f   imgui_widgets.obj
 0001:000bb700       ?TabBarRemoveTab@ImGui@@YAXPEAUImGuiTabBar@@I@Z 00000001400bc700 f   imgui_widgets.obj
 0001:000bb7a0       ?TabBarCloseTab@ImGui@@YAXPEAUImGuiTabBar@@PEAUImGuiTabItem@@@Z 00000001400bc7a0 f   imgui_widgets.obj
 0001:000bb830       ?TabBarQueueChangeTabOrder@ImGui@@YAXPEAUImGuiTabBar@@PEBUImGuiTabItem@@H@Z 00000001400bc830 f   imgui_widgets.obj
 0001:000bb8c0       ?TabItemEx@ImGui@@YA_NPEAUImGuiTabBar@@PEBDPEA_NHPEAUImGuiWindow@@@Z 00000001400bc8c0 f   imgui_widgets.obj
 0001:000bc990       ?TabItemCalcSize@ImGui@@YA?AUImVec2@@PEBD_N@Z 00000001400bd990 f   imgui_widgets.obj
 0001:000bcac0       ?TabItemBackground@ImGui@@YAXPEAUImDrawList@@AEBUImRect@@HI@Z 00000001400bdac0 f   imgui_widgets.obj
 0001:000bce70       ?TabItemLabelAndCloseButton@ImGui@@YA_NPEAUImDrawList@@AEBUImRect@@HUImVec2@@PEBDII@Z 00000001400bde70 f   imgui_widgets.obj
 0001:000bd2e0       ?TextEx@ImGui@@YAXPEBD0H@Z 00000001400be2e0 f   imgui_widgets.obj
 0001:000bd9c0       ?ButtonEx@ImGui@@YA_NPEBDAEBUImVec2@@H@Z 00000001400be9c0 f   imgui_widgets.obj
 0001:000bdd10       ?CloseButton@ImGui@@YA_NIAEBUImVec2@@@Z 00000001400bed10 f   imgui_widgets.obj
 0001:000be110       ?CollapseButton@ImGui@@YA_NIAEBUImVec2@@PEAUImGuiDockNode@@@Z 00000001400bf110 f   imgui_widgets.obj
 0001:000be570       ?ArrowButtonEx@ImGui@@YA_NPEBDHUImVec2@@H@Z 00000001400bf570 f   imgui_widgets.obj
 0001:000be860       ?Scrollbar@ImGui@@YAXW4ImGuiAxis@@@Z 00000001400bf860 f   imgui_widgets.obj
 0001:000bec40       ?ScrollbarEx@ImGui@@YA_NAEBUImRect@@IW4ImGuiAxis@@PEAMMMH@Z 00000001400bfc40 f   imgui_widgets.obj
 0001:000bf520       ?GetWindowScrollbarID@ImGui@@YAIPEAUImGuiWindow@@W4ImGuiAxis@@@Z 00000001400c0520 f   imgui_widgets.obj
 0001:000bf570       ?SeparatorEx@ImGui@@YAXH@Z 00000001400c0570 f   imgui_widgets.obj
 0001:000bfa00       ?ButtonBehavior@ImGui@@YA_NAEBUImRect@@IPEA_N1H@Z 00000001400c0a00 f   imgui_widgets.obj
 0001:000c0430       ?DragBehavior@ImGui@@YA_NIHPEAXMPEBX1PEBDMH@Z 00000001400c1430 f   imgui_widgets.obj
 0001:000c0dc0       ?SliderBehavior@ImGui@@YA_NAEBUImRect@@IHPEAXPEBX2PEBDMHPEAU2@@Z 00000001400c1dc0 f   imgui_widgets.obj
 0001:000c1560       ?SplitterBehavior@ImGui@@YA_NAEBUImRect@@IW4ImGuiAxis@@PEAM2MMMM@Z 00000001400c2560 f   imgui_widgets.obj
 0001:000c1a60       ?TreeNodeBehavior@ImGui@@YA_NIHPEBD0@Z 00000001400c2a60 f   imgui_widgets.obj
 0001:000c2aa0       ?TreeNodeBehaviorIsOpen@ImGui@@YA_NIH@Z 00000001400c3aa0 f   imgui_widgets.obj
 0001:000c2c50       ?TreePushOverrideID@ImGui@@YAXI@Z 00000001400c3c50 f   imgui_widgets.obj
 0001:000c2cb0       ?DataTypeGetInfo@ImGui@@YAPEBUImGuiDataTypeInfo@@H@Z 00000001400c3cb0 f   imgui_widgets.obj
 0001:000c2d10       ?DataTypeFormatString@ImGui@@YAHPEADHHPEBXPEBD@Z 00000001400c3d10 f   imgui_widgets.obj
 0001:000c2ed0       ?DataTypeApplyOp@ImGui@@YAXHHPEAX0PEBX@Z 00000001400c3ed0 f   imgui_widgets.obj
 0001:000c3320       ?DataTypeApplyOpFromText@ImGui@@YA_NPEBD0HPEAX0@Z 00000001400c4320 f   imgui_widgets.obj
 0001:000c39b0       ?InputTextEx@ImGui@@YA_NPEBD0PEADHAEBUImVec2@@HP6AHPEAUImGuiInputTextCallbackData@@@ZPEAX@Z 00000001400c49b0 f   imgui_widgets.obj
 0001:000c7e50       ?TempInputText@ImGui@@YA_NAEBUImRect@@IPEBDPEADHH@Z 00000001400c8e50 f   imgui_widgets.obj
 0001:000c7f80       ?TempInputScalar@ImGui@@YA_NAEBUImRect@@IPEBDHPEAX1@Z 00000001400c8f80 f   imgui_widgets.obj
 0001:000c8100       ?ColorTooltip@ImGui@@YAXPEBDPEBMH@Z 00000001400c9100 f   imgui_widgets.obj
 0001:000c86b0       ?ColorEditOptionsPopup@ImGui@@YAXPEBMH@Z 00000001400c96b0 f   imgui_widgets.obj
 0001:000c8cc0       ?ColorPickerOptionsPopup@ImGui@@YAXPEBMH@Z 00000001400c9cc0 f   imgui_widgets.obj
 0001:000c8f80       ?PlotEx@ImGui@@YAXW4ImGuiPlotType@@PEBDP6AMPEAXH@Z2HH1MMUImVec2@@@Z 00000001400c9f80 f   imgui_widgets.obj
 0001:000d0740       ??$DragBehaviorT@HHM@ImGui@@YA_NHPEAHMHHPEBDMH@Z 00000001400d1740 f i imgui_widgets.obj
 0001:000d0ef0       ??$DragBehaviorT@IHM@ImGui@@YA_NHPEAIMIIPEBDMH@Z 00000001400d1ef0 f i imgui_widgets.obj
 0001:000d16b0       ??$DragBehaviorT@MMM@ImGui@@YA_NHPEAMMMMPEBDMH@Z 00000001400d26b0 f i imgui_widgets.obj
 0001:000d1e80       ??$DragBehaviorT@NNN@ImGui@@YA_NHPEANMNNPEBDMH@Z 00000001400d2e80 f i imgui_widgets.obj
 0001:000d2690       ??$DragBehaviorT@_J_JN@ImGui@@YA_NHPEA_JM_J1PEBDMH@Z 00000001400d3690 f i imgui_widgets.obj
 0001:000d2ec0       ??$DragBehaviorT@_K_JN@ImGui@@YA_NHPEA_KM_K1PEBDMH@Z 00000001400d3ec0 f i imgui_widgets.obj
 0001:000d3800       ??$RoundScalarWithFormatT@HH@ImGui@@YAHPEBDHH@Z 00000001400d4800 f i imgui_widgets.obj
 0001:000d3910       ??$RoundScalarWithFormatT@IH@ImGui@@YAIPEBDHI@Z 00000001400d4910 f i imgui_widgets.obj
 0001:000d3a20       ??$RoundScalarWithFormatT@MM@ImGui@@YAMPEBDHM@Z 00000001400d4a20 f i imgui_widgets.obj
 0001:000d3b40       ??$RoundScalarWithFormatT@NN@ImGui@@YANPEBDHN@Z 00000001400d4b40 f i imgui_widgets.obj
 0001:000d3c60       ??$RoundScalarWithFormatT@_J_J@ImGui@@YA_JPEBDH_J@Z 00000001400d4c60 f i imgui_widgets.obj
 0001:000d3d70       ??$RoundScalarWithFormatT@_K_J@ImGui@@YA_KPEBDH_K@Z 00000001400d4d70 f i imgui_widgets.obj
 0001:000d3ec0       ??$SliderBehaviorT@HHM@ImGui@@YA_NAEBUImRect@@IHPEAHHHPEBDMHPEAU1@@Z 00000001400d4ec0 f i imgui_widgets.obj
 0001:000d4ac0       ??$SliderBehaviorT@IHM@ImGui@@YA_NAEBUImRect@@IHPEAIIIPEBDMHPEAU1@@Z 00000001400d5ac0 f i imgui_widgets.obj
 0001:000d56e0       ??$SliderBehaviorT@MMM@ImGui@@YA_NAEBUImRect@@IHPEAMMMPEBDMHPEAU1@@Z 00000001400d66e0 f i imgui_widgets.obj
 0001:000d6320       ??$SliderBehaviorT@NNN@ImGui@@YA_NAEBUImRect@@IHPEANNNPEBDMHPEAU1@@Z 00000001400d7320 f i imgui_widgets.obj
 0001:000d6fa0       ??$SliderBehaviorT@_J_JN@ImGui@@YA_NAEBUImRect@@IHPEA_J_J2PEBDMHPEAU1@@Z 00000001400d7fa0 f i imgui_widgets.obj
 0001:000d7c10       ??$SliderBehaviorT@_K_JN@ImGui@@YA_NAEBUImRect@@IHPEA_K_K2PEBDMHPEAU1@@Z 00000001400d8c10 f i imgui_widgets.obj
 0001:000d89d0       ??$SliderCalcRatioFromValueT@HM@ImGui@@YAMHHHHMM@Z 00000001400d99d0 f i imgui_widgets.obj
 0001:000d8bd0       ??$SliderCalcRatioFromValueT@IM@ImGui@@YAMHIIIMM@Z 00000001400d9bd0 f i imgui_widgets.obj
 0001:000d8de0       ??$SliderCalcRatioFromValueT@MM@ImGui@@YAMHMMMMM@Z 00000001400d9de0 f i imgui_widgets.obj
 0001:000d8ff0       ??$SliderCalcRatioFromValueT@NN@ImGui@@YAMHNNNMM@Z 00000001400d9ff0 f i imgui_widgets.obj
 0001:000d9220       ??$SliderCalcRatioFromValueT@_JN@ImGui@@YAMH_J00MM@Z 00000001400da220 f i imgui_widgets.obj
 0001:000d9490       ??$SliderCalcRatioFromValueT@_KN@ImGui@@YAMH_K00MM@Z 00000001400da490 f i imgui_widgets.obj
 0001:000d97a0       ??0ImGuiColumnData@@QEAA@XZ 00000001400da7a0 f i imgui_widgets.obj
 0001:000d97f0       ??0ImGuiColumns@@QEAA@XZ   00000001400da7f0 f i imgui_widgets.obj
 0001:000d9860       ??0ImGuiItemHoveredDataBackup@@QEAA@XZ 00000001400da860 f i imgui_widgets.obj
 0001:000d98a0       ??0ImGuiPlotArrayGetterData@@QEAA@PEBMH@Z 00000001400da8a0 f i imgui_widgets.obj
 0001:000d98d0       ??0ImGuiPtrOrIndex@@QEAA@H@Z 00000001400da8d0 f i imgui_widgets.obj
 0001:000d9900       ??0ImGuiPtrOrIndex@@QEAA@PEAX@Z 00000001400da900 f i imgui_widgets.obj
 0001:000d9930       ??0ImGuiTabItem@@QEAA@XZ   00000001400da930 f i imgui_widgets.obj
 0001:000d99b0       ??A?$ImVector@G@@QEBAAEBGH@Z 00000001400da9b0 f i imgui_widgets.obj
 0001:000d9a00       ??A?$ImVector@M@@QEBAAEBMH@Z 00000001400daa00 f i imgui_widgets.obj
 0001:000d9a00       ??A?$ImVector@I@@QEBAAEBIH@Z 00000001400daa00 f i imgui_draw.obj
 0001:000d9a50       ??A?$ImVector@Ustbtt_packedchar@@@@QEAAAEAUstbtt_packedchar@@H@Z 00000001400daa50 f i imgui_draw.obj
 0001:000d9a50       ??A?$ImVector@UImGuiColumnData@@@@QEAAAEAUImGuiColumnData@@H@Z 00000001400daa50 f i imgui_widgets.obj
 0001:000d9aa0       ??AImVec2@@QEBAM_K@Z       00000001400daaa0 f i imgui_widgets.obj
 0001:000d9af0       ?Add@?$ImPool@UImGuiTabBar@@@@QEAAPEAUImGuiTabBar@@XZ 00000001400daaf0 f i imgui_widgets.obj
 0001:000d9c20       ?Backup@ImGuiItemHoveredDataBackup@@QEAAXXZ 00000001400dac20 f i imgui_widgets.obj
 0001:000d9ca0       ?Clear@ImGuiColumns@@QEAAXXZ 00000001400daca0 f i imgui_widgets.obj
 0001:000d9d50       ?ClearSelection@ImGuiInputTextState@@QEAAXXZ 00000001400dad50 f i imgui_widgets.obj
 0001:000d9d80       ?Contains@?$ImPool@UImGuiTabBar@@@@QEBA_NPEBUImGuiTabBar@@@Z 00000001400dad80 f i imgui_widgets.obj
 0001:000d9de0       ?CursorAnimReset@ImGuiInputTextState@@QEAAXXZ 00000001400dade0 f i imgui_widgets.obj
 0001:000d9e00       ?CursorClamp@ImGuiInputTextState@@QEAAXXZ 00000001400dae00 f i imgui_widgets.obj
 0001:000d9e70       ?GetCharAdvance@ImFont@@QEBAMG@Z 00000001400dae70 f i imgui_widgets.obj
 0001:000d9ed0       ?GetIndex@?$ImPool@UImGuiTabBar@@@@QEBAHPEBUImGuiTabBar@@@Z 00000001400daed0 f i imgui_widgets.obj
 0001:000d9f50       ?GetInputTextState@ImGui@@YAPEAUImGuiInputTextState@@I@Z 00000001400daf50 f i imgui_widgets.obj
 0001:000d9fa0       ?GetOrAddByKey@?$ImPool@UImGuiTabBar@@@@QEAAPEAUImGuiTabBar@@I@Z 00000001400dafa0 f i imgui_widgets.obj
 0001:000da020       ?GetTL@ImRect@@QEBA?AUImVec2@@XZ 00000001400db020 f i imgui_widgets.obj
 0001:000da040       ?HasSelection@ImGuiInputTextState@@QEBA_NXZ 00000001400db040 f i imgui_widgets.obj
 0001:000da080       ?PrimVtx@ImDrawList@@QEAAXAEBUImVec2@@0I@Z 00000001400db080 f i imgui_widgets.obj
 0001:000da0d0       ?PrimWriteIdx@ImDrawList@@QEAAXG@Z 00000001400db0d0 f i imgui_widgets.obj
 0001:000da110       ?PrimWriteVtx@ImDrawList@@QEAAXAEBUImVec2@@0I@Z 00000001400db110 f i imgui_widgets.obj
 0001:000da190       ?Restore@ImGuiItemHoveredDataBackup@@QEBAXXZ 00000001400db190 f i imgui_widgets.obj
 0001:000da210       ?SelectAll@ImGuiInputTextState@@QEAAXXZ 00000001400db210 f i imgui_widgets.obj
 0001:000da250       ?TempInputIsActive@ImGui@@YA_NI@Z 00000001400db250 f i imgui_widgets.obj
 0001:000da2a0       ?back@?$ImVector@UImGuiColumns@@@@QEAAAEAUImGuiColumns@@XZ 00000001400db2a0 f i imgui_widgets.obj
 0001:000da2f0       ?contains@?$ImVector@G@@QEBA_NAEBG@Z 00000001400db2f0 f i imgui_widgets.obj
 0001:000da370       ?erase@?$ImVector@UImGuiTabItem@@@@QEAAPEAUImGuiTabItem@@PEBU2@@Z 00000001400db370 f i imgui_widgets.obj
 0001:000da460       ?push_back@?$ImVector@UImGuiColumnData@@@@QEAAXAEBUImGuiColumnData@@@Z 00000001400db460 f i imgui_widgets.obj
 0001:000da4e0       ?push_back@?$ImVector@UImGuiColumns@@@@QEAAXAEBUImGuiColumns@@@Z 00000001400db4e0 f i imgui_widgets.obj
 0001:000da560       ?push_back@?$ImVector@UImGuiTabItem@@@@QEAAXAEBUImGuiTabItem@@@Z 00000001400db560 f i imgui_widgets.obj
 0001:000da5e0       ?reserve@?$ImVector@UImGuiColumnData@@@@QEAAXH@Z 00000001400db5e0 f i imgui_widgets.obj
 0001:000da5e0       ?reserve@?$ImVector@Ustbtt_packedchar@@@@QEAAXH@Z 00000001400db5e0 f i imgui_draw.obj
 0001:000da670       ?reserve@?$ImVector@UImGuiColumns@@@@QEAAXH@Z 00000001400db670 f i imgui_widgets.obj
 0001:000da700       ?reserve@?$ImVector@UImGuiTabBar@@@@QEAAXH@Z 00000001400db700 f i imgui_widgets.obj
 0001:000da7a0       ?reserve@?$ImVector@UImFontGlyph@@@@QEAAXH@Z 00000001400db7a0 f i imgui_draw.obj
 0001:000da7a0       ?reserve@?$ImVector@UImGuiTabItem@@@@QEAAXH@Z 00000001400db7a0 f i imgui_widgets.obj
 0001:000da830       ?resize@?$ImVector@UImGuiColumnData@@@@QEAAXH@Z 00000001400db830 f i imgui_widgets.obj
 0001:000da830       ?resize@?$ImVector@Ustbtt_packedchar@@@@QEAAXH@Z 00000001400db830 f i imgui_draw.obj
 0001:000da880       ?resize@?$ImVector@UImGuiTabBar@@@@QEAAXH@Z 00000001400db880 f i imgui_widgets.obj
 0001:000da8d0       ?resize@?$ImVector@UImGuiTabItem@@@@QEAAXH@Z 00000001400db8d0 f i imgui_widgets.obj
 0001:000da8d0       ?resize@?$ImVector@UImFontGlyph@@@@QEAAXH@Z 00000001400db8d0 f i imgui_draw.obj
 0001:000da920       ?StyleColorsDark@ImGui@@YAXPEAUImGuiStyle@@@Z 00000001400db920 f   imgui_draw.obj
 0001:000db8d0       ?StyleColorsClassic@ImGui@@YAXPEAUImGuiStyle@@@Z 00000001400dc8d0 f   imgui_draw.obj
 0001:000dc870       ?StyleColorsLight@ImGui@@YAXPEAUImGuiStyle@@@Z 00000001400dd870 f   imgui_draw.obj
 0001:000dd820       ?ClearFreeMemory@ImDrawListSplitter@@QEAAXXZ 00000001400de820 f   imgui_draw.obj
 0001:000dd910       ?Split@ImDrawListSplitter@@QEAAXPEAUImDrawList@@H@Z 00000001400de910 f   imgui_draw.obj
 0001:000ddbf0       ?Merge@ImDrawListSplitter@@QEAAXPEAUImDrawList@@@Z 00000001400debf0 f   imgui_draw.obj
 0001:000de0d0       ?SetCurrentChannel@ImDrawListSplitter@@QEAAXPEAUImDrawList@@H@Z 00000001400df0d0 f   imgui_draw.obj
 0001:000de200       ?PushClipRect@ImDrawList@@QEAAXUImVec2@@0_N@Z 00000001400df200 f   imgui_draw.obj
 0001:000de370       ?PushClipRectFullScreen@ImDrawList@@QEAAXXZ 00000001400df370 f   imgui_draw.obj
 0001:000de400       ?PopClipRect@ImDrawList@@QEAAXXZ 00000001400df400 f   imgui_draw.obj
 0001:000de460       ?PushTextureID@ImDrawList@@QEAAXPEAX@Z 00000001400df460 f   imgui_draw.obj
 0001:000de4a0       ?PopTextureID@ImDrawList@@QEAAXXZ 00000001400df4a0 f   imgui_draw.obj
 0001:000de500       ?AddLine@ImDrawList@@QEAAXAEBUImVec2@@0IM@Z 00000001400df500 f   imgui_draw.obj
 0001:000de5c0       ?AddRect@ImDrawList@@QEAAXAEBUImVec2@@0IMHM@Z 00000001400df5c0 f   imgui_draw.obj
 0001:000de770       ?AddRectFilled@ImDrawList@@QEAAXAEBUImVec2@@0IMH@Z 00000001400df770 f   imgui_draw.obj
 0001:000de820       ?AddRectFilledMultiColor@ImDrawList@@QEAAXAEBUImVec2@@0IIII@Z 00000001400df820 f   imgui_draw.obj
 0001:000de9b0       ?AddQuad@ImDrawList@@QEAAXAEBUImVec2@@000IM@Z 00000001400df9b0 f   imgui_draw.obj
 0001:000dea40       ?AddQuadFilled@ImDrawList@@QEAAXAEBUImVec2@@000I@Z 00000001400dfa40 f   imgui_draw.obj
 0001:000deac0       ?AddTriangle@ImDrawList@@QEAAXAEBUImVec2@@00IM@Z 00000001400dfac0 f   imgui_draw.obj
 0001:000deb40       ?AddTriangleFilled@ImDrawList@@QEAAXAEBUImVec2@@00I@Z 00000001400dfb40 f   imgui_draw.obj
 0001:000debb0       ?AddCircle@ImDrawList@@QEAAXAEBUImVec2@@MIHM@Z 00000001400dfbb0 f   imgui_draw.obj
 0001:000ded40       ?AddCircleFilled@ImDrawList@@QEAAXAEBUImVec2@@MIH@Z 00000001400dfd40 f   imgui_draw.obj
 0001:000deeb0       ?AddNgon@ImDrawList@@QEAAXAEBUImVec2@@MIHM@Z 00000001400dfeb0 f   imgui_draw.obj
 0001:000def70       ?AddNgonFilled@ImDrawList@@QEAAXAEBUImVec2@@MIH@Z 00000001400dff70 f   imgui_draw.obj
 0001:000df020       ?AddText@ImDrawList@@QEAAXAEBUImVec2@@IPEBD1@Z 00000001400e0020 f   imgui_draw.obj
 0001:000df090       ?AddText@ImDrawList@@QEAAXPEBUImFont@@MAEBUImVec2@@IPEBD2MPEBUImVec4@@@Z 00000001400e0090 f   imgui_draw.obj
 0001:000df310       ?AddPolyline@ImDrawList@@QEAAXPEBUImVec2@@HI_NM@Z 00000001400e0310 f   imgui_draw.obj
 0001:000e0d50       ?AddConvexPolyFilled@ImDrawList@@QEAAXPEBUImVec2@@HI@Z 00000001400e1d50 f   imgui_draw.obj
 0001:000e1560       ?AddBezierCurve@ImDrawList@@QEAAXAEBUImVec2@@000IMH@Z 00000001400e2560 f   imgui_draw.obj
 0001:000e15e0       ?AddImage@ImDrawList@@QEAAXPEAXAEBUImVec2@@111I@Z 00000001400e25e0 f   imgui_draw.obj
 0001:000e16d0       ?AddImageQuad@ImDrawList@@QEAAXPEAXAEBUImVec2@@1111111I@Z 00000001400e26d0 f   imgui_draw.obj
 0001:000e1800       ?AddImageRounded@ImDrawList@@QEAAXPEAXAEBUImVec2@@111IMH@Z 00000001400e2800 f   imgui_draw.obj
 0001:000e19a0       ?PathArcTo@ImDrawList@@QEAAXAEBUImVec2@@MMMH@Z 00000001400e29a0 f   imgui_draw.obj
 0001:000e1b10       ?PathArcToFast@ImDrawList@@QEAAXAEBUImVec2@@MHH@Z 00000001400e2b10 f   imgui_draw.obj
 0001:000e1c90       ?PathBezierCurveTo@ImDrawList@@QEAAXAEBUImVec2@@00H@Z 00000001400e2c90 f   imgui_draw.obj
 0001:000e1e40       ?PathRect@ImDrawList@@QEAAXAEBUImVec2@@0MH@Z 00000001400e2e40 f   imgui_draw.obj
 0001:000e2250       ?AddCallback@ImDrawList@@QEAAXP6AXPEBU1@PEBUImDrawCmd@@@ZPEAX@Z 00000001400e3250 f   imgui_draw.obj
 0001:000e2300       ?AddDrawCmd@ImDrawList@@QEAAXXZ 00000001400e3300 f   imgui_draw.obj
 0001:000e2450       ?CloneOutput@ImDrawList@@QEBAPEAU1@XZ 00000001400e3450 f   imgui_draw.obj
 0001:000e2540       ?Clear@ImDrawList@@QEAAXXZ 00000001400e3540 f   imgui_draw.obj
 0001:000e2670       ?ClearFreeMemory@ImDrawList@@QEAAXXZ 00000001400e3670 f   imgui_draw.obj
 0001:000e2730       ?PrimReserve@ImDrawList@@QEAAXHH@Z 00000001400e3730 f   imgui_draw.obj
 0001:000e2870       ?PrimUnreserve@ImDrawList@@QEAAXHH@Z 00000001400e3870 f   imgui_draw.obj
 0001:000e2910       ?PrimRect@ImDrawList@@QEAAXAEBUImVec2@@0I@Z 00000001400e3910 f   imgui_draw.obj
 0001:000e2bd0       ?PrimRectUV@ImDrawList@@QEAAXAEBUImVec2@@000I@Z 00000001400e3bd0 f   imgui_draw.obj
 0001:000e2ed0       ?PrimQuadUV@ImDrawList@@QEAAXAEBUImVec2@@0000000I@Z 00000001400e3ed0 f   imgui_draw.obj
 0001:000e3150       ?UpdateClipRect@ImDrawList@@QEAAXXZ 00000001400e4150 f   imgui_draw.obj
 0001:000e3360       ?UpdateTextureID@ImDrawList@@QEAAXXZ 00000001400e4360 f   imgui_draw.obj
 0001:000e3510       ?DeIndexAllBuffers@ImDrawData@@QEAAXXZ 00000001400e4510 f   imgui_draw.obj
 0001:000e36c0       ?ScaleClipRects@ImDrawData@@QEAAXAEBUImVec2@@@Z 00000001400e46c0 f   imgui_draw.obj
 0001:000e3800       ??0ImFontConfig@@QEAA@XZ   00000001400e4800 f   imgui_draw.obj
 0001:000e3960       ?AddText@ImFontGlyphRangesBuilder@@QEAAXPEBD0@Z 00000001400e4960 f   imgui_draw.obj
 0001:000e3a20       ?AddRanges@ImFontGlyphRangesBuilder@@QEAAXPEBG@Z 00000001400e4a20 f   imgui_draw.obj
 0001:000e3ac0       ?BuildRanges@ImFontGlyphRangesBuilder@@QEAAXPEAU?$ImVector@G@@@Z 00000001400e4ac0 f   imgui_draw.obj
 0001:000e3ba0       ??0ImFontAtlas@@QEAA@XZ    00000001400e4ba0 f   imgui_draw.obj
 0001:000e3cf0       ??1ImFontAtlas@@QEAA@XZ    00000001400e4cf0 f   imgui_draw.obj
 0001:000e3d80       ?AddFont@ImFontAtlas@@QEAAPEAUImFont@@PEBUImFontConfig@@@Z 00000001400e4d80 f   imgui_draw.obj
 0001:000e4030       ?AddFontDefault@ImFontAtlas@@QEAAPEAUImFont@@PEBUImFontConfig@@@Z 00000001400e5030 f   imgui_draw.obj
 0001:000e41e0       ?AddFontFromFileTTF@ImFontAtlas@@QEAAPEAUImFont@@PEBDMPEBUImFontConfig@@PEBG@Z 00000001400e51e0 f   imgui_draw.obj
 0001:000e4440       ?AddFontFromMemoryTTF@ImFontAtlas@@QEAAPEAUImFont@@PEAXHMPEBUImFontConfig@@PEBG@Z 00000001400e5440 f   imgui_draw.obj
 0001:000e45a0       ?AddFontFromMemoryCompressedTTF@ImFontAtlas@@QEAAPEAUImFont@@PEBXHMPEBUImFontConfig@@PEBG@Z 00000001400e55a0 f   imgui_draw.obj
 0001:000e46f0       ?AddFontFromMemoryCompressedBase85TTF@ImFontAtlas@@QEAAPEAUImFont@@PEBDMPEBUImFontConfig@@PEBG@Z 00000001400e56f0 f   imgui_draw.obj
 0001:000e47c0       ?ClearInputData@ImFontAtlas@@QEAAXXZ 00000001400e57c0 f   imgui_draw.obj
 0001:000e4a30       ?ClearTexData@ImFontAtlas@@QEAAXXZ 00000001400e5a30 f   imgui_draw.obj
 0001:000e4ad0       ?ClearFonts@ImFontAtlas@@QEAAXXZ 00000001400e5ad0 f   imgui_draw.obj
 0001:000e4b80       ?Clear@ImFontAtlas@@QEAAXXZ 00000001400e5b80 f   imgui_draw.obj
 0001:000e4bc0       ?Build@ImFontAtlas@@QEAA_NXZ 00000001400e5bc0 f   imgui_draw.obj
 0001:000e4c20       ?GetTexDataAsAlpha8@ImFontAtlas@@QEAAXPEAPEAEPEAH11@Z 00000001400e5c20 f   imgui_draw.obj
 0001:000e4cd0       ?GetTexDataAsRGBA32@ImFontAtlas@@QEAAXPEAPEAEPEAH11@Z 00000001400e5cd0 f   imgui_draw.obj
 0001:000e4e40       ?GetGlyphRangesDefault@ImFontAtlas@@QEAAPEBGXZ 00000001400e5e40 f   imgui_draw.obj
 0001:000e4e70       ?GetGlyphRangesKorean@ImFontAtlas@@QEAAPEBGXZ 00000001400e5e70 f   imgui_draw.obj
 0001:000e4ea0       ?GetGlyphRangesJapanese@ImFontAtlas@@QEAAPEBGXZ 00000001400e5ea0 f   imgui_draw.obj
 0001:000e4f30       ?GetGlyphRangesChineseFull@ImFontAtlas@@QEAAPEBGXZ 00000001400e5f30 f   imgui_draw.obj
 0001:000e4f60       ?GetGlyphRangesChineseSimplifiedCommon@ImFontAtlas@@QEAAPEBGXZ 00000001400e5f60 f   imgui_draw.obj
 0001:000e4ff0       ?GetGlyphRangesCyrillic@ImFontAtlas@@QEAAPEBGXZ 00000001400e5ff0 f   imgui_draw.obj
 0001:000e5020       ?GetGlyphRangesThai@ImFontAtlas@@QEAAPEBGXZ 00000001400e6020 f   imgui_draw.obj
 0001:000e5050       ?GetGlyphRangesVietnamese@ImFontAtlas@@QEAAPEBGXZ 00000001400e6050 f   imgui_draw.obj
 0001:000e5080       ?AddCustomRectRegular@ImFontAtlas@@QEAAHIHH@Z 00000001400e6080 f   imgui_draw.obj
 0001:000e5170       ?AddCustomRectFontGlyph@ImFontAtlas@@QEAAHPEAUImFont@@GHHMAEBUImVec2@@@Z 00000001400e6170 f   imgui_draw.obj
 0001:000e52a0       ?CalcCustomRectUV@ImFontAtlas@@QEBAXPEBUImFontAtlasCustomRect@@PEAUImVec2@@1@Z 00000001400e62a0 f   imgui_draw.obj
 0001:000e53d0       ?GetMouseCursorTexData@ImFontAtlas@@QEAA_NHPEAUImVec2@@0QEAU2@1@Z 00000001400e63d0 f   imgui_draw.obj
 0001:000e56b0       ??0ImFont@@QEAA@XZ         00000001400e66b0 f   imgui_draw.obj
 0001:000e57f0       ??1ImFont@@QEAA@XZ         00000001400e67f0 f   imgui_draw.obj
 0001:000e5850       ?FindGlyph@ImFont@@QEBAPEBUImFontGlyph@@G@Z 00000001400e6850 f   imgui_draw.obj
 0001:000e58d0       ?FindGlyphNoFallback@ImFont@@QEBAPEBUImFontGlyph@@G@Z 00000001400e68d0 f   imgui_draw.obj
 0001:000e5940       ?CalcTextSizeA@ImFont@@QEBA?AUImVec2@@MMMPEBD0PEAPEBD@Z 00000001400e6940 f   imgui_draw.obj
 0001:000e5d30       ?CalcWordWrapPositionA@ImFont@@QEBAPEBDMPEBD0M@Z 00000001400e6d30 f   imgui_draw.obj
 0001:000e6030       ?RenderChar@ImFont@@QEBAXPEAUImDrawList@@MUImVec2@@IG@Z 00000001400e7030 f   imgui_draw.obj
 0001:000e6260       ?RenderText@ImFont@@QEBAXPEAUImDrawList@@MUImVec2@@IAEBUImVec4@@PEBD3M_N@Z 00000001400e7260 f   imgui_draw.obj
 0001:000e7010       ?BuildLookupTable@ImFont@@QEAAXXZ 00000001400e8010 f   imgui_draw.obj
 0001:000e74c0       ?ClearOutputData@ImFont@@QEAAXXZ 00000001400e84c0 f   imgui_draw.obj
 0001:000e7570       ?GrowIndex@ImFont@@QEAAXH@Z 00000001400e8570 f   imgui_draw.obj
 0001:000e7620       ?AddGlyph@ImFont@@QEAAXGMMMMMMMMM@Z 00000001400e8620 f   imgui_draw.obj
 0001:000e7860       ?AddRemapChar@ImFont@@QEAAXGG_N@Z 00000001400e8860 f   imgui_draw.obj
 0001:000e79d0       ?SetGlyphVisible@ImFont@@QEAAXG_N@Z 00000001400e89d0 f   imgui_draw.obj
 0001:000e7a50       ?SetFallbackChar@ImFont@@QEAAXG@Z 00000001400e8a50 f   imgui_draw.obj
 0001:000e7a90       ?IsGlyphRangeUnused@ImFont@@QEAA_NII@Z 00000001400e8a90 f   imgui_draw.obj
 0001:000e83f0       ?ImBezierCalc@@YA?AUImVec2@@AEBU1@000M@Z 00000001400e93f0 f   imgui_draw.obj
 0001:000e8580       ??0ImDrawListSharedData@@QEAA@XZ 00000001400e9580 f   imgui_draw.obj
 0001:000e8730       ?SetCircleSegmentMaxError@ImDrawListSharedData@@QEAAXM@Z 00000001400e9730 f   imgui_draw.obj
 0001:000e8810       ?RenderColorRectWithAlphaCheckerboard@ImGui@@YAXPEAUImDrawList@@UImVec2@@1IM1MH@Z 00000001400e9810 f   imgui_draw.obj
 0001:000e8bc0       ?RenderArrow@ImGui@@YAXPEAUImDrawList@@UImVec2@@IHM@Z 00000001400e9bc0 f   imgui_draw.obj
 0001:000e8f20       ?RenderBullet@ImGui@@YAXPEAUImDrawList@@UImVec2@@I@Z 00000001400e9f20 f   imgui_draw.obj
 0001:000e8f80       ?RenderCheckMark@ImGui@@YAXPEAUImDrawList@@UImVec2@@IM@Z 00000001400e9f80 f   imgui_draw.obj
 0001:000e9130       ?RenderMouseCursor@ImGui@@YAXPEAUImDrawList@@UImVec2@@MHIII@Z 00000001400ea130 f   imgui_draw.obj
 0001:000e9660       ?RenderArrowPointingAt@ImGui@@YAXPEAUImDrawList@@UImVec2@@1HI@Z 00000001400ea660 f   imgui_draw.obj
 0001:000e9940       ?RenderArrowDockMenu@ImGui@@YAXPEAUImDrawList@@UImVec2@@MI@Z 00000001400ea940 f   imgui_draw.obj
 0001:000e9ae0       ?RenderRectFilledRangeH@ImGui@@YAXPEAUImDrawList@@AEBUImRect@@IMMM@Z 00000001400eaae0 f   imgui_draw.obj
 0001:000ea280       ?RenderRectFilledWithHole@ImGui@@YAXPEAUImDrawList@@UImRect@@1IM@Z 00000001400eb280 f   imgui_draw.obj
 0001:000ea9b0       ?ShadeVertsLinearColorGradientKeepAlpha@ImGui@@YAXPEAUImDrawList@@HHUImVec2@@1II@Z 00000001400eb9b0 f   imgui_draw.obj
 0001:000eab80       ?ShadeVertsLinearUV@ImGui@@YAXPEAUImDrawList@@HHAEBUImVec2@@111_N@Z 00000001400ebb80 f   imgui_draw.obj
 0001:000eae40       ?ImFontAtlasBuildWithStbTruetype@@YA_NPEAUImFontAtlas@@@Z 00000001400ebe40 f   imgui_draw.obj
 0001:000ec7f0       ?ImFontAtlasBuildInit@@YAXPEAUImFontAtlas@@@Z 00000001400ed7f0 f   imgui_draw.obj
 0001:000ec890       ?ImFontAtlasBuildSetupFont@@YAXPEAUImFontAtlas@@PEAUImFont@@PEAUImFontConfig@@MM@Z 00000001400ed890 f   imgui_draw.obj
 0001:000ec930       ?ImFontAtlasBuildPackCustomRects@@YAXPEAUImFontAtlas@@PEAX@Z 00000001400ed930 f   imgui_draw.obj
 0001:000ecc10       ?ImFontAtlasBuildFinish@@YAXPEAUImFontAtlas@@@Z 00000001400edc10 f   imgui_draw.obj
 0001:000ecf50       ?ImFontAtlasBuildMultiplyCalcLookupTable@@YAXQEAEM@Z 00000001400edf50 f   imgui_draw.obj
 0001:000ecfd0       ?ImFontAtlasBuildMultiplyRectAlpha8@@YAXQEBEPEAEHHHHH@Z 00000001400edfd0 f   imgui_draw.obj
 0001:000fa770       ??$IM_DELETE@UImFont@@@@YAXPEAUImFont@@@Z 00000001400fb770 f i imgui_draw.obj
 0001:000fa7a0       ??0ImDrawChannel@@QEAA@XZ  00000001400fb7a0 f i imgui_draw.obj
 0001:000fa7e0       ??0ImDrawCmd@@QEAA@XZ      00000001400fb7e0 f i imgui_draw.obj
 0001:000fa850       ??0ImFontAtlasCustomRect@@QEAA@XZ 00000001400fb850 f i imgui_draw.obj
 0001:000fa8f0       ??1ImFontBuildSrcData@@QEAA@XZ 00000001400fb8f0 f i imgui_draw.obj
 0001:000fa930       ??4?$ImVector@G@@QEAAAEAU0@AEBU0@@Z 00000001400fb930 f i imgui_draw.obj
 0001:000fa990       ??4?$ImVector@UImDrawCmd@@@@QEAAAEAU0@AEBU0@@Z 00000001400fb990 f i imgui_draw.obj
 0001:000fa9f0       ??4?$ImVector@UImDrawVert@@@@QEAAAEAU0@AEBU0@@Z 00000001400fb9f0 f i imgui_draw.obj
 0001:000faa50       ??A?$ImVector@UImDrawCmd@@@@QEAAAEAUImDrawCmd@@H@Z 00000001400fba50 f i imgui_draw.obj
 0001:000faaa0       ??A?$ImVector@UImFontBuildSrcData@@@@QEAAAEAUImFontBuildSrcData@@H@Z 00000001400fbaa0 f i imgui_draw.obj
 0001:000faaf0       ??A?$ImVector@UImFontConfig@@@@QEAAAEAUImFontConfig@@H@Z 00000001400fbaf0 f i imgui_draw.obj
 0001:000fab40       ??_GImFont@@QEAAPEAXI@Z    00000001400fbb40 f i imgui_draw.obj
 0001:000fab80       ??_GImFontBuildSrcData@@QEAAPEAXI@Z 00000001400fbb80 f i imgui_draw.obj
 0001:000fabc0       ?AddChar@ImFontGlyphRangesBuilder@@QEAAXG@Z 00000001400fbbc0 f i imgui_draw.obj
 0001:000fabf0       ?Create@ImBitVector@@QEAAXH@Z 00000001400fbbf0 f i imgui_draw.obj
 0001:000fac50       ?GetBit@ImFontGlyphRangesBuilder@@QEBA_N_K@Z 00000001400fbc50 f i imgui_draw.obj
 0001:000facd0       ?ImBitArraySetBit@@YAXPEAIH@Z 00000001400fbcd0 f i imgui_draw.obj
 0001:000fad30       ?ImBitArrayTestBit@@YA_NPEBIH@Z 00000001400fbd30 f i imgui_draw.obj
 0001:000fad90       ?IsPacked@ImFontAtlasCustomRect@@QEBA_NXZ 00000001400fbd90 f i imgui_draw.obj
 0001:000fadd0       ?SetBit@ImBitVector@@QEAAXH@Z 00000001400fbdd0 f i imgui_draw.obj
 0001:000fae20       ?SetBit@ImFontGlyphRangesBuilder@@QEAAX_K@Z 00000001400fbe20 f i imgui_draw.obj
 0001:000fae90       ?TestBit@ImBitVector@@QEBA_NH@Z 00000001400fbe90 f i imgui_draw.obj
 0001:000faee0       ?back@?$ImVector@UImFontConfig@@@@QEAAAEAUImFontConfig@@XZ 00000001400fbee0 f i imgui_draw.obj
 0001:000faf30       ?end@?$ImVector@I@@QEBAPEBIXZ 00000001400fbf30 f i imgui_draw.obj
 0001:000faf50       ?erase@?$ImVector@UImDrawCmd@@@@QEAAPEAUImDrawCmd@@PEBU2@@Z 00000001400fbf50 f i imgui_draw.obj
 0001:000fb040       ?push_back@?$ImVector@UImDrawCmd@@@@QEAAXAEBUImDrawCmd@@@Z 00000001400fc040 f i imgui_draw.obj
 0001:000fb0c0       ?push_back@?$ImVector@UImFontConfig@@@@QEAAXAEBUImFontConfig@@@Z 00000001400fc0c0 f i imgui_draw.obj
 0001:000fb150       ?reserve@?$ImVector@UImDrawCmd@@@@QEAAXH@Z 00000001400fc150 f i imgui_draw.obj
 0001:000fb1e0       ?reserve@?$ImVector@UImFontBuildSrcData@@@@QEAAXH@Z 00000001400fc1e0 f i imgui_draw.obj
 0001:000fb280       ?reserve@?$ImVector@UImFontConfig@@@@QEAAXH@Z 00000001400fc280 f i imgui_draw.obj
 0001:000fb320       ?resize@?$ImVector@G@@QEAAXHAEBG@Z 00000001400fc320 f i imgui_draw.obj
 0001:000fb3c0       ?resize@?$ImVector@M@@QEAAXHAEBM@Z 00000001400fc3c0 f i imgui_draw.obj
 0001:000fb460       ?resize@?$ImVector@UImDrawChannel@@@@QEAAXH@Z 00000001400fc460 f i imgui_draw.obj
 0001:000fb460       ?resize@?$ImVector@UImFontBuildDstData@@@@QEAAXH@Z 00000001400fc460 f i imgui_draw.obj
 0001:000fb4b0       ?resize@?$ImVector@UImDrawCmd@@@@QEAAXH@Z 00000001400fc4b0 f i imgui_draw.obj
 0001:000fb500       ?resize@?$ImVector@UImDrawVert@@@@QEAAXH@Z 00000001400fc500 f i imgui_draw.obj
 0001:000fb550       ?resize@?$ImVector@UImFontBuildSrcData@@@@QEAAXH@Z 00000001400fc550 f i imgui_draw.obj
 0001:000fb5a0       ?shrink@?$ImVector@G@@QEAAXH@Z 00000001400fc5a0 f i imgui_draw.obj
 0001:000fb5a0       ?shrink@?$ImVector@UImDrawVert@@@@QEAAXH@Z 00000001400fc5a0 f i imgui_draw.obj
 0001:000fb5f0       ?size_in_bytes@?$ImVector@UImFontBuildDstData@@@@QEBAHXZ 00000001400fc5f0 f i imgui_draw.obj
 0001:000fb600       ?size_in_bytes@?$ImVector@UImFontBuildSrcData@@@@QEBAHXZ 00000001400fc600 f i imgui_draw.obj
 0001:000fb620       ?size_in_bytes@?$ImVector@Ustbtt_packedchar@@@@QEBAHXZ 00000001400fc620 f i imgui_draw.obj
 0001:000fb630       _glfwInputError            00000001400fc630 f   glfw3:init.obj
 0001:000fb970       _glfw_strdup               00000001400fc970 f   glfw3:init.obj
 0001:000fb9c0       glfwInit                   00000001400fc9c0 f   glfw3:init.obj
 0001:000fbaf0       glfwSetErrorCallback       00000001400fcaf0 f   glfw3:init.obj
 0001:000fbb00       glfwTerminate              00000001400fcb00 f   glfw3:init.obj
 0001:000fbc80       _glfwInputFramebufferSize  00000001400fcc80 f   glfw3:window.obj
 0001:000fbc90       _glfwInputWindowCloseRequest 00000001400fcc90 f   glfw3:window.obj
 0001:000fbcb0       _glfwInputWindowContentScale 00000001400fccb0 f   glfw3:window.obj
 0001:000fbcc0       _glfwInputWindowDamage     00000001400fccc0 f   glfw3:window.obj
 0001:000fbcd0       _glfwInputWindowFocus      00000001400fccd0 f   glfw3:window.obj
 0001:000fbd70       _glfwInputWindowIconify    00000001400fcd70 f   glfw3:window.obj
 0001:000fbd80       _glfwInputWindowMaximize   00000001400fcd80 f   glfw3:window.obj
 0001:000fbd90       _glfwInputWindowMonitor    00000001400fcd90 f   glfw3:window.obj
 0001:000fbda0       _glfwInputWindowPos        00000001400fcda0 f   glfw3:window.obj
 0001:000fbdb0       _glfwInputWindowSize       00000001400fcdb0 f   glfw3:window.obj
 0001:000fbdc0       glfwCreateWindow           00000001400fcdc0 f   glfw3:window.obj
 0001:000fc0a0       glfwDefaultWindowHints     00000001400fd0a0 f   glfw3:window.obj
 0001:000fc1a0       glfwDestroyWindow          00000001400fd1a0 f   glfw3:window.obj
 0001:000fc280       glfwFocusWindow            00000001400fd280 f   glfw3:window.obj
 0001:000fc2a0       glfwGetFramebufferSize     00000001400fd2a0 f   glfw3:window.obj
 0001:000fc2a0       glfwGetWindowSize          00000001400fd2a0 f   glfw3:window.obj
 0001:000fc2d0       glfwGetWindowAttrib        00000001400fd2d0 f   glfw3:window.obj
 0001:000fc4a0       glfwGetWindowPos           00000001400fd4a0 f   glfw3:window.obj
 0001:000fc4d0       glfwPollEvents             00000001400fd4d0 f   glfw3:window.obj
 0001:000fc4f0       glfwSetWindowCloseCallback 00000001400fd4f0 f   glfw3:window.obj
 0001:000fc530       glfwSetWindowOpacity       00000001400fd530 f   glfw3:window.obj
 0001:000fc580       glfwSetWindowPos           00000001400fd580 f   glfw3:window.obj
 0001:000fc5b0       glfwSetWindowPosCallback   00000001400fd5b0 f   glfw3:window.obj
 0001:000fc5f0       glfwSetWindowShouldClose   00000001400fd5f0 f   glfw3:window.obj
 0001:000fc610       glfwSetWindowSize          00000001400fd610 f   glfw3:window.obj
 0001:000fc640       glfwSetWindowSizeCallback  00000001400fd640 f   glfw3:window.obj
 0001:000fc680       glfwSetWindowTitle         00000001400fd680 f   glfw3:window.obj
 0001:000fc6a0       glfwShowWindow             00000001400fd6a0 f   glfw3:window.obj
 0001:000fc6f0       glfwWindowHint             00000001400fd6f0 f   glfw3:window.obj
 0001:000fca00       glfwWindowShouldClose      00000001400fda00 f   glfw3:window.obj
 0001:000fca30       _glfwAllocJoystick         00000001400fda30 f   glfw3:input.obj
 0001:000fcca0       _glfwCenterCursorInContentArea 00000001400fdca0 f   glfw3:input.obj
 0001:000fccf0       _glfwFreeJoystick          00000001400fdcf0 f   glfw3:input.obj
 0001:000fcd40       _glfwInputChar             00000001400fdd40 f   glfw3:input.obj
 0001:000fcdb0       _glfwInputCursorEnter      00000001400fddb0 f   glfw3:input.obj
 0001:000fcdc0       _glfwInputCursorPos        00000001400fddc0 f   glfw3:input.obj
 0001:000fce00       _glfwInputDrop             00000001400fde00 f   glfw3:input.obj
 0001:000fce10       _glfwInputJoystick         00000001400fde10 f   glfw3:input.obj
 0001:000fce60       _glfwInputJoystickAxis     00000001400fde60 f   glfw3:input.obj
 0001:000fce70       _glfwInputJoystickButton   00000001400fde70 f   glfw3:input.obj
 0001:000fce80       _glfwInputJoystickHat      00000001400fde80 f   glfw3:input.obj
 0001:000fcef0       _glfwInputKey              00000001400fdef0 f   glfw3:input.obj
 0001:000fcf80       _glfwInputMouseClick       00000001400fdf80 f   glfw3:input.obj
 0001:000fcfd0       _glfwInputScroll           00000001400fdfd0 f   glfw3:input.obj
 0001:000fd160       glfwCreateStandardCursor   00000001400fe160 f   glfw3:input.obj
 0001:000fd210       glfwDestroyCursor          00000001400fe210 f   glfw3:input.obj
 0001:000fd2e0       glfwGetClipboardString     00000001400fe2e0 f   glfw3:input.obj
 0001:000fd310       glfwGetCursorPos           00000001400fe310 f   glfw3:input.obj
 0001:000fd370       glfwGetInputMode           00000001400fe370 f   glfw3:input.obj
 0001:000fd400       glfwGetJoystickAxes        00000001400fe400 f   glfw3:input.obj
 0001:000fd4a0       glfwGetJoystickButtons     00000001400fe4a0 f   glfw3:input.obj
 0001:000fd560       glfwGetJoystickName        00000001400fe560 f   glfw3:input.obj
 0001:000fd5f0       glfwGetKey                 00000001400fe5f0 f   glfw3:input.obj
 0001:000fd670       glfwGetMouseButton         00000001400fe670 f   glfw3:input.obj
 0001:000fd6e0       glfwGetTime                00000001400fe6e0 f   glfw3:input.obj
 0001:000fd780       glfwJoystickPresent        00000001400fe780 f   glfw3:input.obj
 0001:000fd7f0       glfwSetCharCallback        00000001400fe7f0 f   glfw3:input.obj
 0001:000fd830       glfwSetClipboardString     00000001400fe830 f   glfw3:input.obj
 0001:000fd850       glfwSetCursor              00000001400fe850 f   glfw3:input.obj
 0001:000fd870       glfwSetCursorPos           00000001400fe870 f   glfw3:input.obj
 0001:000fd970       glfwSetCursorPosCallback   00000001400fe970 f   glfw3:input.obj
 0001:000fd9b0       glfwSetInputMode           00000001400fe9b0 f   glfw3:input.obj
 0001:000fdb90       glfwSetKeyCallback         00000001400feb90 f   glfw3:input.obj
 0001:000fdbd0       glfwSetMouseButtonCallback 00000001400febd0 f   glfw3:input.obj
 0001:000fdc10       glfwSetScrollCallback      00000001400fec10 f   glfw3:input.obj
 0001:000fdc50       glfwUpdateGamepadMappings  00000001400fec50 f   glfw3:input.obj
 0001:000fe6b0       _glfwChooseFBConfig        00000001400ff6b0 f   glfw3:context.obj
 0001:000fe8b0       _glfwIsValidContextConfig  00000001400ff8b0 f   glfw3:context.obj
 0001:000feac0       _glfwRefreshContextAttribs 00000001400ffac0 f   glfw3:context.obj
 0001:000feea0       _glfwStringInExtensionString 00000001400ffea0 f   glfw3:context.obj
 0001:000fef10       glfwExtensionSupported     00000001400fff10 f   glfw3:context.obj
 0001:000ff0c0       glfwGetCurrentContext      00000001401000c0 f   glfw3:context.obj
 0001:000ff0f0       glfwGetProcAddress         00000001401000f0 f   glfw3:context.obj
 0001:000ff150       glfwMakeContextCurrent     0000000140100150 f   glfw3:context.obj
 0001:000ff1f0       glfwSwapBuffers            00000001401001f0 f   glfw3:context.obj
 0001:000ff230       glfwSwapInterval           0000000140100230 f   glfw3:context.obj
 0001:000ff290       _glfwAllocMonitor          0000000140100290 f   glfw3:monitor.obj
 0001:000ff2f0       _glfwChooseVideoMode       00000001401002f0 f   glfw3:monitor.obj
 0001:000ff420       _glfwCompareVideoModes     0000000140100420 f   glfw3:monitor.obj
 0001:000ff460       _glfwFreeMonitor           0000000140100460 f   glfw3:monitor.obj
 0001:000ff4f0       _glfwInputMonitor          00000001401004f0 f   glfw3:monitor.obj
 0001:000ff720       _glfwInputMonitorWindow    0000000140100720 f   glfw3:monitor.obj
 0001:000ff730       _glfwSplitBPP              0000000140100730 f   glfw3:monitor.obj
 0001:000ff7d0       glfwGetMonitorContentScale 00000001401007d0 f   glfw3:monitor.obj
 0001:000ff800       glfwGetMonitorPos          0000000140100800 f   glfw3:monitor.obj
 0001:000ff830       glfwGetMonitorWorkarea     0000000140100830 f   glfw3:monitor.obj
 0001:000ff880       glfwGetMonitors            0000000140100880 f   glfw3:monitor.obj
 0001:000ff8c0       glfwGetVideoMode           00000001401008c0 f   glfw3:monitor.obj
 0001:000ff900       glfwSetMonitorCallback     0000000140100900 f   glfw3:monitor.obj
 0001:000ff9c0       _glfwPlatformCreateStandardCursor 00000001401009c0 f   glfw3:win32_window.obj
 0001:000ffa70       _glfwPlatformCreateWindow  0000000140100a70 f   glfw3:win32_window.obj
 0001:000ffb80       _glfwPlatformCreateWindowSurface 0000000140100b80 f   glfw3:win32_window.obj
 0001:000ffc60       _glfwPlatformDestroyCursor 0000000140100c60 f   glfw3:win32_window.obj
 0001:000ffc80       _glfwPlatformDestroyWindow 0000000140100c80 f   glfw3:win32_window.obj
 0001:000ffd20       _glfwPlatformFocusWindow   0000000140100d20 f   glfw3:win32_window.obj
 0001:000ffd60       _glfwPlatformFramebufferTransparent 0000000140100d60 f   glfw3:win32_window.obj
 0001:000ffdb0       _glfwPlatformGetClipboardString 0000000140100db0 f   glfw3:win32_window.obj
 0001:000ffea0       _glfwPlatformGetCursorPos  0000000140100ea0 f   glfw3:win32_window.obj
 0001:000fff10       _glfwPlatformGetFramebufferSize 0000000140100f10 f   glfw3:win32_window.obj
 0001:000fff10       _glfwPlatformGetWindowSize 0000000140100f10 f   glfw3:win32_window.obj
 0001:000fff70       _glfwPlatformGetKeyScancode 0000000140100f70 f   glfw3:win32_window.obj
 0001:000fff80       _glfwPlatformGetRequiredInstanceExtensions 0000000140100f80 f   glfw3:win32_window.obj
 0001:000fffb0       _glfwPlatformGetWindowFrameSize 0000000140100fb0 f   glfw3:win32_window.obj
 0001:00100170       _glfwPlatformGetWindowPos  0000000140101170 f   glfw3:win32_window.obj
 0001:001001c0       _glfwPlatformPollEvents    00000001401011c0 f   glfw3:win32_window.obj
 0001:001003a0       _glfwPlatformRawMouseMotionSupported 00000001401013a0 f   glfw3:win32_window.obj
 0001:001003b0       _glfwPlatformSetClipboardString 00000001401013b0 f   glfw3:win32_window.obj
 0001:001004d0       _glfwPlatformSetCursor     00000001401014d0 f   glfw3:win32_window.obj
 0001:00100540       _glfwPlatformSetCursorMode 0000000140101540 f   glfw3:win32_window.obj
 0001:001005a0       _glfwPlatformSetCursorPos  00000001401015a0 f   glfw3:win32_window.obj
 0001:001005f0       _glfwPlatformSetRawMouseMotion 00000001401015f0 f   glfw3:win32_window.obj
 0001:00100680       _glfwPlatformSetWindowMonitor 0000000140101680 f   glfw3:win32_window.obj
 0001:00100a80       _glfwPlatformSetWindowOpacity 0000000140101a80 f   glfw3:win32_window.obj
 0001:00100b20       _glfwPlatformSetWindowPos  0000000140101b20 f   glfw3:win32_window.obj
 0001:00100c50       _glfwPlatformSetWindowSize 0000000140101c50 f   glfw3:win32_window.obj
 0001:00100dd0       _glfwPlatformSetWindowTitle 0000000140101dd0 f   glfw3:win32_window.obj
 0001:00100e20       _glfwPlatformShowWindow    0000000140101e20 f   glfw3:win32_window.obj
 0001:00100e40       _glfwPlatformWindowFocused 0000000140101e40 f   glfw3:win32_window.obj
 0001:00100e70       _glfwPlatformWindowHovered 0000000140101e70 f   glfw3:win32_window.obj
 0001:00100e80       _glfwPlatformWindowIconified 0000000140101e80 f   glfw3:win32_window.obj
 0001:00100e90       _glfwPlatformWindowMaximized 0000000140101e90 f   glfw3:win32_window.obj
 0001:00100ea0       _glfwPlatformWindowVisible 0000000140101ea0 f   glfw3:win32_window.obj
 0001:00100eb0       _glfwRegisterWindowClassWin32 0000000140101eb0 f   glfw3:win32_window.obj
 0001:00100fb0       _glfwUnregisterWindowClassWin32 0000000140101fb0 f   glfw3:win32_window.obj
 0001:00101a90       glfwGetWin32Window         0000000140102a90 f   glfw3:win32_window.obj
 0001:00102c60       _glfwGetVulkanResultString 0000000140103c60 f   glfw3:vulkan.obj
 0001:00102dd0       _glfwInitVulkan            0000000140103dd0 f   glfw3:vulkan.obj
 0001:00102fd0       _glfwTerminateVulkan       0000000140103fd0 f   glfw3:vulkan.obj
 0001:00102ff0       glfwCreateWindowSurface    0000000140103ff0 f   glfw3:vulkan.obj
 0001:001030b0       _glfwCreateUTF8FromWideStringWin32 00000001401040b0 f   glfw3:win32_init.obj
 0001:00103190       _glfwCreateWideStringFromUTF8Win32 0000000140104190 f   glfw3:win32_init.obj
 0001:00103260       _glfwInputErrorWin32       0000000140104260 f   glfw3:win32_init.obj
 0001:00103360       _glfwIsWindows10BuildOrGreaterWin32 0000000140104360 f   glfw3:win32_init.obj
 0001:00103410       _glfwIsWindowsVersionOrGreaterWin32 0000000140104410 f   glfw3:win32_init.obj
 0001:001034f0       _glfwPlatformInit          00000001401044f0 f   glfw3:win32_init.obj
 0001:001039a0       _glfwPlatformTerminate     00000001401049a0 f   glfw3:win32_init.obj
 0001:00103aa0       _glfwUpdateKeyNamesWin32   0000000140104aa0 f   glfw3:win32_init.obj
 0001:00104290       _glfwGetMonitorContentScaleWin32 0000000140105290 f   glfw3:win32_monitor.obj
 0001:00104360       _glfwPlatformFreeMonitor   0000000140105360 f   glfw3:win32_monitor.obj
 0001:00104370       _glfwPlatformGetMonitorContentScale 0000000140105370 f   glfw3:win32_monitor.obj
 0001:00104440       _glfwPlatformGetMonitorPos 0000000140105440 f   glfw3:win32_monitor.obj
 0001:001044e0       _glfwPlatformGetMonitorWorkarea 00000001401054e0 f   glfw3:win32_monitor.obj
 0001:00104580       _glfwPlatformGetVideoMode  0000000140105580 f   glfw3:win32_monitor.obj
 0001:00104640       _glfwPlatformGetVideoModes 0000000140105640 f   glfw3:win32_monitor.obj
 0001:00104860       _glfwPlatformSetGammaRamp  0000000140105860 f   glfw3:win32_monitor.obj
 0001:00104a40       _glfwPollMonitorsWin32     0000000140105a40 f   glfw3:win32_monitor.obj
 0001:00104d50       _glfwRestoreVideoModeWin32 0000000140105d50 f   glfw3:win32_monitor.obj
 0001:00104da0       _glfwSetVideoModeWin32     0000000140105da0 f   glfw3:win32_monitor.obj
 0001:001052e0       _glfwInitTimerWin32        00000001401062e0 f   glfw3:win32_time.obj
 0001:00105330       _glfwPlatformGetTimerFrequency 0000000140106330 f   glfw3:win32_time.obj
 0001:00105340       _glfwPlatformGetTimerValue 0000000140106340 f   glfw3:win32_time.obj
 0001:00105370       _glfwPlatformCreateMutex   0000000140106370 f   glfw3:win32_thread.obj
 0001:001053a0       _glfwPlatformCreateTls     00000001401063a0 f   glfw3:win32_thread.obj
 0001:001053f0       _glfwPlatformDestroyMutex  00000001401063f0 f   glfw3:win32_thread.obj
 0001:00105420       _glfwPlatformDestroyTls    0000000140106420 f   glfw3:win32_thread.obj
 0001:00105450       _glfwPlatformGetTls        0000000140106450 f   glfw3:win32_thread.obj
 0001:00105460       _glfwPlatformLockMutex     0000000140106460 f   glfw3:win32_thread.obj
 0001:00105470       _glfwPlatformSetTls        0000000140106470 f   glfw3:win32_thread.obj
 0001:00105480       _glfwPlatformUnlockMutex   0000000140106480 f   glfw3:win32_thread.obj
 0001:00105490       _glfwDetectJoystickConnectionWin32 0000000140106490 f   glfw3:win32_joystick.obj
 0001:00105690       _glfwDetectJoystickDisconnectionWin32 0000000140106690 f   glfw3:win32_joystick.obj
 0001:001057c0       _glfwInitJoysticksWin32    00000001401067c0 f   glfw3:win32_joystick.obj
 0001:00105a20       _glfwPlatformPollJoystick  0000000140106a20 f   glfw3:win32_joystick.obj
 0001:00105df0       _glfwPlatformUpdateGamepadGUID 0000000140106df0 f   glfw3:win32_joystick.obj
 0001:00105e60       _glfwTerminateJoysticksWin32 0000000140106e60 f   glfw3:win32_joystick.obj
 0001:001066a0       _glfwCreateContextWGL      00000001401076a0 f   glfw3:wgl_context.obj
 0001:00106b00       _glfwInitWGL               0000000140107b00 f   glfw3:wgl_context.obj
 0001:00106eb0       _glfwTerminateWGL          0000000140107eb0 f   glfw3:wgl_context.obj
 0001:001078a0       _glfwCreateContextEGL      00000001401088a0 f   glfw3:egl_context.obj
 0001:00107d70       _glfwInitEGL               0000000140108d70 f   glfw3:egl_context.obj
 0001:001082b0       _glfwTerminateEGL          00000001401092b0 f   glfw3:egl_context.obj
 0001:00108930       _glfwCreateContextOSMesa   0000000140109930 f   glfw3:osmesa_context.obj
 0001:00108b60       _glfwInitOSMesa            0000000140109b60 f   glfw3:osmesa_context.obj
 0001:00108e7f       ??0Importer@Assimp@@QEAA@XZ 0000000140109e7f f   assimp-vc141-mt:assimp-vc141-mt.dll
 0001:00108e85       ??1Importer@Assimp@@QEAA@XZ 0000000140109e85 f   assimp-vc141-mt:assimp-vc141-mt.dll
 0001:00108e8b       ?ReadFile@Importer@Assimp@@QEAAPEBUaiScene@@PEBDI@Z 0000000140109e8b f   assimp-vc141-mt:assimp-vc141-mt.dll
 0001:00108e91       ?GetErrorString@Importer@Assimp@@QEBAPEBDXZ 0000000140109e91 f   assimp-vc141-mt:assimp-vc141-mt.dll
 0001:00108e97       aiGetMaterialTextureCount  0000000140109e97 f   assimp-vc141-mt:assimp-vc141-mt.dll
 0001:00108e9d       aiGetMaterialTexture       0000000140109e9d f   assimp-vc141-mt:assimp-vc141-mt.dll
 0001:00108ea3       ?uncaught_exception@std@@YA_NXZ 0000000140109ea3 f   msvcprt:MSVCP140.dll
 0001:00108ea9       ?_Xlength_error@std@@YAXPEBD@Z 0000000140109ea9 f   msvcprt:MSVCP140.dll
 0001:00108eaf       ?_Xout_of_range@std@@YAXPEBD@Z 0000000140109eaf f   msvcprt:MSVCP140.dll
 0001:00108eb8       ?_Facet_Register@std@@YAXPEAV_Facet_base@1@@Z 0000000140109eb8 f   msvcprt:locale0_implib.obj
 0001:00108ef0       ?_Getgloballocale@locale@std@@CAPEAV_Locimp@12@XZ 0000000140109ef0 f   msvcprt:MSVCP140.dll
 0001:00108ef6       ?xsgetn@?$basic_streambuf@DU?$char_traits@D@std@@@std@@MEAA_JPEAD_J@Z 0000000140109ef6 f   msvcprt:MSVCP140.dll
 0001:00108efc       ?xsputn@?$basic_streambuf@DU?$char_traits@D@std@@@std@@MEAA_JPEBD_J@Z 0000000140109efc f   msvcprt:MSVCP140.dll
 0001:00108f02       ?_Fiopen@std@@YAPEAU_iobuf@@PEBDHH@Z 0000000140109f02 f   msvcprt:MSVCP140.dll
 0001:00108f08       ?_Lock@?$basic_streambuf@DU?$char_traits@D@std@@@std@@UEAAXXZ 0000000140109f08 f   msvcprt:MSVCP140.dll
 0001:00108f0e       ?_Unlock@?$basic_streambuf@DU?$char_traits@D@std@@@std@@UEAAXXZ 0000000140109f0e f   msvcprt:MSVCP140.dll
 0001:00108f14       ?imbue@?$basic_streambuf@DU?$char_traits@D@std@@@std@@MEAAXAEBVlocale@2@@Z 0000000140109f14 f   msvcprt:MSVCP140.dll
 0001:00108f1a       ?setbuf@?$basic_streambuf@DU?$char_traits@D@std@@@std@@MEAAPEAV12@PEAD_J@Z 0000000140109f1a f   msvcprt:MSVCP140.dll
 0001:00108f20       ?showmanyc@?$basic_streambuf@DU?$char_traits@D@std@@@std@@MEAA_JXZ 0000000140109f20 f   msvcprt:MSVCP140.dll
 0001:00108f26       ?sync@?$basic_streambuf@DU?$char_traits@D@std@@@std@@MEAAHXZ 0000000140109f26 f   msvcprt:MSVCP140.dll
 0001:00108f2c       ?uflow@?$basic_streambuf@DU?$char_traits@D@std@@@std@@MEAAHXZ 0000000140109f2c f   msvcprt:MSVCP140.dll
 0001:00108f32       ?_Execute_once@std@@YAHAEAUonce_flag@1@P6AHPEAX1PEAPEAX@Z1@Z 0000000140109f32 f   msvcprt:MSVCP140.dll
 0001:00108f38       ?_Syserror_map@std@@YAPEBDH@Z 0000000140109f38 f   msvcprt:MSVCP140.dll
 0001:00108f3e       ?_Winerror_map@std@@YAHH@Z 0000000140109f3e f   msvcprt:MSVCP140.dll
 0001:00108f44       ?_Winerror_message@std@@YAKKPEADK@Z 0000000140109f44 f   msvcprt:MSVCP140.dll
 0001:00108fc4       __std_fs_code_page         0000000140109fc4 f   msvcprt:filesystem.obj
 0001:00108fec       __std_fs_convert_narrow_to_wide 0000000140109fec f   msvcprt:filesystem.obj
 0001:00109034       __std_fs_convert_wide_to_narrow 000000014010a034 f   msvcprt:filesystem.obj
 0001:00109158       __std_fs_directory_iterator_advance 000000014010a158 f   msvcprt:filesystem.obj
 0001:00109178       __std_fs_directory_iterator_close 000000014010a178 f   msvcprt:filesystem.obj
 0001:00109198       __std_fs_directory_iterator_open 000000014010a198 f   msvcprt:filesystem.obj
 0001:00109240       __std_fs_get_stats         000000014010a240 f   msvcprt:filesystem.obj
 0001:00109650       __std_fs_open_handle       000000014010a650 f   msvcprt:filesystem.obj
 0001:001096a8       ??2@YAPEAX_K@Z             000000014010a6a8 f   MSVCRT:new_scalar.obj
 0001:001096e4       ??3@YAXPEAX_K@Z            000000014010a6e4 f   MSVCRT:delete_scalar_size.obj
 0001:001096e4       ??_V@YAXPEAX@Z             000000014010a6e4 f   MSVCRT:delete_array.obj
 0001:001096ec       __GSHandlerCheck           000000014010a6ec f   MSVCRT:gshandler.obj
 0001:0010970c       __GSHandlerCheckCommon     000000014010a70c f   MSVCRT:gshandler.obj
 0001:00109780       __security_check_cookie    000000014010a780 f   MSVCRT:amdsecgs.obj
 0001:001097c0       __chkstk                   000000014010a7c0 f   MSVCRT:chkstk.obj
 0001:001097c0       _alloca_probe              000000014010a7c0 f   MSVCRT:chkstk.obj
 0001:00109814       ??_U@YAPEAX_K@Z            000000014010a814 f   MSVCRT:new_array.obj
 0001:0010981c       __GSHandlerCheck_EH4       000000014010a81c f   MSVCRT:gshandlereh4.obj
 0001:0010989c       ??_Gtype_info@@UEAAPEAXI@Z 000000014010a89c f i MSVCRT:std_type_info_static.obj
 0001:0010989c       ??_Etype_info@@UEAAPEAXI@Z 000000014010a89c f i MSVCRT:std_type_info_static.obj
 0001:001098c8       __scrt_acquire_startup_lock 000000014010a8c8 f   MSVCRT:utility.obj
 0001:00109904       __scrt_initialize_crt      000000014010a904 f   MSVCRT:utility.obj
 0001:00109950       __scrt_initialize_onexit_tables 000000014010a950 f   MSVCRT:utility.obj
 0001:001099dc       __scrt_is_nonwritable_in_current_image 000000014010a9dc f   MSVCRT:utility.obj
 0001:00109a74       __scrt_release_startup_lock 000000014010aa74 f   MSVCRT:utility.obj
 0001:00109a98       __scrt_uninitialize_crt    000000014010aa98 f   MSVCRT:utility.obj
 0001:00109ac4       _onexit                    000000014010aac4 f   MSVCRT:utility.obj
 0001:00109b00       atexit                     000000014010ab00 f   MSVCRT:utility.obj
 0001:00109b18       ??_L@YAXPEAX_K1P6AX0@Z2@Z  000000014010ab18 f   MSVCRT:ehvecctr.obj
 0001:00109b88       ??_M@YAXPEAX_K1P6AX0@Z@Z   000000014010ab88 f   MSVCRT:ehvecdtr.obj
 0001:00109bf4       ?__ArrayUnwind@@YAXPEAX_K1P6AX0@Z@Z 000000014010abf4 f   MSVCRT:ehvecdtr.obj
 0001:00109d50       _Init_thread_abort         000000014010ad50 f   MSVCRT:thread_safe_statics.obj
 0001:00109d80       _Init_thread_footer        000000014010ad80 f   MSVCRT:thread_safe_statics.obj
 0001:00109de0       _Init_thread_header        000000014010ade0 f   MSVCRT:thread_safe_statics.obj
 0001:00109e48       _Init_thread_notify        000000014010ae48 f   MSVCRT:thread_safe_statics.obj
 0001:00109e8c       _Init_thread_wait          000000014010ae8c f   MSVCRT:thread_safe_statics.obj
 0001:00109ef0       __raise_securityfailure    000000014010aef0 f   MSVCRT:gs_report.obj
 0001:00109f24       __report_gsfailure         000000014010af24 f   MSVCRT:gs_report.obj
 0001:00109ff8       __report_rangecheckfailure 000000014010aff8 f   MSVCRT:gs_report.obj
 0001:0010a00c       __report_securityfailure   000000014010b00c f   MSVCRT:gs_report.obj
 0001:0010a3ec       mainCRTStartup             000000014010b3ec f   MSVCRT:exe_main.obj
 0001:0010a400       _guard_check_icall_nop     000000014010b400 f i MSVCRT:guard_support.obj
 0001:0010a400       _initialize_invalid_parameter_handler 000000014010b400 f i MSVCRT:invalid_parameter_handler.obj
 0001:0010a400       _initialize_denormal_control 000000014010b400 f i MSVCRT:denormal_control.obj
 0001:0010a404       __GSHandlerCheck_EH        000000014010b404 f   MSVCRT:gshandlereh.obj
 0001:0010a484       ??0bad_alloc@std@@QEAA@XZ  000000014010b484 f i MSVCRT:throw_bad_alloc.obj
 0001:0010a4a4       ?__scrt_throw_std_bad_alloc@@YAXXZ 000000014010b4a4 f   MSVCRT:throw_bad_alloc.obj
 0001:0010a4c4       ?__scrt_throw_std_bad_array_new_length@@YAXXZ 000000014010b4c4 f   MSVCRT:throw_bad_alloc.obj
 0001:0010a4e4       ??3@YAXPEAX@Z              000000014010b4e4 f   MSVCRT:delete_scalar.obj
 0001:0010a4ec       __isa_available_init       000000014010b4ec f   MSVCRT:cpu_disp.obj
 0001:0010a690       _get_startup_argv_mode     000000014010b690 f   MSVCRT:argv_mode.obj
 0001:0010a698       __scrt_is_ucrt_dll_in_use  000000014010b698 f   MSVCRT:ucrt_detection.obj
 0001:0010a6a4       __crt_debugger_hook        000000014010b6a4 f   MSVCRT:utility_desktop.obj
 0001:0010a6ac       __scrt_fastfail            000000014010b6ac f   MSVCRT:utility_desktop.obj
 0001:0010a7f8       __scrt_initialize_mta      000000014010b7f8 f   MSVCRT:utility_desktop.obj
 0001:0010a800       __scrt_exe_initialize_mta  000000014010b800 f   MSVCRT:utility_desktop.obj
 0001:0010a800       _get_startup_new_mode      000000014010b800 f   MSVCRT:new_mode.obj
 0001:0010a800       _matherr                   000000014010b800 f   MSVCRT:matherr.obj
 0001:0010a800       _get_startup_thread_locale_mode 000000014010b800 f   MSVCRT:thread_locale.obj
 0001:0010a800       __scrt_stub_for_initialize_mta 000000014010b800 f   MSVCRT:utility_desktop.obj
 0001:0010a800       __scrt_initialize_winrt    000000014010b800 f   MSVCRT:utility_desktop.obj
 0001:0010a800       _get_startup_commit_mode   000000014010b800 f   MSVCRT:commit_mode.obj
 0001:0010a804       __scrt_is_managed_app      000000014010b804 f   MSVCRT:utility_desktop.obj
 0001:0010a858       __scrt_set_unhandled_exception_filter 000000014010b858 f   MSVCRT:utility_desktop.obj
 0001:0010a868       __scrt_unhandled_exception_filter 000000014010b868 f   MSVCRT:utility_desktop.obj
 0001:0010a8c4       __security_init_cookie     000000014010b8c4 f   MSVCRT:gs_support.obj
 0001:0010a970       _get_startup_file_mode     000000014010b970 f   MSVCRT:file_mode.obj
 0001:0010a978       ?__scrt_initialize_type_info@@YAXXZ 000000014010b978 f   MSVCRT:tncleanup.obj
 0001:0010a988       __acrt_initialize          000000014010b988 f   MSVCRT:ucrt_stubs.obj
 0001:0010a988       __vcrt_uninitialize        000000014010b988 f   MSVCRT:ucrt_stubs.obj
 0001:0010a988       __scrt_stub_for_acrt_initialize 000000014010b988 f   MSVCRT:ucrt_stubs.obj
 0001:0010a988       _should_initialize_environment 000000014010b988 f   MSVCRT:env_mode.obj
 0001:0010a988       __vcrt_initialize          000000014010b988 f   MSVCRT:ucrt_stubs.obj
 0001:0010a988       __scrt_stub_for_acrt_uninitialize 000000014010b988 f   MSVCRT:ucrt_stubs.obj
 0001:0010a988       __acrt_uninitialize        000000014010b988 f   MSVCRT:ucrt_stubs.obj
 0001:0010a98c       __scrt_initialize_default_local_stdio_options 000000014010b98c f   MSVCRT:default_local_stdio_options.obj
 0001:0010a9a8       __scrt_is_user_matherr_present 000000014010b9a8 f   MSVCRT:matherr_detection.obj
 0001:0010a9b4       __scrt_get_dyn_tls_init_callback 000000014010b9b4 f   MSVCRT:dyn_tls_init.obj
 0001:0010a9bc       __scrt_get_dyn_tls_dtor_callback 000000014010b9bc f   MSVCRT:dyn_tls_dtor.obj
 0001:0010a9c4       _RTC_Initialize            000000014010b9c4 f   MSVCRT:initsect.obj
 0001:0010aa00       _RTC_Terminate             000000014010ba00 f   MSVCRT:initsect.obj
 0001:0010aa40       ImmGetContext              000000014010ba40 f   imm32:IMM32.dll
 0001:0010aa46       ImmReleaseContext          000000014010ba46 f   imm32:IMM32.dll
 0001:0010aa4c       ImmSetCompositionWindow    000000014010ba4c f   imm32:IMM32.dll
 0001:0010aa52       __CxxFrameHandler4         000000014010ba52 f   vcruntime:VCRUNTIME140_1.dll
 0001:0010aa58       __std_exception_copy       000000014010ba58 f   vcruntime:VCRUNTIME140.dll
 0001:0010aa5e       __std_exception_destroy    000000014010ba5e f   vcruntime:VCRUNTIME140.dll
 0001:0010aa64       _CxxThrowException         000000014010ba64 f   vcruntime:VCRUNTIME140.dll
 0001:0010aa6a       memmove                    000000014010ba6a f   vcruntime:VCRUNTIME140.dll
 0001:0010aa70       memcmp                     000000014010ba70 f   vcruntime:VCRUNTIME140.dll
 0001:0010aa76       strstr                     000000014010ba76 f   vcruntime:VCRUNTIME140.dll
 0001:0010aa7c       memchr                     000000014010ba7c f   vcruntime:VCRUNTIME140.dll
 0001:0010aa82       strchr                     000000014010ba82 f   vcruntime:VCRUNTIME140.dll
 0001:0010aa88       memset                     000000014010ba88 f   vcruntime:VCRUNTIME140.dll
 0001:0010aa8e       memcpy                     000000014010ba8e f   vcruntime:VCRUNTIME140.dll
 0001:0010aa94       __std_terminate            000000014010ba94 f   vcruntime:VCRUNTIME140.dll
 0001:0010aa9a       __CxxFrameHandler3         000000014010ba9a f   vcruntime:VCRUNTIME140.dll
 0001:0010aaa0       __C_specific_handler       000000014010baa0 f   vcruntime:VCRUNTIME140.dll
 0001:0010aaa6       __current_exception        000000014010baa6 f   vcruntime:VCRUNTIME140.dll
 0001:0010aaac       __current_exception_context 000000014010baac f   vcruntime:VCRUNTIME140.dll
 0001:0010aab2       exit                       000000014010bab2 f   ucrt:api-ms-win-crt-runtime-l1-1-0.dll
 0001:0010aab8       free                       000000014010bab8 f   ucrt:api-ms-win-crt-heap-l1-1-0.dll
 0001:0010aabe       malloc                     000000014010babe f   ucrt:api-ms-win-crt-heap-l1-1-0.dll
 0001:0010aac4       pow                        000000014010bac4 f   ucrt:api-ms-win-crt-math-l1-1-0.dll
 0001:0010aaca       cosf                       000000014010baca f   ucrt:api-ms-win-crt-math-l1-1-0.dll
 0001:0010aad0       sinf                       000000014010bad0 f   ucrt:api-ms-win-crt-math-l1-1-0.dll
 0001:0010aad6       sqrtf                      000000014010bad6 f   ucrt:api-ms-win-crt-math-l1-1-0.dll
 0001:0010aadc       tanf                       000000014010badc f   ucrt:api-ms-win-crt-math-l1-1-0.dll
 0001:0010aae2       terminate                  000000014010bae2 f   ucrt:api-ms-win-crt-runtime-l1-1-0.dll
 0001:0010aae8       fmodf                      000000014010bae8 f   ucrt:api-ms-win-crt-math-l1-1-0.dll
 0001:0010aaee       atan2f                     000000014010baee f   ucrt:api-ms-win-crt-math-l1-1-0.dll
 0001:0010aaf4       powf                       000000014010baf4 f   ucrt:api-ms-win-crt-math-l1-1-0.dll
 0001:0010aafa       acosf                      000000014010bafa f   ucrt:api-ms-win-crt-math-l1-1-0.dll
 0001:0010ab00       ceilf                      000000014010bb00 f   ucrt:api-ms-win-crt-math-l1-1-0.dll
 0001:0010ab06       floorf                     000000014010bb06 f   ucrt:api-ms-win-crt-math-l1-1-0.dll
 0001:0010ab0c       strcmp                     000000014010bb0c f   ucrt:api-ms-win-crt-string-l1-1-0.dll
 0001:0010ab12       _callnewh                  000000014010bb12 f   ucrt:api-ms-win-crt-heap-l1-1-0.dll
 0001:0010ab18       _configure_narrow_argv     000000014010bb18 f   ucrt:api-ms-win-crt-runtime-l1-1-0.dll
 0001:0010ab1e       _initialize_narrow_environment 000000014010bb1e f   ucrt:api-ms-win-crt-runtime-l1-1-0.dll
 0001:0010ab24       _initialize_onexit_table   000000014010bb24 f   ucrt:api-ms-win-crt-runtime-l1-1-0.dll
 0001:0010ab2a       _register_onexit_function  000000014010bb2a f   ucrt:api-ms-win-crt-runtime-l1-1-0.dll
 0001:0010ab30       _crt_atexit                000000014010bb30 f   ucrt:api-ms-win-crt-runtime-l1-1-0.dll
 0001:0010ab36       _cexit                     000000014010bb36 f   ucrt:api-ms-win-crt-runtime-l1-1-0.dll
 0001:0010ab3c       _seh_filter_exe            000000014010bb3c f   ucrt:api-ms-win-crt-runtime-l1-1-0.dll
 0001:0010ab42       _set_app_type              000000014010bb42 f   ucrt:api-ms-win-crt-runtime-l1-1-0.dll
 0001:0010ab48       __setusermatherr           000000014010bb48 f   ucrt:api-ms-win-crt-math-l1-1-0.dll
 0001:0010ab4e       _get_initial_narrow_environment 000000014010bb4e f   ucrt:api-ms-win-crt-runtime-l1-1-0.dll
 0001:0010ab54       _initterm                  000000014010bb54 f   ucrt:api-ms-win-crt-runtime-l1-1-0.dll
 0001:0010ab5a       _initterm_e                000000014010bb5a f   ucrt:api-ms-win-crt-runtime-l1-1-0.dll
 0001:0010ab60       _exit                      000000014010bb60 f   ucrt:api-ms-win-crt-runtime-l1-1-0.dll
 0001:0010ab66       _set_fmode                 000000014010bb66 f   ucrt:api-ms-win-crt-stdio-l1-1-0.dll
 0001:0010ab6c       __p___argc                 000000014010bb6c f   ucrt:api-ms-win-crt-runtime-l1-1-0.dll
 0001:0010ab72       __p___argv                 000000014010bb72 f   ucrt:api-ms-win-crt-runtime-l1-1-0.dll
 0001:0010ab78       _c_exit                    000000014010bb78 f   ucrt:api-ms-win-crt-runtime-l1-1-0.dll
 0001:0010ab7e       _register_thread_local_exe_atexit_callback 000000014010bb7e f   ucrt:api-ms-win-crt-runtime-l1-1-0.dll
 0001:0010ab84       _configthreadlocale        000000014010bb84 f   ucrt:api-ms-win-crt-locale-l1-1-0.dll
 0001:0010ab8a       _set_new_mode              000000014010bb8a f   ucrt:api-ms-win-crt-heap-l1-1-0.dll
 0001:0010ab90       __p__commode               000000014010bb90 f   ucrt:api-ms-win-crt-stdio-l1-1-0.dll
 0001:0010ab96       IsProcessorFeaturePresent  000000014010bb96 f   kernel32:KERNEL32.dll
 0001:0010abb0       _guard_dispatch_icall_nop  000000014010bbb0 f   MSVCRT:guard_dispatch.obj
 0002:00000000       __imp_CreateRectRgn        000000014010f000     gdi32:GDI32.dll
 0002:00000008       __imp_DeleteObject         000000014010f008     gdi32:GDI32.dll
 0002:00000010       __imp_CreateDCW            000000014010f010     gdi32:GDI32.dll
 0002:00000018       __imp_DeleteDC             000000014010f018     gdi32:GDI32.dll
 0002:00000020       __imp_GetDeviceCaps        000000014010f020     gdi32:GDI32.dll
 0002:00000028       __imp_SetDeviceGammaRamp   000000014010f028     gdi32:GDI32.dll
 0002:00000030       __imp_ChoosePixelFormat    000000014010f030     gdi32:GDI32.dll
 0002:00000038       __imp_DescribePixelFormat  000000014010f038     gdi32:GDI32.dll
 0002:00000040       __imp_SetPixelFormat       000000014010f040     gdi32:GDI32.dll
 0002:00000048       __imp_SwapBuffers          000000014010f048     gdi32:GDI32.dll
 0002:00000050       \177GDI32_NULL_THUNK_DATA  000000014010f050     gdi32:GDI32.dll
 0002:00000058       __imp_ImmGetContext        000000014010f058     imm32:IMM32.dll
 0002:00000060       __imp_ImmSetCompositionWindow 000000014010f060     imm32:IMM32.dll
 0002:00000068       __imp_ImmReleaseContext    000000014010f068     imm32:IMM32.dll
 0002:00000070       \177IMM32_NULL_THUNK_DATA  000000014010f070     imm32:IMM32.dll
 0002:00000078       __imp_GetModuleHandleW     000000014010f078     kernel32:KERNEL32.dll
 0002:00000080       __imp_SetThreadExecutionState 000000014010f080     kernel32:KERNEL32.dll
 0002:00000088       __imp_LoadLibraryA         000000014010f088     kernel32:KERNEL32.dll
 0002:00000090       __imp_VerSetConditionMask  000000014010f090     kernel32:KERNEL32.dll
 0002:00000098       __imp_GetLastError         000000014010f098     kernel32:KERNEL32.dll
 0002:000000a0       __imp_FormatMessageW       000000014010f0a0     kernel32:KERNEL32.dll
 0002:000000a8       __imp_InitializeCriticalSection 000000014010f0a8     kernel32:KERNEL32.dll
 0002:000000b0       __imp_EnterCriticalSection 000000014010f0b0     kernel32:KERNEL32.dll
 0002:000000b8       __imp_LeaveCriticalSection 000000014010f0b8     kernel32:KERNEL32.dll
 0002:000000c0       __imp_DeleteCriticalSection 000000014010f0c0     kernel32:KERNEL32.dll
 0002:000000c8       __imp_TlsAlloc             000000014010f0c8     kernel32:KERNEL32.dll
 0002:000000d0       __imp_TlsGetValue          000000014010f0d0     kernel32:KERNEL32.dll
 0002:000000d8       __imp_TlsSetValue          000000014010f0d8     kernel32:KERNEL32.dll
 0002:000000e0       __imp_TlsFree              000000014010f0e0     kernel32:KERNEL32.dll
 0002:000000e8       __imp_GlobalUnlock         000000014010f0e8     kernel32:KERNEL32.dll
 0002:000000f0       __imp_TerminateProcess     000000014010f0f0     kernel32:KERNEL32.dll
 0002:000000f8       __imp_GetCurrentProcess    000000014010f0f8     kernel32:KERNEL32.dll
 0002:00000100       __imp_SetUnhandledExceptionFilter 000000014010f100     kernel32:KERNEL32.dll
 0002:00000108       __imp_UnhandledExceptionFilter 000000014010f108     kernel32:KERNEL32.dll
 0002:00000110       __imp_RtlVirtualUnwind     000000014010f110     kernel32:KERNEL32.dll
 0002:00000118       __imp_RtlLookupFunctionEntry 000000014010f118     kernel32:KERNEL32.dll
 0002:00000120       __imp_RtlCaptureContext    000000014010f120     kernel32:KERNEL32.dll
 0002:00000128       __imp_CreateEventW         000000014010f128     kernel32:KERNEL32.dll
 0002:00000130       __imp_WaitForSingleObjectEx 000000014010f130     kernel32:KERNEL32.dll
 0002:00000138       __imp_ResetEvent           000000014010f138     kernel32:KERNEL32.dll
 0002:00000140       __imp_SetEvent             000000014010f140     kernel32:KERNEL32.dll
 0002:00000148       __imp_GlobalAlloc          000000014010f148     kernel32:KERNEL32.dll
 0002:00000150       __imp_MultiByteToWideChar  000000014010f150     kernel32:KERNEL32.dll
 0002:00000158       __imp_SetLastError         000000014010f158     kernel32:KERNEL32.dll
 0002:00000160       __imp_CloseHandle          000000014010f160     kernel32:KERNEL32.dll
 0002:00000168       __imp_AreFileApisANSI      000000014010f168     kernel32:KERNEL32.dll
 0002:00000170       __imp_GetFileInformationByHandle 000000014010f170     kernel32:KERNEL32.dll
 0002:00000178       __imp_GetFileAttributesExW 000000014010f178     kernel32:KERNEL32.dll
 0002:00000180       __imp_FindNextFileW        000000014010f180     kernel32:KERNEL32.dll
 0002:00000188       __imp_FindFirstFileExW     000000014010f188     kernel32:KERNEL32.dll
 0002:00000190       __imp_FindClose            000000014010f190     kernel32:KERNEL32.dll
 0002:00000198       __imp_CreateFileW          000000014010f198     kernel32:KERNEL32.dll
 0002:000001a0       __imp_WideCharToMultiByte  000000014010f1a0     kernel32:KERNEL32.dll
 0002:000001a8       __imp_GlobalFree           000000014010f1a8     kernel32:KERNEL32.dll
 0002:000001b0       __imp_GlobalLock           000000014010f1b0     kernel32:KERNEL32.dll
 0002:000001b8       __imp_LoadLibraryW         000000014010f1b8     kernel32:KERNEL32.dll
 0002:000001c0       __imp_GetProcAddress       000000014010f1c0     kernel32:KERNEL32.dll
 0002:000001c8       __imp_FreeLibrary          000000014010f1c8     kernel32:KERNEL32.dll
 0002:000001d0       __imp_QueryPerformanceFrequency 000000014010f1d0     kernel32:KERNEL32.dll
 0002:000001d8       __imp_QueryPerformanceCounter 000000014010f1d8     kernel32:KERNEL32.dll
 0002:000001e0       __imp_IsProcessorFeaturePresent 000000014010f1e0     kernel32:KERNEL32.dll
 0002:000001e8       __imp_IsDebuggerPresent    000000014010f1e8     kernel32:KERNEL32.dll
 0002:000001f0       __imp_GetCurrentProcessId  000000014010f1f0     kernel32:KERNEL32.dll
 0002:000001f8       __imp_GetCurrentThreadId   000000014010f1f8     kernel32:KERNEL32.dll
 0002:00000200       __imp_GetSystemTimeAsFileTime 000000014010f200     kernel32:KERNEL32.dll
 0002:00000208       __imp_InitializeCriticalSectionAndSpinCount 000000014010f208     kernel32:KERNEL32.dll
 0002:00000210       __imp_InitializeSListHead  000000014010f210     kernel32:KERNEL32.dll
 0002:00000218       \177KERNEL32_NULL_THUNK_DATA 000000014010f218     kernel32:KERNEL32.dll
 0002:00000220       __imp_?showmanyc@?$basic_streambuf@DU?$char_traits@D@std@@@std@@MEAA_JXZ 000000014010f220     msvcprt:MSVCP140.dll
 0002:00000228       __imp_?setbuf@?$basic_streambuf@DU?$char_traits@D@std@@@std@@MEAAPEAV12@PEAD_J@Z 000000014010f228     msvcprt:MSVCP140.dll
 0002:00000230       __imp_?imbue@?$basic_streambuf@DU?$char_traits@D@std@@@std@@MEAAXAEBVlocale@2@@Z 000000014010f230     msvcprt:MSVCP140.dll
 0002:00000238       __imp_?_Unlock@?$basic_streambuf@DU?$char_traits@D@std@@@std@@UEAAXXZ 000000014010f238     msvcprt:MSVCP140.dll
 0002:00000240       __imp_?_Lock@?$basic_streambuf@DU?$char_traits@D@std@@@std@@UEAAXXZ 000000014010f240     msvcprt:MSVCP140.dll
 0002:00000248       __imp_?_Fiopen@std@@YAPEAU_iobuf@@PEBDHH@Z 000000014010f248     msvcprt:MSVCP140.dll
 0002:00000250       __imp_??1?$basic_iostream@DU?$char_traits@D@std@@@std@@UEAA@XZ 000000014010f250     msvcprt:MSVCP140.dll
 0002:00000258       __imp_??0?$basic_iostream@DU?$char_traits@D@std@@@std@@QEAA@PEAV?$basic_streambuf@DU?$char_traits@D@std@@@1@@Z 000000014010f258     msvcprt:MSVCP140.dll
 0002:00000260       __imp_??1?$basic_istream@DU?$char_traits@D@std@@@std@@UEAA@XZ 000000014010f260     msvcprt:MSVCP140.dll
 0002:00000268       __imp_??0?$basic_istream@DU?$char_traits@D@std@@@std@@QEAA@PEAV?$basic_streambuf@DU?$char_traits@D@std@@@1@_N@Z 000000014010f268     msvcprt:MSVCP140.dll
 0002:00000270       __imp_??6?$basic_ostream@DU?$char_traits@D@std@@@std@@QEAAAEAV01@PEAV?$basic_streambuf@DU?$char_traits@D@std@@@1@@Z 000000014010f270     msvcprt:MSVCP140.dll
 0002:00000278       __imp_??0?$basic_ios@DU?$char_traits@D@std@@@std@@IEAA@XZ 000000014010f278     msvcprt:MSVCP140.dll
 0002:00000280       __imp_?clear@?$basic_ios@DU?$char_traits@D@std@@@std@@QEAAXH_N@Z 000000014010f280     msvcprt:MSVCP140.dll
 0002:00000288       __imp_??1?$basic_ios@DU?$char_traits@D@std@@@std@@UEAA@XZ 000000014010f288     msvcprt:MSVCP140.dll
 0002:00000290       __imp_?xsputn@?$basic_streambuf@DU?$char_traits@D@std@@@std@@MEAA_JPEBD_J@Z 000000014010f290     msvcprt:MSVCP140.dll
 0002:00000298       __imp_?xsgetn@?$basic_streambuf@DU?$char_traits@D@std@@@std@@MEAA_JPEAD_J@Z 000000014010f298     msvcprt:MSVCP140.dll
 0002:000002a0       __imp_?_Init@?$basic_streambuf@DU?$char_traits@D@std@@@std@@IEAAXPEAPEAD0PEAH001@Z 000000014010f2a0     msvcprt:MSVCP140.dll
 0002:000002a8       __imp_?sync@?$basic_streambuf@DU?$char_traits@D@std@@@std@@MEAAHXZ 000000014010f2a8     msvcprt:MSVCP140.dll
 0002:000002b0       __imp_?_Pnavail@?$basic_streambuf@DU?$char_traits@D@std@@@std@@IEBA_JXZ 000000014010f2b0     msvcprt:MSVCP140.dll
 0002:000002b8       __imp_?_Pninc@?$basic_streambuf@DU?$char_traits@D@std@@@std@@IEAAPEADXZ 000000014010f2b8     msvcprt:MSVCP140.dll
 0002:000002c0       __imp_?setp@?$basic_streambuf@DU?$char_traits@D@std@@@std@@IEAAXPEAD00@Z 000000014010f2c0     msvcprt:MSVCP140.dll
 0002:000002c8       __imp_?setp@?$basic_streambuf@DU?$char_traits@D@std@@@std@@IEAAXPEAD0@Z 000000014010f2c8     msvcprt:MSVCP140.dll
 0002:000002d0       __imp_?pbump@?$basic_streambuf@DU?$char_traits@D@std@@@std@@IEAAXH@Z 000000014010f2d0     msvcprt:MSVCP140.dll
 0002:000002d8       __imp_?_Gnavail@?$basic_streambuf@DU?$char_traits@D@std@@@std@@IEBA_JXZ 000000014010f2d8     msvcprt:MSVCP140.dll
 0002:000002e0       __imp_?id@?$codecvt@DDU_Mbstatet@@@std@@2V0locale@2@A 000000014010f2e0     msvcprt:MSVCP140.dll
 0002:000002e8       __imp_?_Execute_once@std@@YAHAEAUonce_flag@1@P6AHPEAX1PEAPEAX@Z1@Z 000000014010f2e8     msvcprt:MSVCP140.dll
 0002:000002f0       __imp_?_Syserror_map@std@@YAPEBDH@Z 000000014010f2f0     msvcprt:MSVCP140.dll
 0002:000002f8       __imp_?_Winerror_map@std@@YAHH@Z 000000014010f2f8     msvcprt:MSVCP140.dll
 0002:00000300       __imp_?_Winerror_message@std@@YAKKPEADK@Z 000000014010f300     msvcprt:MSVCP140.dll
 0002:00000308       __imp_?_Init@?$basic_streambuf@DU?$char_traits@D@std@@@std@@IEAAXXZ 000000014010f308     msvcprt:MSVCP140.dll
 0002:00000310       __imp_?uflow@?$basic_streambuf@DU?$char_traits@D@std@@@std@@MEAAHXZ 000000014010f310     msvcprt:MSVCP140.dll
 0002:00000318       __imp_?_Gninc@?$basic_streambuf@DU?$char_traits@D@std@@@std@@IEAAPEADXZ 000000014010f318     msvcprt:MSVCP140.dll
 0002:00000320       __imp_?_Gndec@?$basic_streambuf@DU?$char_traits@D@std@@@std@@IEAAPEADXZ 000000014010f320     msvcprt:MSVCP140.dll
 0002:00000328       __imp_?epptr@?$basic_streambuf@DU?$char_traits@D@std@@@std@@IEBAPEADXZ 000000014010f328     msvcprt:MSVCP140.dll
 0002:00000330       __imp_?setg@?$basic_streambuf@DU?$char_traits@D@std@@@std@@IEAAXPEAD00@Z 000000014010f330     msvcprt:MSVCP140.dll
 0002:00000338       __imp_?gbump@?$basic_streambuf@DU?$char_traits@D@std@@@std@@IEAAXH@Z 000000014010f338     msvcprt:MSVCP140.dll
 0002:00000340       __imp_?uncaught_exception@std@@YA_NXZ 000000014010f340     msvcprt:MSVCP140.dll
 0002:00000348       __imp_?good@ios_base@std@@QEBA_NXZ 000000014010f348     msvcprt:MSVCP140.dll
 0002:00000350       __imp_?flags@ios_base@std@@QEBAHXZ 000000014010f350     msvcprt:MSVCP140.dll
 0002:00000358       __imp_?width@ios_base@std@@QEBA_JXZ 000000014010f358     msvcprt:MSVCP140.dll
 0002:00000360       __imp_?width@ios_base@std@@QEAA_J_J@Z 000000014010f360     msvcprt:MSVCP140.dll
 0002:00000368       __imp_?sputc@?$basic_streambuf@DU?$char_traits@D@std@@@std@@QEAAHD@Z 000000014010f368     msvcprt:MSVCP140.dll
 0002:00000370       __imp_?sputn@?$basic_streambuf@DU?$char_traits@D@std@@@std@@QEAA_JPEBD_J@Z 000000014010f370     msvcprt:MSVCP140.dll
 0002:00000378       __imp_?setstate@?$basic_ios@DU?$char_traits@D@std@@@std@@QEAAXH_N@Z 000000014010f378     msvcprt:MSVCP140.dll
 0002:00000380       __imp_?tie@?$basic_ios@DU?$char_traits@D@std@@@std@@QEBAPEAV?$basic_ostream@DU?$char_traits@D@std@@@2@XZ 000000014010f380     msvcprt:MSVCP140.dll
 0002:00000388       __imp_?rdbuf@?$basic_ios@DU?$char_traits@D@std@@@std@@QEBAPEAV?$basic_streambuf@DU?$char_traits@D@std@@@2@XZ 000000014010f388     msvcprt:MSVCP140.dll
 0002:00000390       __imp_?fill@?$basic_ios@DU?$char_traits@D@std@@@std@@QEBADXZ 000000014010f390     msvcprt:MSVCP140.dll
 0002:00000398       __imp_?_Osfx@?$basic_ostream@DU?$char_traits@D@std@@@std@@QEAAXXZ 000000014010f398     msvcprt:MSVCP140.dll
 0002:000003a0       __imp_?flush@?$basic_ostream@DU?$char_traits@D@std@@@std@@QEAAAEAV12@XZ 000000014010f3a0     msvcprt:MSVCP140.dll
 0002:000003a8       __imp_?cout@std@@3V?$basic_ostream@DU?$char_traits@D@std@@@1@A 000000014010f3a8     msvcprt:MSVCP140.dll
 0002:000003b0       __imp_?_Xlength_error@std@@YAXPEBD@Z 000000014010f3b0     msvcprt:MSVCP140.dll
 0002:000003b8       __imp_?_Xout_of_range@std@@YAXPEBD@Z 000000014010f3b8     msvcprt:MSVCP140.dll
 0002:000003c0       __imp_??0_Lockit@std@@QEAA@H@Z 000000014010f3c0     msvcprt:MSVCP140.dll
 0002:000003c8       __imp_??1_Lockit@std@@QEAA@XZ 000000014010f3c8     msvcprt:MSVCP140.dll
 0002:000003d0       __imp_??Bid@locale@std@@QEAA_KXZ 000000014010f3d0     msvcprt:MSVCP140.dll
 0002:000003d8       __imp_?_Getgloballocale@locale@std@@CAPEAV_Locimp@12@XZ 000000014010f3d8     msvcprt:MSVCP140.dll
 0002:000003e0       __imp_?always_noconv@codecvt_base@std@@QEBA_NXZ 000000014010f3e0     msvcprt:MSVCP140.dll
 0002:000003e8       __imp_?in@?$codecvt@DDU_Mbstatet@@@std@@QEBAHAEAU_Mbstatet@@PEBD1AEAPEBDPEAD3AEAPEAD@Z 000000014010f3e8     msvcprt:MSVCP140.dll
 0002:000003f0       __imp_?out@?$codecvt@DDU_Mbstatet@@@std@@QEBAHAEAU_Mbstatet@@PEBD1AEAPEBDPEAD3AEAPEAD@Z 000000014010f3f0     msvcprt:MSVCP140.dll
 0002:000003f8       __imp_?unshift@?$codecvt@DDU_Mbstatet@@@std@@QEBAHAEAU_Mbstatet@@PEAD1AEAPEAD@Z 000000014010f3f8     msvcprt:MSVCP140.dll
 0002:00000400       __imp_?_Getcat@?$codecvt@DDU_Mbstatet@@@std@@SA_KPEAPEBVfacet@locale@2@PEBV42@@Z 000000014010f400     msvcprt:MSVCP140.dll
 0002:00000408       __imp_?exceptions@ios_base@std@@QEAAXH@Z 000000014010f408     msvcprt:MSVCP140.dll
 0002:00000410       __imp_??0?$basic_streambuf@DU?$char_traits@D@std@@@std@@IEAA@XZ 000000014010f410     msvcprt:MSVCP140.dll
 0002:00000418       __imp_??1?$basic_streambuf@DU?$char_traits@D@std@@@std@@UEAA@XZ 000000014010f418     msvcprt:MSVCP140.dll
 0002:00000420       __imp_?getloc@?$basic_streambuf@DU?$char_traits@D@std@@@std@@QEBA?AVlocale@2@XZ 000000014010f420     msvcprt:MSVCP140.dll
 0002:00000428       __imp_?eback@?$basic_streambuf@DU?$char_traits@D@std@@@std@@IEBAPEADXZ 000000014010f428     msvcprt:MSVCP140.dll
 0002:00000430       __imp_?gptr@?$basic_streambuf@DU?$char_traits@D@std@@@std@@IEBAPEADXZ 000000014010f430     msvcprt:MSVCP140.dll
 0002:00000438       __imp_?pbase@?$basic_streambuf@DU?$char_traits@D@std@@@std@@IEBAPEADXZ 000000014010f438     msvcprt:MSVCP140.dll
 0002:00000440       __imp_?pptr@?$basic_streambuf@DU?$char_traits@D@std@@@std@@IEBAPEADXZ 000000014010f440     msvcprt:MSVCP140.dll
 0002:00000448       __imp_?egptr@?$basic_streambuf@DU?$char_traits@D@std@@@std@@IEBAPEADXZ 000000014010f448     msvcprt:MSVCP140.dll
 0002:00000450       \177MSVCP140_NULL_THUNK_DATA 000000014010f450     msvcprt:MSVCP140.dll
 0002:00000458       __imp_DragFinish           000000014010f458     shell32:SHELL32.dll
 0002:00000460       __imp_DragQueryPoint       000000014010f460     shell32:SHELL32.dll
 0002:00000468       __imp_DragQueryFileW       000000014010f468     shell32:SHELL32.dll
 0002:00000470       __imp_DragAcceptFiles      000000014010f470     shell32:SHELL32.dll
 0002:00000478       \177SHELL32_NULL_THUNK_DATA 000000014010f478     shell32:SHELL32.dll
 0002:00000480       __imp_GetRawInputDeviceList 000000014010f480     user32:USER32.dll
 0002:00000488       __imp_GetRawInputDeviceInfoA 000000014010f488     user32:USER32.dll
 0002:00000490       __imp_EnumDisplayMonitors  000000014010f490     user32:USER32.dll
 0002:00000498       __imp_EnumDisplayDevicesW  000000014010f498     user32:USER32.dll
 0002:000004a0       __imp_EnumDisplaySettingsExW 000000014010f4a0     user32:USER32.dll
 0002:000004a8       __imp_EnumDisplaySettingsW 000000014010f4a8     user32:USER32.dll
 0002:000004b0       __imp_ChangeDisplaySettingsExW 000000014010f4b0     user32:USER32.dll
 0002:000004b8       __imp_MapVirtualKeyW       000000014010f4b8     user32:USER32.dll
 0002:000004c0       __imp_ToUnicode            000000014010f4c0     user32:USER32.dll
 0002:000004c8       __imp_UnregisterDeviceNotification 000000014010f4c8     user32:USER32.dll
 0002:000004d0       __imp_RegisterDeviceNotificationW 000000014010f4d0     user32:USER32.dll
 0002:000004d8       __imp_RegisterRawInputDevices 000000014010f4d8     user32:USER32.dll
 0002:000004e0       __imp_GetRawInputData      000000014010f4e0     user32:USER32.dll
 0002:000004e8       __imp_GetMonitorInfoW      000000014010f4e8     user32:USER32.dll
 0002:000004f0       __imp_MonitorFromWindow    000000014010f4f0     user32:USER32.dll
 0002:000004f8       __imp_SystemParametersInfoW 000000014010f4f8     user32:USER32.dll
 0002:00000500       __imp_GetDC                000000014010f500     user32:USER32.dll
 0002:00000508       __imp_LoadImageW           000000014010f508     user32:USER32.dll
 0002:00000510       __imp_DestroyIcon          000000014010f510     user32:USER32.dll
 0002:00000518       __imp_LoadCursorW          000000014010f518     user32:USER32.dll
 0002:00000520       __imp_SetWindowLongW       000000014010f520     user32:USER32.dll
 0002:00000528       __imp_GetWindowLongW       000000014010f528     user32:USER32.dll
 0002:00000530       __imp_PtInRect             000000014010f530     user32:USER32.dll
 0002:00000538       __imp_SetRect              000000014010f538     user32:USER32.dll
 0002:00000540       __imp_ClipCursor           000000014010f540     user32:USER32.dll
 0002:00000548       __imp_WindowFromPoint      000000014010f548     user32:USER32.dll
 0002:00000550       __imp_ScreenToClient       000000014010f550     user32:USER32.dll
 0002:00000558       __imp_ClientToScreen       000000014010f558     user32:USER32.dll
 0002:00000560       __imp_GetCursorPos         000000014010f560     user32:USER32.dll
 0002:00000568       __imp_SetCursor            000000014010f568     user32:USER32.dll
 0002:00000570       __imp_SetCursorPos         000000014010f570     user32:USER32.dll
 0002:00000578       __imp_AdjustWindowRectEx   000000014010f578     user32:USER32.dll
 0002:00000580       __imp_GetClientRect        000000014010f580     user32:USER32.dll
 0002:00000588       __imp_SetWindowTextW       000000014010f588     user32:USER32.dll
 0002:00000590       __imp_RemovePropW          000000014010f590     user32:USER32.dll
 0002:00000598       __imp_GetPropW             000000014010f598     user32:USER32.dll
 0002:000005a0       __imp_SetPropW             000000014010f5a0     user32:USER32.dll
 0002:000005a8       __imp_RedrawWindow         000000014010f5a8     user32:USER32.dll
 0002:000005b0       __imp_ReleaseDC            000000014010f5b0     user32:USER32.dll
 0002:000005b8       __imp_SetForegroundWindow  000000014010f5b8     user32:USER32.dll
 0002:000005c0       __imp_ReleaseCapture       000000014010f5c0     user32:USER32.dll
 0002:000005c8       __imp_SetCapture           000000014010f5c8     user32:USER32.dll
 0002:000005d0       __imp_GetAsyncKeyState     000000014010f5d0     user32:USER32.dll
 0002:000005d8       __imp_GetKeyState          000000014010f5d8     user32:USER32.dll
 0002:000005e0       __imp_GetActiveWindow      000000014010f5e0     user32:USER32.dll
 0002:000005e8       __imp_SetFocus             000000014010f5e8     user32:USER32.dll
 0002:000005f0       __imp_IsZoomed             000000014010f5f0     user32:USER32.dll
 0002:000005f8       __imp_BringWindowToTop     000000014010f5f8     user32:USER32.dll
 0002:00000600       __imp_IsIconic             000000014010f600     user32:USER32.dll
 0002:00000608       __imp_IsWindowVisible      000000014010f608     user32:USER32.dll
 0002:00000610       __imp_SetWindowPos         000000014010f610     user32:USER32.dll
 0002:00000618       __imp_SetLayeredWindowAttributes 000000014010f618     user32:USER32.dll
 0002:00000620       __imp_ShowWindow           000000014010f620     user32:USER32.dll
 0002:00000628       __imp_OpenClipboard        000000014010f628     user32:USER32.dll
 0002:00000630       __imp_CloseClipboard       000000014010f630     user32:USER32.dll
 0002:00000638       __imp_SetClipboardData     000000014010f638     user32:USER32.dll
 0002:00000640       __imp_GetClipboardData     000000014010f640     user32:USER32.dll
 0002:00000648       __imp_DestroyWindow        000000014010f648     user32:USER32.dll
 0002:00000650       __imp_CreateWindowExW      000000014010f650     user32:USER32.dll
 0002:00000658       __imp_EmptyClipboard       000000014010f658     user32:USER32.dll
 0002:00000660       __imp_GetWindowLongA       000000014010f660     user32:USER32.dll
 0002:00000668       __imp_SetWindowLongA       000000014010f668     user32:USER32.dll
 0002:00000670       __imp_TrackMouseEvent      000000014010f670     user32:USER32.dll
 0002:00000678       __imp_TranslateMessage     000000014010f678     user32:USER32.dll
 0002:00000680       __imp_DispatchMessageW     000000014010f680     user32:USER32.dll
 0002:00000688       __imp_PeekMessageW         000000014010f688     user32:USER32.dll
 0002:00000690       __imp_RegisterClassExW     000000014010f690     user32:USER32.dll
 0002:00000698       __imp_UnregisterClassW     000000014010f698     user32:USER32.dll
 0002:000006a0       __imp_DefWindowProcW       000000014010f6a0     user32:USER32.dll
 0002:000006a8       __imp_GetMessageTime       000000014010f6a8     user32:USER32.dll
 0002:000006b0       \177USER32_NULL_THUNK_DATA 000000014010f6b0     user32:USER32.dll
 0002:000006b8       __imp_memchr               000000014010f6b8     vcruntime:VCRUNTIME140.dll
 0002:000006c0       __imp_memcpy               000000014010f6c0     vcruntime:VCRUNTIME140.dll
 0002:000006c8       __imp_strchr               000000014010f6c8     vcruntime:VCRUNTIME140.dll
 0002:000006d0       __imp_strstr               000000014010f6d0     vcruntime:VCRUNTIME140.dll
 0002:000006d8       __imp_memcmp               000000014010f6d8     vcruntime:VCRUNTIME140.dll
 0002:000006e0       __imp___std_terminate      000000014010f6e0     vcruntime:VCRUNTIME140.dll
 0002:000006e8       __imp___CxxFrameHandler3   000000014010f6e8     vcruntime:VCRUNTIME140.dll
 0002:000006f0       __imp_memmove              000000014010f6f0     vcruntime:VCRUNTIME140.dll
 0002:000006f8       __imp__CxxThrowException   000000014010f6f8     vcruntime:VCRUNTIME140.dll
 0002:00000700       __imp_memset               000000014010f700     vcruntime:VCRUNTIME140.dll
 0002:00000708       __imp___std_exception_destroy 000000014010f708     vcruntime:VCRUNTIME140.dll
 0002:00000710       __imp___C_specific_handler 000000014010f710     vcruntime:VCRUNTIME140.dll
 0002:00000718       __imp___std_exception_copy 000000014010f718     vcruntime:VCRUNTIME140.dll
 0002:00000720       __imp___current_exception_context 000000014010f720     vcruntime:VCRUNTIME140.dll
 0002:00000728       __imp___current_exception  000000014010f728     vcruntime:VCRUNTIME140.dll
 0002:00000730       \177VCRUNTIME140_NULL_THUNK_DATA 000000014010f730     vcruntime:VCRUNTIME140.dll
 0002:00000738       __imp___CxxFrameHandler4   000000014010f738     vcruntime:VCRUNTIME140_1.dll
 0002:00000740       \177VCRUNTIME140_1_NULL_THUNK_DATA 000000014010f740     vcruntime:VCRUNTIME140_1.dll
 0002:00000748       __imp_strtol               000000014010f748     ucrt:api-ms-win-crt-convert-l1-1-0.dll
 0002:00000750       __imp_atof                 000000014010f750     ucrt:api-ms-win-crt-convert-l1-1-0.dll
 0002:00000758       __imp_strtoul              000000014010f758     ucrt:api-ms-win-crt-convert-l1-1-0.dll
 0002:00000760       \177api-ms-win-crt-convert-l1-1-0_NULL_THUNK_DATA 000000014010f760     ucrt:api-ms-win-crt-convert-l1-1-0.dll
 0002:00000768       __imp__unlock_file         000000014010f768     ucrt:api-ms-win-crt-filesystem-l1-1-0.dll
 0002:00000770       __imp__lock_file           000000014010f770     ucrt:api-ms-win-crt-filesystem-l1-1-0.dll
 0002:00000778       \177api-ms-win-crt-filesystem-l1-1-0_NULL_THUNK_DATA 000000014010f778     ucrt:api-ms-win-crt-filesystem-l1-1-0.dll
 0002:00000780       __imp__callnewh            000000014010f780     ucrt:api-ms-win-crt-heap-l1-1-0.dll
 0002:00000788       __imp_malloc               000000014010f788     ucrt:api-ms-win-crt-heap-l1-1-0.dll
 0002:00000790       __imp_realloc              000000014010f790     ucrt:api-ms-win-crt-heap-l1-1-0.dll
 0002:00000798       __imp_free                 000000014010f798     ucrt:api-ms-win-crt-heap-l1-1-0.dll
 0002:000007a0       __imp__set_new_mode        000000014010f7a0     ucrt:api-ms-win-crt-heap-l1-1-0.dll
 0002:000007a8       __imp_calloc               000000014010f7a8     ucrt:api-ms-win-crt-heap-l1-1-0.dll
 0002:000007b0       \177api-ms-win-crt-heap-l1-1-0_NULL_THUNK_DATA 000000014010f7b0     ucrt:api-ms-win-crt-heap-l1-1-0.dll
 0002:000007b8       __imp____lc_codepage_func  000000014010f7b8     ucrt:api-ms-win-crt-locale-l1-1-0.dll
 0002:000007c0       __imp__configthreadlocale  000000014010f7c0     ucrt:api-ms-win-crt-locale-l1-1-0.dll
 0002:000007c8       \177api-ms-win-crt-locale-l1-1-0_NULL_THUNK_DATA 000000014010f7c8     ucrt:api-ms-win-crt-locale-l1-1-0.dll
 0002:000007d0       __imp_atan2f               000000014010f7d0     ucrt:api-ms-win-crt-math-l1-1-0.dll
 0002:000007d8       __imp_fmodf                000000014010f7d8     ucrt:api-ms-win-crt-math-l1-1-0.dll
 0002:000007e0       __imp_ceilf                000000014010f7e0     ucrt:api-ms-win-crt-math-l1-1-0.dll
 0002:000007e8       __imp_sqrtf                000000014010f7e8     ucrt:api-ms-win-crt-math-l1-1-0.dll
 0002:000007f0       __imp_sinf                 000000014010f7f0     ucrt:api-ms-win-crt-math-l1-1-0.dll
 0002:000007f8       __imp_powf                 000000014010f7f8     ucrt:api-ms-win-crt-math-l1-1-0.dll
 0002:00000800       __imp_acosf                000000014010f800     ucrt:api-ms-win-crt-math-l1-1-0.dll
 0002:00000808       __imp_cosf                 000000014010f808     ucrt:api-ms-win-crt-math-l1-1-0.dll
 0002:00000810       __imp_ldexp                000000014010f810     ucrt:api-ms-win-crt-math-l1-1-0.dll
 0002:00000818       __imp_tanf                 000000014010f818     ucrt:api-ms-win-crt-math-l1-1-0.dll
 0002:00000820       __imp___setusermatherr     000000014010f820     ucrt:api-ms-win-crt-math-l1-1-0.dll
 0002:00000828       __imp_floorf               000000014010f828     ucrt:api-ms-win-crt-math-l1-1-0.dll
 0002:00000830       __imp_pow                  000000014010f830     ucrt:api-ms-win-crt-math-l1-1-0.dll
 0002:00000838       \177api-ms-win-crt-math-l1-1-0_NULL_THUNK_DATA 000000014010f838     ucrt:api-ms-win-crt-math-l1-1-0.dll
 0002:00000840       __imp__exit                000000014010f840     ucrt:api-ms-win-crt-runtime-l1-1-0.dll
 0002:00000848       __imp__invalid_parameter_noinfo_noreturn 000000014010f848     ucrt:api-ms-win-crt-runtime-l1-1-0.dll
 0002:00000850       __imp___p___argc           000000014010f850     ucrt:api-ms-win-crt-runtime-l1-1-0.dll
 0002:00000858       __imp___p___argv           000000014010f858     ucrt:api-ms-win-crt-runtime-l1-1-0.dll
 0002:00000860       __imp__c_exit              000000014010f860     ucrt:api-ms-win-crt-runtime-l1-1-0.dll
 0002:00000868       __imp__register_thread_local_exe_atexit_callback 000000014010f868     ucrt:api-ms-win-crt-runtime-l1-1-0.dll
 0002:00000870       __imp__initterm            000000014010f870     ucrt:api-ms-win-crt-runtime-l1-1-0.dll
 0002:00000878       __imp__get_initial_narrow_environment 000000014010f878     ucrt:api-ms-win-crt-runtime-l1-1-0.dll
 0002:00000880       __imp_terminate            000000014010f880     ucrt:api-ms-win-crt-runtime-l1-1-0.dll
 0002:00000888       __imp__configure_narrow_argv 000000014010f888     ucrt:api-ms-win-crt-runtime-l1-1-0.dll
 0002:00000890       __imp__set_app_type        000000014010f890     ucrt:api-ms-win-crt-runtime-l1-1-0.dll
 0002:00000898       __imp_exit                 000000014010f898     ucrt:api-ms-win-crt-runtime-l1-1-0.dll
 0002:000008a0       __imp__seh_filter_exe      000000014010f8a0     ucrt:api-ms-win-crt-runtime-l1-1-0.dll
 0002:000008a8       __imp__initterm_e          000000014010f8a8     ucrt:api-ms-win-crt-runtime-l1-1-0.dll
 0002:000008b0       __imp__cexit               000000014010f8b0     ucrt:api-ms-win-crt-runtime-l1-1-0.dll
 0002:000008b8       __imp__initialize_narrow_environment 000000014010f8b8     ucrt:api-ms-win-crt-runtime-l1-1-0.dll
 0002:000008c0       __imp__crt_atexit          000000014010f8c0     ucrt:api-ms-win-crt-runtime-l1-1-0.dll
 0002:000008c8       __imp__register_onexit_function 000000014010f8c8     ucrt:api-ms-win-crt-runtime-l1-1-0.dll
 0002:000008d0       __imp__initialize_onexit_table 000000014010f8d0     ucrt:api-ms-win-crt-runtime-l1-1-0.dll
 0002:000008d8       __imp__wassert             000000014010f8d8     ucrt:api-ms-win-crt-runtime-l1-1-0.dll
 0002:000008e0       \177api-ms-win-crt-runtime-l1-1-0_NULL_THUNK_DATA 000000014010f8e0     ucrt:api-ms-win-crt-runtime-l1-1-0.dll
 0002:000008e8       __imp_fopen_s              000000014010f8e8     ucrt:api-ms-win-crt-stdio-l1-1-0.dll
 0002:000008f0       __imp_fclose               000000014010f8f0     ucrt:api-ms-win-crt-stdio-l1-1-0.dll
 0002:000008f8       __imp_feof                 000000014010f8f8     ucrt:api-ms-win-crt-stdio-l1-1-0.dll
 0002:00000900       __imp___stdio_common_vsscanf 000000014010f900     ucrt:api-ms-win-crt-stdio-l1-1-0.dll
 0002:00000908       __imp_fread                000000014010f908     ucrt:api-ms-win-crt-stdio-l1-1-0.dll
 0002:00000910       __imp___stdio_common_vfprintf 000000014010f910     ucrt:api-ms-win-crt-stdio-l1-1-0.dll
 0002:00000918       __imp___stdio_common_vsprintf 000000014010f918     ucrt:api-ms-win-crt-stdio-l1-1-0.dll
 0002:00000920       __imp__wfopen              000000014010f920     ucrt:api-ms-win-crt-stdio-l1-1-0.dll
 0002:00000928       __imp_fseek                000000014010f928     ucrt:api-ms-win-crt-stdio-l1-1-0.dll
 0002:00000930       __imp___p__commode         000000014010f930     ucrt:api-ms-win-crt-stdio-l1-1-0.dll
 0002:00000938       __imp___stdio_common_vsprintf_s 000000014010f938     ucrt:api-ms-win-crt-stdio-l1-1-0.dll
 0002:00000940       __imp_ungetc               000000014010f940     ucrt:api-ms-win-crt-stdio-l1-1-0.dll
 0002:00000948       __imp_setvbuf              000000014010f948     ucrt:api-ms-win-crt-stdio-l1-1-0.dll
 0002:00000950       __imp_fwrite               000000014010f950     ucrt:api-ms-win-crt-stdio-l1-1-0.dll
 0002:00000958       __imp__fseeki64            000000014010f958     ucrt:api-ms-win-crt-stdio-l1-1-0.dll
 0002:00000960       __imp_fsetpos              000000014010f960     ucrt:api-ms-win-crt-stdio-l1-1-0.dll
 0002:00000968       __imp_fputc                000000014010f968     ucrt:api-ms-win-crt-stdio-l1-1-0.dll
 0002:00000970       __imp_fgetpos              000000014010f970     ucrt:api-ms-win-crt-stdio-l1-1-0.dll
 0002:00000978       __imp_fgetc                000000014010f978     ucrt:api-ms-win-crt-stdio-l1-1-0.dll
 0002:00000980       __imp_fflush               000000014010f980     ucrt:api-ms-win-crt-stdio-l1-1-0.dll
 0002:00000988       __imp__get_stream_buffer_pointers 000000014010f988     ucrt:api-ms-win-crt-stdio-l1-1-0.dll
 0002:00000990       __imp__set_fmode           000000014010f990     ucrt:api-ms-win-crt-stdio-l1-1-0.dll
 0002:00000998       __imp___acrt_iob_func      000000014010f998     ucrt:api-ms-win-crt-stdio-l1-1-0.dll
 0002:000009a0       __imp_ftell                000000014010f9a0     ucrt:api-ms-win-crt-stdio-l1-1-0.dll
 0002:000009a8       \177api-ms-win-crt-stdio-l1-1-0_NULL_THUNK_DATA 000000014010f9a8     ucrt:api-ms-win-crt-stdio-l1-1-0.dll
 0002:000009b0       __imp_strspn               000000014010f9b0     ucrt:api-ms-win-crt-string-l1-1-0.dll
 0002:000009b8       __imp_strcmp               000000014010f9b8     ucrt:api-ms-win-crt-string-l1-1-0.dll
 0002:000009c0       __imp_toupper              000000014010f9c0     ucrt:api-ms-win-crt-string-l1-1-0.dll
 0002:000009c8       __imp_strncmp              000000014010f9c8     ucrt:api-ms-win-crt-string-l1-1-0.dll
 0002:000009d0       __imp_strcspn              000000014010f9d0     ucrt:api-ms-win-crt-string-l1-1-0.dll
 0002:000009d8       __imp_strncpy              000000014010f9d8     ucrt:api-ms-win-crt-string-l1-1-0.dll
 0002:000009e0       \177api-ms-win-crt-string-l1-1-0_NULL_THUNK_DATA 000000014010f9e0     ucrt:api-ms-win-crt-string-l1-1-0.dll
 0002:000009e8       __imp_qsort                000000014010f9e8     ucrt:api-ms-win-crt-utility-l1-1-0.dll
 0002:000009f0       \177api-ms-win-crt-utility-l1-1-0_NULL_THUNK_DATA 000000014010f9f0     ucrt:api-ms-win-crt-utility-l1-1-0.dll
 0002:000009f8       __imp_??1Importer@Assimp@@QEAA@XZ 000000014010f9f8     assimp-vc141-mt:assimp-vc141-mt.dll
 0002:00000a00       __imp_aiGetMaterialTexture 000000014010fa00     assimp-vc141-mt:assimp-vc141-mt.dll
 0002:00000a08       __imp_aiGetMaterialTextureCount 000000014010fa08     assimp-vc141-mt:assimp-vc141-mt.dll
 0002:00000a10       __imp_?GetErrorString@Importer@Assimp@@QEBAPEBDXZ 000000014010fa10     assimp-vc141-mt:assimp-vc141-mt.dll
 0002:00000a18       __imp_?ReadFile@Importer@Assimp@@QEAAPEBUaiScene@@PEBDI@Z 000000014010fa18     assimp-vc141-mt:assimp-vc141-mt.dll
 0002:00000a20       __imp_??0Importer@Assimp@@QEAA@XZ 000000014010fa20     assimp-vc141-mt:assimp-vc141-mt.dll
 0002:00000a28       \177assimp-vc141-mt_NULL_THUNK_DATA 000000014010fa28     assimp-vc141-mt:assimp-vc141-mt.dll
 0002:00000a30       __guard_check_icall_fptr   000000014010fa30     MSVCRT:guard_support.obj
 0002:00000a38       __guard_dispatch_icall_fptr 000000014010fa38     MSVCRT:guard_support.obj
 0002:00000a40       __xc_a                     000000014010fa40     MSVCRT:initializers.obj
 0002:00000a70       __xc_z                     000000014010fa70     MSVCRT:initializers.obj
 0002:00000a78       __xi_a                     000000014010fa78     MSVCRT:initializers.obj
 0002:00000a98       __xi_z                     000000014010fa98     MSVCRT:initializers.obj
 0002:00000aa0       __xl_a                     000000014010faa0     MSVCRT:tlssup.obj
 0002:00000aa8       __xl_z                     000000014010faa8     MSVCRT:tlssup.obj
 0002:00000ab0       __xp_a                     000000014010fab0     MSVCRT:initializers.obj
 0002:00000ab8       __xp_z                     000000014010fab8     MSVCRT:initializers.obj
 0002:00000ac0       __xt_a                     000000014010fac0     MSVCRT:initializers.obj
 0002:00000ac8       __xt_z                     000000014010fac8     MSVCRT:initializers.obj
 0002:00000b64       __real@3e4ccccd            000000014010fb64     main.obj
 0002:00000b68       __real@3e99999a            000000014010fb68     main.obj
 0002:00000b6c       __real@3f800000            000000014010fb6c     main.obj
 0002:00000b70       __real@408f400000000000    000000014010fb70     main.obj
 0002:00000b78       __real@49742400            000000014010fb78     main.obj
 0002:00002580       __real@3f000000            0000000140111580     stb_image.obj
 0002:00002588       __real@3ff0000000000000    0000000140111588     stb_image.obj
 0002:00002590       __real@40400000            0000000140111590     stb_image.obj
 0002:00002594       __real@437f0000            0000000140111594     stb_image.obj
 0002:00002598       __real@477fff00            0000000140111598     stb_image.obj
 0002:000025a0       __xmm@00000200000002000000020000000200 00000001401115a0     stb_image.obj
 0002:000025b0       __xmm@00080008000800080008000800080008 00000001401115b0     stb_image.obj
 0002:000025c0       __xmm@00ff00ff00ff00ff00ff00ff00ff00ff 00000001401115c0     stb_image.obj
 0002:000025d0       __xmm@01010000010100000101000001010000 00000001401115d0     stb_image.obj
 0002:000025e0       __xmm@08a914e808a914e808a914e808a914e8 00000001401115e0     stb_image.obj
 0002:000025f0       __xmm@11c8e09e11c8e09e11c8e09e11c8e09e 00000001401115f0     stb_image.obj
 0002:00002600       __xmm@11c8f9c311c8f9c311c8f9c311c8f9c3 0000000140111600     stb_image.obj
 0002:00002610       __xmm@12d0046b12d0046b12d0046b12d0046b 0000000140111610     stb_image.obj
 0002:00002620       __xmm@166f166f166f166f166f166f166f166f 0000000140111620     stb_image.obj
 0002:00002630       __xmm@1c5a1c5a1c5a1c5a1c5a1c5a1c5a1c5a 0000000140111630     stb_image.obj
 0002:00002640       __xmm@80808080808080808080808080808080 0000000140111640     stb_image.obj
 0002:00002650       __xmm@e09ee565e09ee565e09ee565e09ee565 0000000140111650     stb_image.obj
 0002:00002660       __xmm@e9cf12d0e9cf12d0e9cf12d0e9cf12d0 0000000140111660     stb_image.obj
 0002:00002670       __xmm@eb1a08a9eb1a08a9eb1a08a9eb1a08a9 0000000140111670     stb_image.obj
 0002:00002680       __xmm@f493f493f493f493f493f493f493f493 0000000140111680     stb_image.obj
 0002:00002690       __xmm@f9c31a9df9c31a9df9c31a9df9c31a9d 0000000140111690     stb_image.obj
 0002:000026a0       __xmm@fa7efa7efa7efa7efa7efa7efa7efa7e 00000001401116a0     stb_image.obj
 0002:00002768       ??_C@_0BC@EOODALEL@Unknown?5exception@ 0000000140111768     game.obj
 0002:00002780       ??_C@_0BF@KINCDENJ@bad?5array?5new?5length@ 0000000140111780     game.obj
 0002:00002798       ??_C@_0BA@NKNPIHOA@texture_diffuse@ 0000000140111798     game.obj
 0002:000027a8       ??_C@_0BB@HINKEHAI@texture_specular@ 00000001401117a8     game.obj
 0002:000027c0       ??_C@_0P@GENKKKJO@texture_normal@ 00000001401117c0     game.obj
 0002:000027d0       ??_C@_0P@FDNGFJOD@texture_height@ 00000001401117d0     game.obj
 0002:000027e0       ??_C@_01EEMJAFIK@?6@       00000001401117e0     game.obj
 0002:000027e8       ??_C@_0BB@CEJIGMKE@ERROR?3?3ASSIMP?3?3?5@ 00000001401117e8     game.obj
 0002:00002800       ??_C@_0CB@NMKLDFLI@Texture?5failed?5to?5load?5at?5path?3@ 0000000140111800     game.obj
 0002:00002828       ??_C@_0BI@CFPLBAOH@invalid?5string?5position@ 0000000140111828     game.obj
 0002:00002840       ??_C@_0BA@FOIKENOD@vector?5too?5long@ 0000000140111840     game.obj
 0002:00002850       ??_C@_0BA@JFNIOLAK@string?5too?5long@ 0000000140111850     game.obj
 0002:00002860       __real@3c8efa35            0000000140111860     game.obj
 0002:00002864       __real@3d8f5c29            0000000140111864     game.obj
 0002:00002868       __real@3dcccccd            0000000140111868     game.obj
 0002:0000286c       __real@3e800000            000000014011186c     game.obj
 0002:00002870       __real@41100000            0000000140111870     game.obj
 0002:00002874       __real@41200000            0000000140111874     game.obj
 0002:00002878       __real@41f40000            0000000140111878     game.obj
 0002:0000287c       __real@42200000            000000014011187c     game.obj
 0002:00002880       __real@42340000            0000000140111880     game.obj
 0002:00002884       __real@42480000            0000000140111884     game.obj
 0002:00002888       __real@42a00000            0000000140111888     game.obj
 0002:0000288c       __real@43340000            000000014011188c     game.obj
 0002:00002890       __real@be53f7cf            0000000140111890     game.obj
 0002:00002894       __real@bf800000            0000000140111894     game.obj
 0002:00002898       __real@c1639db2            0000000140111898     game.obj
 0002:0000289c       __real@c199f9db            000000014011189c     game.obj
 0002:000028a0       __real@c1f00000            00000001401118a0     game.obj
 0002:000028a4       __real@c2b40000            00000001401118a4     game.obj
 0002:000028a8       __real@c2c80000            00000001401118a8     game.obj
 0002:000028ac       __real@c30ad7cf            00000001401118ac     game.obj
 0002:00002bf0       ??_C@_05LGDANENA@Empty@    0000000140111bf0     utils.obj
 0002:00002d28       ??_7runtime_error@std@@6B@ 0000000140111d28     gui.obj
 0002:00002d28       ??_7bad_cast@std@@6B@      0000000140111d28     shader_manager.obj
 0002:00002d38       ??_C@_08EPJLHIJG@bad?5cast@ 0000000140111d38     shader_manager.obj
 0002:00002d48       ??_7?$basic_filebuf@DU?$char_traits@D@std@@@std@@6B@ 0000000140111d48     shader_manager.obj
 0002:00002dc0       ??_7?$basic_ifstream@DU?$char_traits@D@std@@@std@@6B@ 0000000140111dc0     shader_manager.obj
 0002:00002dc8       ??_8?$basic_ifstream@DU?$char_traits@D@std@@@std@@7B@ 0000000140111dc8     shader_manager.obj
 0002:00002dd0       ??_7?$basic_stringbuf@DU?$char_traits@D@std@@V?$allocator@D@2@@std@@6B@ 0000000140111dd0     shader_manager.obj
 0002:00002e48       ??_7?$basic_stringstream@DU?$char_traits@D@std@@V?$allocator@D@2@@std@@6B@ 0000000140111e48     shader_manager.obj
 0002:00002e50       ??_8?$basic_stringstream@DU?$char_traits@D@std@@V?$allocator@D@2@@std@@7B?$basic_istream@DU?$char_traits@D@std@@@1@@ 0000000140111e50     shader_manager.obj
 0002:00002e58       ??_8?$basic_stringstream@DU?$char_traits@D@std@@V?$allocator@D@2@@std@@7B?$basic_ostream@DU?$char_traits@D@std@@@1@@ 0000000140111e58     shader_manager.obj
 0002:00002e88       ?piecewise_construct@std@@3Upiecewise_construct_t@1@B 0000000140111e88     resource_manager.obj
 0002:00002e90       ??_C@_0BB@GCADKGJO@map?1set?5too?5long@ 0000000140111e90     resource_manager.obj
 0002:000032c0       ??_C@_1FI@OGFANJNH@?$AAW?$AA?3?$AA?2?$AAf?$AAi?$AAn?$AAn?$AAs?$AAi?$AAe?$AA?2?$AAi?$AAn?$AAc?$AAl@ 00000001401122c0     renderer.obj
 0002:00003318       ??_C@_1DK@BGNCJAPL@?$AAi?$AA?5?$AA?$DO?$AA?$DN?$AA?5?$AA0?$AA?5?$AA?$CG?$AA?$CG?$AA?5?$AAi?$AA?5?$AA?$DM?$AA?5?$AAt@ 0000000140112318     renderer.obj
 0002:00003360       ??_C@_1FI@JCMIDAFI@?$AAW?$AA?3?$AA?2?$AAf?$AAi?$AAn?$AAn?$AAs?$AAi?$AAe?$AA?2?$AAi?$AAn?$AAc?$AAl@ 0000000140112360     renderer.obj
 0002:000033c0       ??_C@_1FM@IKOMBNDO@?$AAW?$AA?3?$AA?2?$AAf?$AAi?$AAn?$AAn?$AAs?$AAi?$AAe?$AA?2?$AAi?$AAn?$AAc?$AAl@ 00000001401123c0     renderer.obj
 0002:00003420       ??_C@_1CG@KOFHLCJL@?$AAi?$AA?5?$AA?$DM?$AA?5?$AAt?$AAh?$AAi?$AAs?$AA?9?$AA?$DO?$AAl?$AAe?$AAn?$AAg?$AAt@ 0000000140112420     renderer.obj
 0002:00003450       ??_C@_1GC@MFOELC@?$AAW?$AA?3?$AA?2?$AAf?$AAi?$AAn?$AAn?$AAs?$AAi?$AAe?$AA?2?$AAi?$AAn?$AAc?$AAl@ 0000000140112450     renderer.obj
 0002:000034c0       ??_C@_1II@JJEBDBC@?$AAa?$AAb?$AAs?$AA?$CI?$AAa?$AAs?$AAp?$AAe?$AAc?$AAt?$AA?5?$AA?9?$AA?5?$AAs?$AAt@ 00000001401124c0     renderer.obj
 0002:00003548       __real@00000000            0000000140112548     renderer.obj
 0002:0000354c       __real@34000000            000000014011254c     renderer.obj
 0002:00003550       __real@3f99999a            0000000140112550     renderer.obj
 0002:00003554       __real@3fc00000            0000000140112554     renderer.obj
 0002:00003558       __real@40000000            0000000140112558     renderer.obj
 0002:0000355c       __real@447a0000            000000014011255c     renderer.obj
 0002:00003560       __xmm@80000000800000008000000080000000 0000000140112560     renderer.obj
 0002:00003908       ??_7_System_error@std@@6B@ 0000000140112908     gui.obj
 0002:00003918       ??_C@_02LMMGGCAJ@?3?5@     0000000140112918     gui.obj
 0002:00003920       ??_7system_error@std@@6B@  0000000140112920     gui.obj
 0002:00003930       ??_C@_00CNPNBAHC@@         0000000140112930     gui.obj
 0002:00003938       ??_7_Generic_error_category@std@@6B@ 0000000140112938     gui.obj
 0002:00003968       ??_C@_07DCLBNMLN@generic@  0000000140112968     gui.obj
 0002:00003970       ??_7_System_error_category@std@@6B@ 0000000140112970     gui.obj
 0002:000039a0       ??_C@_06FHFOAHML@system@   00000001401129a0     gui.obj
 0002:000039a8       ??_C@_0O@BFJCFAAK@unknown?5error@ 00000001401129a8     gui.obj
 0002:000039b6       ?_Is_slash@std@@3U_Is_slash_oper@1@B 00000001401129b6     gui.obj
 0002:000039b8       ??_7filesystem_error@filesystem@std@@6B@ 00000001401129b8     gui.obj
 0002:000039c8       ??_C@_03NONCDIOG@?3?5?$CC@ 00000001401129c8     gui.obj
 0002:000039cc       ??_C@_04PHMHGEMA@?$CC?0?5?$CC@ 00000001401129cc     gui.obj
 0002:000039d4       ??_C@_13BBDEGPLJ@?$AA?$CK@ 00000001401129d4     gui.obj
 0002:000039d8       ??_C@_0DL@FMJPNKHC@recursive_directory_iterator?3?3r@ 00000001401129d8     gui.obj
 0002:00003a18       ??_C@_0CJ@OMKENMFB@recursive_directory_iterator?3?3o@ 0000000140112a18     gui.obj
 0002:00003a48       ??_7?$_Ref_count_obj2@U_Recursive_dir_enum_impl@filesystem@std@@@std@@6B@ 0000000140112a48     gui.obj
 0002:00003a68       __real@38d1b717            0000000140112a68     gui.obj
 0002:00003a6c       __real@3a83126f            0000000140112a6c     gui.obj
 0002:00003a70       __real@3c23d70a            0000000140112a70     gui.obj
 0002:00003a74       __real@40a00000            0000000140112a74     gui.obj
 0002:00003a78       __real@41a00000            0000000140112a78     gui.obj
 0002:00003a7c       __real@41f00000            0000000140112a7c     gui.obj
 0002:00003a80       __real@42c80000            0000000140112a80     gui.obj
 0002:00003a84       __real@43160000            0000000140112a84     gui.obj
 0002:00003a88       __real@43c80000            0000000140112a88     gui.obj
 0002:00003a8c       __real@bfc00000            0000000140112a8c     gui.obj
 0002:00003a90       __real@c3480000            0000000140112a90     gui.obj
 0002:00003a94       __real@c47a0000            0000000140112a94     gui.obj
 0002:00003a98       __real@42b20000            0000000140112a98     camera.obj
 0002:00003a9c       __real@c2b20000            0000000140112a9c     camera.obj
 0002:00012810       ??_C@_1EC@PJFDCDJE@?$AAw?$AA?3?$AA?2?$AAf?$AAi?$AAn?$AAn?$AAs?$AAi?$AAe?$AA?2?$AAi?$AAn?$AAc?$AAl@ 0000000140121810     imgui.obj
 0002:00012858       ??_C@_1BC@IIGHOJGM@?$AAi?$AAd?$AAx?$AA?5?$AA?$DM?$AA?$DN?$AA?5?$AA1@ 0000000140121858     imgui.obj
 0002:00012870       ??_C@_1CC@IHACEFEE@?$AAI?$AAt?$AAe?$AAm?$AAs?$AAC?$AAo?$AAu?$AAn?$AAt?$AA?5?$AA?$DN?$AA?$DN?$AA?5?$AA?9@ 0000000140121870     imgui.obj
 0002:000128a0       ??_C@_1FO@PPMEPJOO@?$AAP?$AAl?$AAa?$AAt?$AAf?$AAo?$AAr?$AAm?$AAU?$AAs?$AAe?$AAr?$AAD?$AAa?$AAt@ 00000001401218a0     imgui.obj
 0002:00012900       ??_C@_1FE@BPBODOFB@?$AAw?$AA?3?$AA?2?$AAf?$AAi?$AAn?$AAn?$AAs?$AAi?$AAe?$AA?2?$AAi?$AAn?$AAc?$AAl@ 0000000140121900     imgui.obj
 0002:00012960       ??_C@_1HM@PJKJLKEH@?$AAt?$AAa?$AAb?$AA?9?$AA?$DO?$AAN?$AAa?$AAm?$AAe?$AAO?$AAf?$AAf?$AAs?$AAe?$AAt@ 0000000140121960     imgui.obj
 0002:000129e0       ??_C@_1BC@LLDLMHEG@?$AAk?$AAe?$AAy?$AA?5?$AA?$DM?$AA?5?$AA6?$AA4@ 00000001401219e0     imgui.obj
 0002:00012a00       ??_C@_1EG@GAKJHLGO@?$AAw?$AA?3?$AA?2?$AAf?$AAi?$AAn?$AAn?$AAs?$AAi?$AAe?$AA?2?$AAi?$AAn?$AAc?$AAl@ 0000000140121a00     imgui.obj
 0002:00012a48       ??_C@_13COJANIEC@?$AA0@    0000000140121a48     imgui.obj
 0002:00012a50       ??_C@_0CF@IMBENNLG@?$CFs?3?5?8?$CFs?8?5?$CFd?5vtx?0?5?$CFd?5indices?0?5?$CFd@ 0000000140121a50     imgui.obj
 0002:00012a78       ??_C@_0BE@LDCFEMCB@CURRENTLY?5APPENDING@ 0000000140121a78     imgui.obj
 0002:00012a90       ??_C@_0EJ@LNIIFBMO@Warning?3?5owning?5Window?5is?5inact@ 0000000140121a90     imgui.obj
 0002:00012ae0       ??_C@_0BK@FDNBBNBF@Callback?5?$CFp?0?5user_data?5?$CFp@ 0000000140121ae0     imgui.obj
 0002:00012b00       ??_C@_0EH@JMOALFHG@DrawCmd?3?5?$CF4d?5triangles?0?5Tex?50x?$CF@ 0000000140121b00     imgui.obj
 0002:00012b48       ??_C@_02DKCKIIND@?$CFs@    0000000140121b48     imgui.obj
 0002:00012b50       ??_C@_0EE@EGAMBHDK@Mesh?3?5ElemCount?3?5?$CFd?0?5VtxOffset?3@ 0000000140121b50     imgui.obj
 0002:00012b94       ??_C@_05HCFPDLGJ@Vert?3@   0000000140121b94     imgui.obj
 0002:00012b9c       ??_C@_05IFKLLJBC@?5?5?5?5?5@ 0000000140121b9c     imgui.obj
 0002:00012ba8       ??_C@_0DG@MPIFBGBG@?$CFs?5?$CF04d?3?5pos?5?$CI?$CF8?42f?0?$CF8?42f?$CJ?0?5uv?5@ 0000000140121ba8     imgui.obj
 0002:00012be0       ??_C@_0CN@LMOAIACO@Columns?5Id?3?50x?$CF08X?0?5Count?3?5?$CFd?0?5@ 0000000140121be0     imgui.obj
 0002:00012c10       ??_C@_0CF@PKFCLBKA@Width?3?5?$CF?41f?5?$CIMinX?3?5?$CF?41f?0?5MaxX?3?5@ 0000000140121c10     imgui.obj
 0002:00012c38       ??_C@_0CJ@CPAFBJNN@Column?5?$CF02d?3?5OffsetNorm?5?$CF?43f?5?$CI?$DN@ 0000000140121c38     imgui.obj
 0002:00012c68       ??_C@_07JMKCEEPK@?$CFs?5?$CI?$CFd?$CJ@ 0000000140121c68     imgui.obj
 0002:00012c70       ??_C@_06BKKJGDHO@Window@   0000000140121c70     imgui.obj
 0002:00012c78       ??_C@_08MGKMCIPB@?$CFs?3?5NULL@ 0000000140121c78     imgui.obj
 0002:00012c88       ??_C@_0BD@KOKNLAED@?$CFs?5?8?$CFs?8?0?5?$CFd?5?$EA?50x?$CFp@ 0000000140121c88     imgui.obj
 0002:00012ca0       ??_C@_08IJNCDCKF@DrawList@ 0000000140121ca0     imgui.obj
 0002:00012cb0       ??_C@_0DN@IDPJPCAL@Pos?3?5?$CI?$CF?41f?0?$CF?41f?$CJ?0?5Size?3?5?$CI?$CF?41f?0?$CF@ 0000000140121cb0     imgui.obj
 0002:00012cf0       ??_C@_0BB@GGEIPOID@AlwaysAutoResize@ 0000000140121cf0     imgui.obj
 0002:00012d08       ??_C@_0M@COLEABDL@NoNavInputs@ 0000000140121d08     imgui.obj
 0002:00012d18       ??_C@_0O@LAPEOEIJ@NoMouseInputs@ 0000000140121d18     imgui.obj
 0002:00012d28       ??_C@_0BB@EBNDPMCP@NoSavedSettings?5@ 0000000140121d28     imgui.obj
 0002:00012d40       ??_C@_0L@OPMMHACC@ChildMenu?5@ 0000000140121d40     imgui.obj
 0002:00012d4c       ??_C@_06IFIMNOLK@Modal?5@  0000000140121d4c     imgui.obj
 0002:00012d54       ??_C@_06NMKCIICK@Popup?5@  0000000140121d54     imgui.obj
 0002:00012d60       ??_C@_08LGECAIGF@Tooltip?5@ 0000000140121d60     imgui.obj
 0002:00012d6c       ??_C@_06MMFPNIIL@Child?5@  0000000140121d6c     imgui.obj
 0002:00012d78       ??_C@_0CF@HFFEAFCN@Flags?3?50x?$CF08X?5?$CI?$CFs?$CFs?$CFs?$CFs?$CFs?$CFs?$CFs?$CFs@ 0000000140121d78     imgui.obj
 0002:00012da0       ??_C@_0BG@PFBKDAIH@WindowClassId?3?50x?$CF08X@ 0000000140121da0     imgui.obj
 0002:00012db8       ??_C@_01NFFPALBN@Y@        0000000140121db8     imgui.obj
 0002:00012dbc       ??_C@_01MMEEDKFM@X@        0000000140121dbc     imgui.obj
 0002:00012dc0       ??_C@_0CN@OBHMFINH@Scroll?3?5?$CI?$CF?42f?1?$CF?42f?0?$CF?42f?1?$CF?42f?$CJ?5S@ 0000000140121dc0     imgui.obj
 0002:00012df0       ??_C@_0DO@LPCMGHLI@Active?3?5?$CFd?1?$CFd?0?5WriteAccessed?3?5?$CF@ 0000000140121df0     imgui.obj
 0002:00012e30       ??_C@_0EA@JLDPMAKO@Appearing?3?5?$CFd?0?5Hidden?3?5?$CFd?5?$CICanS@ 0000000140121e30     imgui.obj
 0002:00012e70       ??_C@_0DC@CFCLKJDH@NavLastIds?3?50x?$CF08X?00x?$CF08X?0?5NavL@ 0000000140121e70     imgui.obj
 0002:00012ea4       ??_C@_04HIBGFPH@NULL@      0000000140121ea4     imgui.obj
 0002:00012eb0       ??_C@_0BK@KLNPELCL@NavLastChildNavWindow?3?5?$CFs@ 0000000140121eb0     imgui.obj
 0002:00012ed0       ??_C@_0CG@HFMDFCIJ@NavRectRel?$FL0?$FN?3?5?$CI?$CF?41f?0?$CF?41f?$CJ?$CI?$CF?41f@ 0000000140121ed0     imgui.obj
 0002:00012ef8       ??_C@_0BG@KHCECGOM@NavRectRel?$FL0?$FN?3?5?$DMNone?$DO@ 0000000140121ef8     imgui.obj
 0002:00012f10       ??_C@_08DEJCBKPC@?5?$CIOwned?$CJ@ 0000000140121f10     imgui.obj
 0002:00012f20       ??_C@_0DN@NJLPMAEL@Viewport?3?5?$CFd?$CFs?0?5ViewportId?3?50x?$CF@ 0000000140121f20     imgui.obj
 0002:00012f60       ??_C@_0BE@NOMHEHKG@ViewportMonitor?3?5?$CFd@ 0000000140121f60     imgui.obj
 0002:00012f78       ??_C@_0DA@GNKDNGHK@DockId?3?50x?$CF04X?0?5DockOrder?3?5?$CFd?0?5@ 0000000140121f78     imgui.obj
 0002:00012fa8       ??_C@_0P@BMKFCLKI@DockNodeAsHost@ 0000000140121fa8     imgui.obj
 0002:00012fb8       ??_C@_08JIPMFPMP@DockNode@ 0000000140121fb8     imgui.obj
 0002:00012fc8       ??_C@_0L@EHLMOHOL@RootWindow@ 0000000140121fc8     imgui.obj
 0002:00012fd8       ??_C@_0BD@DKOEMIDP@RootWindowDockStop@ 0000000140121fd8     imgui.obj
 0002:00012ff0       ??_C@_0N@BPPHAMMO@ParentWindow@ 0000000140121ff0     imgui.obj
 0002:00013000       ??_C@_0N@BGDHDNPO@ChildWindows@ 0000000140122000     imgui.obj
 0002:00013010       ??_C@_0BC@FIDDFLAI@Columns?5sets?5?$CI?$CFd?$CJ@ 0000000140122010     imgui.obj
 0002:00013028       ??_C@_07IBCCJKML@Columns@  0000000140122028     imgui.obj
 0002:00013030       ??_C@_07PFGLPMIK@Storage@  0000000140122030     imgui.obj
 0002:00013038       ??_C@_03HPADHAHE@N?1A@     0000000140122038     imgui.obj
 0002:00013040       ??_C@_0DH@HNONKGMB@Viewport?5?$CD?$CFd?0?5ID?3?50x?$CF08X?0?5Paren@ 0000000140122040     imgui.obj
 0002:00013080       ??_C@_0IH@FFJBKKJA@Main?5Pos?3?5?$CI?$CF?40f?0?$CF?40f?$CJ?0?5Size?3?5?$CI?$CF@ 0000000140122080     imgui.obj
 0002:00013108       ??_C@_09JBNHDJHP@Reset?5Pos@ 0000000140122108     imgui.obj
 0002:00013118       ??_C@_0N@LBBDHGCF@?5NoAutoMerge@ 0000000140122118     imgui.obj
 0002:00013128       ??_C@_0L@DJGICPLM@?5Minimized@ 0000000140122128     imgui.obj
 0002:00013138       ??_C@_0BB@HDKDJCCA@?5NoRendererClear@ 0000000140122138     imgui.obj
 0002:00013150       ??_C@_09FNAHPKID@?5NoInputs@ 0000000140122150     imgui.obj
 0002:00013160       ??_C@_0BE@IPEOHMPD@?5NoFocusOnAppearing@ 0000000140122160     imgui.obj
 0002:00013178       ??_C@_0O@IJCBBDOC@?5NoDecoration@ 0000000140122178     imgui.obj
 0002:00013188       ??_C@_0BF@IOKACMGF@?5CanHostOtherWindows@ 0000000140122188     imgui.obj
 0002:000131a0       ??_C@_0BO@KKDDHJDG@Flags?3?50x?$CF04X?5?$DN?$CFs?$CFs?$CFs?$CFs?$CFs?$CFs?$CFs@ 00000001401221a0     imgui.obj
 0002:000131c0       ??_C@_09ICABOEOL@?5?$CIhidden?$CJ@ 00000001401221c0     imgui.obj
 0002:000131d0       ??_C@_0CE@FOJGCEOL@?$CFs?50x?$CF04X?$CFs?3?5?$CFd?5windows?5?$CIvis?3?5?8@ 00000001401221d0     imgui.obj
 0002:000131f8       ??_C@_0L@LMMKHPOB@horizontal@ 00000001401221f8     imgui.obj
 0002:00013208       ??_C@_08NEOMLJGJ@vertical@ 0000000140122208     imgui.obj
 0002:00013214       ??_C@_03EKLFPLOI@n?1a@     0000000140122214     imgui.obj
 0002:00013218       ??_C@_0CC@MPEHIAPJ@?$CFs?50x?$CF04X?$CFs?3?5?$CFs?5split?5?$CIvis?3?5?8?$CFs@ 0000000140122218     imgui.obj
 0002:00013240       ??_C@_1II@LDAMCPBH@?$AAn?$AAo?$AAd?$AAe?$AA?9?$AA?$DO?$AAC?$AAh?$AAi?$AAl?$AAd?$AAN?$AAo?$AAd?$AAe@ 0000000140122240     imgui.obj
 0002:000132d0       ??_C@_1II@HKCNFCMJ@?$AAn?$AAo?$AAd?$AAe?$AA?9?$AA?$DO?$AAC?$AAh?$AAi?$AAl?$AAd?$AAN?$AAo?$AAd?$AAe@ 00000001401222d0     imgui.obj
 0002:00013358       ??_C@_0DE@FLJOFLDG@Pos?5?$CI?$CF?40f?0?$CF?40f?$CJ?0?5Size?5?$CI?$CF?40f?0?5?$CF?4@ 0000000140122358     imgui.obj
 0002:00013390       ??_C@_0L@EBBBMKMB@HostWindow@ 0000000140122390     imgui.obj
 0002:000133a0       ??_C@_0O@IPNCGGMB@VisibleWindow@ 00000001401223a0     imgui.obj
 0002:000133b0       ??_C@_0DB@EFCFPKBP@SelectedTabID?3?50x?$CF08X?0?5LastFocu@ 00000001401223b0     imgui.obj
 0002:000133e8       ??_C@_09GNFAMBMJ@?5IsActive@ 00000001401223e8     imgui.obj
 0002:000133f8       ??_C@_08OGELAKIO@?5IsAlive@ 00000001401223f8     imgui.obj
 0002:00013408       ??_C@_0P@CDHHMAOD@?5IsCentralNode@ 0000000140122408     imgui.obj
 0002:00013418       ??_C@_0N@OIOIPNJI@?5IsDockSpace@ 0000000140122418     imgui.obj
 0002:00013428       ??_C@_0O@EOHFJBL@Misc?3?$CFs?$CFs?$CFs?$CFs@ 0000000140122428     imgui.obj
 0002:00013438       ??_C@_0CH@LFOOLBIF@LocalFlags?3?50x?$CF04X?5SharedFlags?3@ 0000000140122438     imgui.obj
 0002:00013460       ??_C@_05GECEPKB@flags@     0000000140122460     imgui.obj
 0002:00013468       ??_C@_0BG@EBGEOIJ@LocalFlags?3?5NoDocking@ 0000000140122468     imgui.obj
 0002:00013480       ??_C@_0BE@ENHIMDJJ@LocalFlags?3?5NoSplit@ 0000000140122480     imgui.obj
 0002:00013498       ??_C@_0BF@IMFGHJAE@LocalFlags?3?5NoResize@ 0000000140122498     imgui.obj
 0002:000134b0       ??_C@_0BF@ELFEFACC@LocalFlags?3?5NoTabBar@ 00000001401224b0     imgui.obj
 0002:000134c8       ??_C@_0BJ@OLJHFNMA@LocalFlags?3?5HiddenTabBar@ 00000001401224c8     imgui.obj
 0002:000134e8       ??_C@_0BP@BOIHHGAJ@LocalFlags?3?5NoWindowMenuButton@ 00000001401224e8     imgui.obj
 0002:00013508       ??_C@_0BK@FAKIPJBL@LocalFlags?3?5NoCloseButton@ 0000000140122508     imgui.obj
 0002:00013528       ??_C@_0L@MFFDMPJ@ParentNode@ 0000000140122528     imgui.obj
 0002:00013538       ??_C@_08MHDPDGCN@Child?$FL0?$FN@ 0000000140122538     imgui.obj
 0002:00013548       ??_C@_08MGPNFMBK@Child?$FL1?$FN@ 0000000140122548     imgui.obj
 0002:00013558       ??_C@_0M@MDILNFHC@?5?$CKInactive?$CK@ 0000000140122558     imgui.obj
 0002:00013568       ??_C@_0BD@HNMBCOGC@TabBar?5?$CI?$CFd?5tabs?$CJ?$CFs@ 0000000140122568     imgui.obj
 0002:0001357c       ??_C@_04JFAOCLML@?5?5?$HL?5@ 000000014012257c     imgui.obj
 0002:00013584       ??_C@_02KEGNLNML@?0?5@     0000000140122584     imgui.obj
 0002:00013588       ??_C@_06BKNPIBKB@?$CFs?8?$CFs?8@ 0000000140122588     imgui.obj
 0002:00013590       ??_C@_06MEIHFGI@?5?4?4?4?5?$HN@ 0000000140122590     imgui.obj
 0002:00013598       ??_C@_03LHCEFAHM@?5?$HN?5@ 0000000140122598     imgui.obj
 0002:0001359c       ??_C@_01MNNFJEPP@?$DM@     000000014012259c     imgui.obj
 0002:000135a0       ??_C@_01PPODPGHN@?$DO@     00000001401225a0     imgui.obj
 0002:000135a8       ??_C@_0BH@JADAAALK@?$CF02d?$CFc?5Tab?50x?$CF08X?5?8?$CFs?8@ 00000001401225a8     imgui.obj
 0002:000135c0       ??_C@_0BJ@EFAEFOHB@?$CFs?3?5?$CFd?5entries?0?5?$CFd?5bytes@ 00000001401225c0     imgui.obj
 0002:000135e0       ??_C@_0BL@LEAFLIMO@Key?50x?$CF08X?5Value?5?$HL?5i?3?5?$CFd?5?$HN@ 00000001401225e0     imgui.obj
 0002:00013600       ??_C@_1BC@DCMHDKFO@?$AAi?$AA?5?$AA?$DM?$AA?5?$AAS?$AAi?$AAz?$AAe@ 0000000140122600     imgui.obj
 0002:00013618       ??_C@_1DO@NPHOAPAC@?$AAi?$AAt?$AA?5?$AA?$DO?$AA?$DN?$AA?5?$AAD?$AAa?$AAt?$AAa?$AA?5?$AA?$CG?$AA?$CG?$AA?5?$AAi@ 0000000140122618     imgui.obj
 0002:00013658       ??_C@_1BC@KCECIPDP@?$AAS?$AAi?$AAz?$AAe?$AA?5?$AA?$DO?$AA?5?$AA0@ 0000000140122658     imgui.obj
 0002:00013670       ??_C@_1DG@EPOMENA@?$AAo?$AAf?$AAf?$AA?5?$AA?$DO?$AA?$DN?$AA?5?$AA4?$AA?5?$AA?$CG?$AA?$CG?$AA?5?$AAo?$AAf?$AAf@ 0000000140122670     imgui.obj
 0002:000136a8       ??_C@_1DE@BDDBABLK@?$AAp?$AA?5?$AA?$DO?$AA?$DN?$AA?5?$AAb?$AAe?$AAg?$AAi?$AAn?$AA?$CI?$AA?$CJ?$AA?5?$AA?$CG?$AA?$CG@ 00000001401226a8     imgui.obj
 0002:000136e0       ??_C@_1BE@OEELIPPM@?$AAp?$AA?5?$AA?$DM?$AA?5?$AAe?$AAn?$AAd?$AA?$CI?$AA?$CJ@ 00000001401226e0     imgui.obj
 0002:000136f8       ??_C@_1DK@JJGEFOJO@?$AAi?$AAt?$AA?5?$AA?$DO?$AA?$DN?$AA?5?$AAD?$AAa?$AAt?$AAa?$AA?5?$AA?$CG?$AA?$CG?$AA?5?$AAi@ 00000001401226f8     imgui.obj
 0002:00013738       ??_C@_1DM@JNCAMPLJ@?$AAi?$AAt?$AA?5?$AA?$DO?$AA?$DN?$AA?5?$AAD?$AAa?$AAt?$AAa?$AA?5?$AA?$CG?$AA?$CG?$AA?5?$AAi@ 0000000140122738     imgui.obj
 0002:00013774       __real@1e3ce508            0000000140122774     imgui.obj
 0002:00013778       __real@3727c5ac            0000000140122778     imgui.obj
 0002:0001377c       __real@3b808081            000000014012277c     imgui.obj
 0002:00013780       __real@3c888889            0000000140122780     imgui.obj
 0002:00013784       __real@3d23d70a            0000000140122784     imgui.obj
 0002:00013788       __real@3d4ccccd            0000000140122788     imgui.obj
 0002:0001378c       __real@3e000000            000000014012278c     imgui.obj
 0002:00013790       __real@3e19999a            0000000140122790     imgui.obj
 0002:00013794       __real@3e2aaaab            0000000140122794     imgui.obj
 0002:00013798       __real@3e8ccccd            0000000140122798     imgui.obj
 0002:0001379c       __real@3ecccccd            000000014012279c     imgui.obj
 0002:000137a0       __real@3f0ccccd            00000001401227a0     imgui.obj
 0002:000137a4       __real@3f19999a            00000001401227a4     imgui.obj
 0002:000137a8       __real@3f266666            00000001401227a8     imgui.obj
 0002:000137ac       __real@3f2b851f            00000001401227ac     imgui.obj
 0002:000137b0       __real@3f333333            00000001401227b0     imgui.obj
 0002:000137b4       __real@3f3851ec            00000001401227b4     imgui.obj
 0002:000137b8       __real@3f400000            00000001401227b8     imgui.obj
 0002:000137bc       __real@3f490fdb            00000001401227bc     imgui.obj
 0002:000137c0       __real@3f4ccccd            00000001401227c0     imgui.obj
 0002:000137c4       __real@3f666666            00000001401227c4     imgui.obj
 0002:000137c8       __real@3f733333            00000001401227c8     imgui.obj
 0002:000137cc       __real@3fa00000            00000001401227cc     imgui.obj
 0002:000137d0       __real@3faccccd            00000001401227d0     imgui.obj
 0002:000137d4       __real@3fb33333            00000001401227d4     imgui.obj
 0002:000137d8       __real@3fc90fdb            00000001401227d8     imgui.obj
 0002:000137dc       __real@3fcccccd            00000001401227dc     imgui.obj
 0002:000137e0       __real@3fd9999a            00000001401227e0     imgui.obj
 0002:000137e4       __real@4019999a            00000001401227e4     imgui.obj
 0002:000137e8       __real@40200000            00000001401227e8     imgui.obj
 0002:000137ec       __real@40266666            00000001401227ec     imgui.obj
 0002:000137f0       __real@40490fdb            00000001401227f0     imgui.obj
 0002:000137f4       __real@40600000            00000001401227f4     imgui.obj
 0002:000137f8       __real@40800000            00000001401227f8     imgui.obj
 0002:000137fc       __real@4096cbe4            00000001401227fc     imgui.obj
 0002:00013800       __real@40c00000            0000000140122800     imgui.obj
 0002:00013804       __real@40e00000            0000000140122804     imgui.obj
 0002:00013808       __real@41000000            0000000140122808     imgui.obj
 0002:0001380c       __real@41400000            000000014012280c     imgui.obj
 0002:00013810       __real@41600000            0000000140122810     imgui.obj
 0002:00013814       __real@41800000            0000000140122814     imgui.obj
 0002:00013818       __real@41980000            0000000140122818     imgui.obj
 0002:0001381c       __real@41a80000            000000014012281c     imgui.obj
 0002:00013820       __real@41c00000            0000000140122820     imgui.obj
 0002:00013824       __real@42000000            0000000140122824     imgui.obj
 0002:00013828       __real@420c0000            0000000140122828     imgui.obj
 0002:0001382c       __real@42700000            000000014012282c     imgui.obj
 0002:00013830       __real@42f00000            0000000140122830     imgui.obj
 0002:00013834       __real@43480000            0000000140122834     imgui.obj
 0002:00013838       __real@44160000            0000000140122838     imgui.obj
 0002:0001383c       __real@44480000            000000014012283c     imgui.obj
 0002:00013840       __real@7f7fffff            0000000140122840     imgui.obj
 0002:00013844       __real@beaaaaab            0000000140122844     imgui.obj
 0002:00013848       __real@c0000000            0000000140122848     imgui.obj
 0002:0001384c       __real@c0800000            000000014012284c     imgui.obj
 0002:00013850       __real@c87a0000            0000000140122850     imgui.obj
 0002:00013854       __real@ff7fffff            0000000140122854     imgui.obj
 0002:00013858       __real@ffefffffffffffff    0000000140122858     imgui.obj
 0002:00013860       __xmm@7fffffffffffffff7fffffffffffffff 0000000140122860     imgui.obj
 0002:0001dbe0       ??_C@_1BM@COLNJNAB@?$AAB?$AAu?$AAf?$AA?4?$AAD?$AAa?$AAt?$AAa?$AA?5?$AA?$CB?$AA?$DN?$AA?5?$AA0@ 000000014012cbe0     imgui_demo.obj
 0002:0001dc00       ??_C@_09EEKGDCPH@?$DMunknown?$DO@ 000000014012cc00     imgui_demo.obj
 0002:0001dc0c       ??_C@_05EAJAAGNN@imgui@    000000014012cc0c     imgui_demo.obj
 0002:0001dc20       ??_C@_1FA@LAPKNGDD@?$AAw?$AA?3?$AA?2?$AAf?$AAi?$AAn?$AAn?$AAs?$AAi?$AAe?$AA?2?$AAi?$AAn?$AAc?$AAl@ 000000014012cc20     imgui_demo.obj
 0002:0001dc70       ??_C@_1DK@GBCOMGGK@?$AAm?$AAy?$AA_?$AAs?$AAt?$AAr?$AA?9?$AA?$DO?$AAb?$AAe?$AAg?$AAi?$AAn?$AA?$CI?$AA?$CJ@ 000000014012cc70     imgui_demo.obj
 0002:0001dcb0       ??_C@_1GE@PBHHHBJD@?$AA?$CI?$AAf?$AAl?$AAa?$AAg?$AAs?$AA?5?$AA?$CG?$AA?5?$AAI?$AAm?$AAG?$AAu?$AAi?$AAI@ 000000014012ccb0     imgui_demo.obj
 0002:0001dd14       ??_C@_04DOKPJKJF@HELP@     000000014012cd14     imgui_demo.obj
 0002:0001dd20       ??_C@_07DBIJIOJO@HISTORY@  000000014012cd20     imgui_demo.obj
 0002:0001dd28       ??_C@_05PONODPI@CLEAR@     000000014012cd28     imgui_demo.obj
 0002:0001dd30       ??_C@_08GOHMLCGG@CLASSIFY@ 000000014012cd30     imgui_demo.obj
 0002:0001dd40       ??_C@_0BH@HICLALOG@Welcome?5to?5Dear?5ImGui?$CB@ 000000014012cd40     imgui_demo.obj
 0002:0001dd58       ??_C@_17ENLBLDPN@?$AAb?$AAu?$AAf@ 000000014012cd58     imgui_demo.obj
 0002:0001dd60       ??_C@_0O@GDIOPKGP@Close?5Console@ 000000014012cd60     imgui_demo.obj
 0002:0001dd70       ??_C@_0MA@ICGIOBFG@This?5example?5implements?5a?5conso@ 000000014012cd70     imgui_demo.obj
 0002:0001de30       ??_C@_0DJ@NBHLDCP@Enter?5?8HELP?8?5for?5help?0?5press?5TA@ 000000014012ce30     imgui_demo.obj
 0002:0001de70       ??_C@_0P@CGJDLLEJ@Add?5Dummy?5Text@ 000000014012ce70     imgui_demo.obj
 0002:0001de80       ??_C@_0N@OJGBPOOP@?$CFd?5some?5text@ 000000014012ce80     imgui_demo.obj
 0002:0001de90       ??_C@_0P@BMHJKMPF@some?5more?5text@ 000000014012ce90     imgui_demo.obj
 0002:0001dea0       ??_C@_0CF@PEIDNPCH@display?5very?5important?5message?5@ 000000014012cea0     imgui_demo.obj
 0002:0001dec8       ??_C@_0BA@HHKLEHKC@Add?5Dummy?5Error@ 000000014012cec8     imgui_demo.obj
 0002:0001ded8       ??_C@_0BN@KNPJMMPE@?$FLerror?$FN?5something?5went?5wrong@ 000000014012ced8     imgui_demo.obj
 0002:0001def8       ??_C@_05MDNHABIA@Clear@    000000014012cef8     imgui_demo.obj
 0002:0001df00       ??_C@_04OPMHGHMB@Copy@     000000014012cf00     imgui_demo.obj
 0002:0001df08       ??_C@_07KHIHFBFN@Options@  000000014012cf08     imgui_demo.obj
 0002:0001df10       ??_C@_0M@IFKANFPJ@Auto?9scroll@ 000000014012cf10     imgui_demo.obj
 0002:0001df20       ??_C@_0CA@HIABFBKB@Filter?5?$CI?$CCincl?0?9excl?$CC?$CJ?5?$CI?$CCerror?$CC?$CJ@ 000000014012cf20     imgui_demo.obj
 0002:0001df40       ??_C@_0BA@KOEFNJOK@ScrollingRegion@ 000000014012cf40     imgui_demo.obj
 0002:0001df50       ??_C@_07LFMCMLFD@?$FLerror?$FN@ 000000014012cf50     imgui_demo.obj
 0002:0001df58       ??_C@_02KPDBPKPG@?$CD?5@   000000014012cf58     imgui_demo.obj
 0002:0001df5c       ??_C@_05DCDOHKAB@Input@    000000014012cf5c     imgui_demo.obj
 0002:0001df64       ??_C@_05DFHAGHEP@?$CD?5?$CFs?6@ 000000014012cf64     imgui_demo.obj
 0002:0001df70       ??_C@_09GJFNIAOH@Commands?3@ 000000014012cf70     imgui_demo.obj
 0002:0001df7c       ??_C@_04JKCKOCFH@?9?5?$CFs@ 000000014012cf7c     imgui_demo.obj
 0002:0001df88       ??_C@_08PKLPHKJF@?$CF3d?3?5?$CFs?6@ 000000014012cf88     imgui_demo.obj
 0002:0001df98       ??_C@_0BH@OKLFOGKH@Unknown?5command?3?5?8?$CFs?8?6@ 000000014012cf98     imgui_demo.obj
 0002:0001dfb0       ??_C@_0BG@DOPMHGPK@No?5match?5for?5?$CC?$CF?4?$CKs?$CC?$CB?6@ 000000014012cfb0     imgui_demo.obj
 0002:0001dfc8       ??_C@_01CLKCMJKC@?5@       000000014012cfc8     imgui_demo.obj
 0002:0001dfd0       ??_C@_0BD@LCPLNAHF@Possible?5matches?3?6@ 000000014012cfd0     imgui_demo.obj
 0002:0001dfe4       ??_C@_05PHKAGDP@?9?5?$CFs?6@ 000000014012cfe4     imgui_demo.obj
 0002:0001dfec       ??_C@_06IBDJIBGI@Filter@   000000014012cfec     imgui_demo.obj
 0002:0001dff8       ??_C@_09PKEBEIDM@scrolling@ 000000014012cff8     imgui_demo.obj
 0002:0001e004       ??_C@_05FIIOEGIK@?$CFs_?$CFu@ 000000014012d004     imgui_demo.obj
 0002:0001e00c       ??_C@_06ELFECKBG@Object@   000000014012d00c     imgui_demo.obj
 0002:0001e018       ??_C@_0BC@LIBEHHHH@my?5sailor?5is?5rich@ 000000014012d018     imgui_demo.obj
 0002:0001e02c       ??_C@_05GIMBDOHM@Child@    000000014012d02c     imgui_demo.obj
 0002:0001e038       ??_C@_08BNKJGCPO@Field_?$CFd@ 000000014012d038     imgui_demo.obj
 0002:0001e044       ??_C@_05EPLKDJMH@Field@    000000014012d044     imgui_demo.obj
 0002:0001e04c       ??_C@_04GFJLOHHD@?$CF?43f@ 000000014012d04c     imgui_demo.obj
 0002:0001e058       ??_C@_07FBBIKLOB@?$CD?$CDvalue@ 000000014012d058     imgui_demo.obj
 0002:0001e060       ??_C@_0O@LKIEAKBN@Document?5?$CC?$CFs?$CC@ 000000014012d060     imgui_demo.obj
 0002:0001e070       ??_C@_0HM@PALHCHMO@Lorem?5ipsum?5dolor?5sit?5amet?0?5con@ 000000014012d070     imgui_demo.obj
 0002:0001e0ec       ??_C@_06CGNGJFJO@Modify@   000000014012d0ec     imgui_demo.obj
 0002:0001e0f4       ??_C@_04INACKGJP@Save@     000000014012d0f4     imgui_demo.obj
 0002:0001e0fc       ??_C@_05PEENBMOG@color@    000000014012d0fc     imgui_demo.obj
 0002:0001e108       ??_C@_07HKLKIEAD@Save?5?$CFs@ 000000014012d108     imgui_demo.obj
 0002:0001e110       ??_C@_06LGPANJDM@CTRL?$CLS@ 000000014012d110     imgui_demo.obj
 0002:0001e118       ??_C@_06NCJMBMDI@CTRL?$CLW@ 000000014012d118     imgui_demo.obj
 0002:0001e120       ??_C@_05LGELBCGM@Close@    000000014012d120     imgui_demo.obj
 0002:0001e128       ??_C@_07KPHKCHJL@Lettuce@  000000014012d128     imgui_demo.obj
 0002:0001e130       ??_C@_08MEKMCLOD@Eggplant@ 000000014012d130     imgui_demo.obj
 0002:0001e13c       ??_C@_06JOCEHIMN@Carrot@   000000014012d13c     imgui_demo.obj
 0002:0001e144       ??_C@_06BPAOMENE@Tomato@   000000014012d144     imgui_demo.obj
 0002:0001e150       ??_C@_0BE@GMCEAMGE@A?5Rather?5Long?5Title@ 000000014012d150     imgui_demo.obj
 0002:0001e168       ??_C@_0O@ILMKPHFK@Some?5Document@ 000000014012d168     imgui_demo.obj
 0002:0001e178       __real@0000000000000000    000000014012d178     imgui_demo.obj
 0002:0001e180       __real@3a03126f            000000014012d180     imgui_demo.obj
 0002:0001e184       __real@3ba3d70a            000000014012d184     imgui_demo.obj
 0002:0001e188       __real@3ca3d70a            000000014012d188     imgui_demo.obj
 0002:0001e18c       __real@3e6b851f            000000014012d18c     imgui_demo.obj
 0002:0001e190       __real@3eb33333            000000014012d190     imgui_demo.obj
 0002:0001e194       __real@3ee4e4e5            000000014012d194     imgui_demo.obj
 0002:0001e198       __real@3f109091            000000014012d198     imgui_demo.obj
 0002:0001e19c       __real@3f1a9a9b            000000014012d19c     imgui_demo.obj
 0002:0001e1a0       __real@3f48c8c9            000000014012d1a0     imgui_demo.obj
 0002:0001e1a8       __real@3f847ae140000000    000000014012d1a8     imgui_demo.obj
 0002:0001e1b0       __real@3f8ccccd            000000014012d1b0     imgui_demo.obj
 0002:0001e1b8       __real@3f91111120000000    000000014012d1b8     imgui_demo.obj
 0002:0001e1c0       __real@3fa66666            000000014012d1c0     imgui_demo.obj
 0002:0001e1c8       __real@3fd0000000000000    000000014012d1c8     imgui_demo.obj
 0002:0001e1d0       __real@40490e56            000000014012d1d0     imgui_demo.obj
 0002:0001e1d4       __real@411ccccd            000000014012d1d4     imgui_demo.obj
 0002:0001e1d8       __real@41900000            000000014012d1d8     imgui_demo.obj
 0002:0001e1dc       __real@41f80000            000000014012d1dc     imgui_demo.obj
 0002:0001e1e0       __real@42900000            000000014012d1e0     imgui_demo.obj
 0002:0001e1e4       __real@42b40000            000000014012d1e4     imgui_demo.obj
 0002:0001e1e8       __real@430c0000            000000014012d1e8     imgui_demo.obj
 0002:0001e1f0       __real@430c6bf526340000    000000014012d1f0     imgui_demo.obj
 0002:0001e1f8       __real@43200000            000000014012d1f8     imgui_demo.obj
 0002:0001e1fc       __real@43820000            000000014012d1fc     imgui_demo.obj
 0002:0001e200       __real@43960000            000000014012d200     imgui_demo.obj
 0002:0001e204       __real@43b40000            000000014012d204     imgui_demo.obj
 0002:0001e208       __real@43d70000            000000014012d208     imgui_demo.obj
 0002:0001e20c       __real@43dc0000            000000014012d20c     imgui_demo.obj
 0002:0001e210       __real@43e10000            000000014012d210     imgui_demo.obj
 0002:0001e214       __real@43fa0000            000000014012d214     imgui_demo.obj
 0002:0001e218       __real@44020000            000000014012d218     imgui_demo.obj
 0002:0001e21c       __real@44098000            000000014012d21c     imgui_demo.obj
 0002:0001e220       __real@44228000            000000014012d220     imgui_demo.obj
 0002:0001e224       __real@442a0000            000000014012d224     imgui_demo.obj
 0002:0001e228       __real@44bb8000            000000014012d228     imgui_demo.obj
 0002:0001e22c       __real@44db2000            000000014012d22c     imgui_demo.obj
 0002:0001e230       __real@501502f9            000000014012d230     imgui_demo.obj
 0002:0001e234       __real@80800000            000000014012d234     imgui_demo.obj
 0002:0001e238       __real@bdcccccd            000000014012d238     imgui_demo.obj
 0002:0001e23c       __real@c1200000            000000014012d23c     imgui_demo.obj
 0002:0001e240       __real@c1400000            000000014012d240     imgui_demo.obj
 0002:0001e244       __real@c1a00000            000000014012d244     imgui_demo.obj
 0002:0001e248       __real@c30c6bf526340000    000000014012d248     imgui_demo.obj
 0002:0001e250       __real@c3200000            000000014012d250     imgui_demo.obj
 0002:0001e254       __real@c3b40000            000000014012d254     imgui_demo.obj
 0002:0001e258       __real@d01502f9            000000014012d258     imgui_demo.obj
 0002:0001e670       ??_C@_1FK@MIJJODMF@?$AAw?$AA?3?$AA?2?$AAf?$AAi?$AAn?$AAn?$AAs?$AAi?$AAe?$AA?2?$AAi?$AAn?$AAc?$AAl@ 000000014012d670     imgui_impl_glfw.obj
 0002:0001e6d0       ??_C@_1BI@FGMOEKLL@?$AAW?$AAi?$AAn?$AAd?$AAo?$AAw?$AA?5?$AA?$DN?$AA?$DN?$AA?5?$AA0@ 000000014012d6d0     imgui_impl_glfw.obj
 0002:0001e6e8       __real@3f199999            000000014012d6e8     imgui_impl_glfw.obj
 0002:0001e6ec       __real@be99999a            000000014012d6ec     imgui_impl_glfw.obj
 0002:0001e6f0       __real@bf199999            000000014012d6f0     imgui_impl_glfw.obj
 0002:00023a80       ??_C@_1FC@BIEMKEOL@?$AAp?$AA?5?$AA?$DO?$AA?$DN?$AA?5?$AAB?$AAu?$AAf?$AA?4?$AAD?$AAa?$AAt?$AAa?$AA?5?$AA?$CG@ 0000000140132a80     imgui_widgets.obj
 0002:00023ad4       __real@00800000            0000000140132ad4     imgui_widgets.obj
 0002:00023ad8       __real@358637bd            0000000140132ad8     imgui_widgets.obj
 0002:00023adc       __real@3cdd2f1b            0000000140132adc     imgui_widgets.obj
 0002:00023ae0       __real@3da3d70a            0000000140132ae0     imgui_widgets.obj
 0002:00023ae4       __real@3e09374c            0000000140132ae4     imgui_widgets.obj
 0002:00023ae8       __real@3f350481            0000000140132ae8     imgui_widgets.obj
 0002:00023aec       __real@3f5db22d            0000000140132aec     imgui_widgets.obj
 0002:00023af0       __real@3f5db3d0            0000000140132af0     imgui_widgets.obj
 0002:00023af4       __real@3f7ff972            0000000140132af4     imgui_widgets.obj
 0002:00023af8       __real@3fe0000000000000    0000000140132af8     imgui_widgets.obj
 0002:00023b00       __real@400ccccd            0000000140132b00     imgui_widgets.obj
 0002:00023b08       __real@4024000000000000    0000000140132b08     imgui_widgets.obj
 0002:00023b10       __real@403f5c29            0000000140132b10     imgui_widgets.obj
 0002:00023b18       __real@4059000000000000    0000000140132b18     imgui_widgets.obj
 0002:00023b20       __real@40666666            0000000140132b20     imgui_widgets.obj
 0002:00023b24       __real@40c90fdb            0000000140132b24     imgui_widgets.obj
 0002:00023b28       __real@40eccccd            0000000140132b28     imgui_widgets.obj
 0002:00023b2c       __real@428c0000            0000000140132b2c     imgui_widgets.obj
 0002:00023b30       __real@43e0000000000000    0000000140132b30     imgui_widgets.obj
 0002:00023b38       __real@47efffffe0000000    0000000140132b38     imgui_widgets.obj
 0002:00023b40       __real@5f000000            0000000140132b40     imgui_widgets.obj
 0002:00023b44       __real@7effffff            0000000140132b44     imgui_widgets.obj
 0002:00023b48       __real@7fdfffffffffffff    0000000140132b48     imgui_widgets.obj
 0002:00023b50       __real@7fefffffffffffff    0000000140132b50     imgui_widgets.obj
 0002:00023b58       __real@bf000000            0000000140132b58     imgui_widgets.obj
 0002:00023b5c       __real@bf400000            0000000140132b5c     imgui_widgets.obj
 0002:00023b60       __real@bf5db3d0            0000000140132b60     imgui_widgets.obj
 0002:00023b68       __real@c059000000000000    0000000140132b68     imgui_widgets.obj
 0002:00023b70       __real@feffffff            0000000140132b70     imgui_widgets.obj
 0002:00023b78       __real@ffdfffffffffffff    0000000140132b78     imgui_widgets.obj
 0002:00023b80       __xmm@80000000000000008000000000000000 0000000140132b80     imgui_widgets.obj
 0002:0002bc30       ??_C@_1DA@HCNHOFJN@?$AAn?$AA?5?$AA?$DM?$AA?5?$AA?$CI?$AAS?$AAt?$AAo?$AAr?$AAa?$AAg?$AAe?$AA?4?$AAS?$AAi@ 000000014013ac30     imgui_draw.obj
 0002:0002dfb8       ??_C@_1CC@BPLGCGDC@?$AAn?$AAe?$AAw?$AA_?$AAs?$AAi?$AAz?$AAe?$AA?5?$AA?$DM?$AA?$DN?$AA?5?$AAS?$AAi?$AAz@ 000000014013cfb8     imgui_draw.obj
 0002:0002dfdc       __real@3d75c28f            000000014013cfdc     imgui_draw.obj
 0002:0002dfe0       __real@3de147ae            000000014013cfe0     imgui_draw.obj
 0002:0002dfe4       __real@3e0f5c29            000000014013cfe4     imgui_draw.obj
 0002:0002dfe8       __real@3e23d70a            000000014013cfe8     imgui_draw.obj
 0002:0002dfec       __real@3e75c28f            000000014013cfec     imgui_draw.obj
 0002:0002dff0       __real@3e851eb8            000000014013cff0     imgui_draw.obj
 0002:0002dff4       __real@3e8a3d71            000000014013cff4     imgui_draw.obj
 0002:0002dff8       __real@3e947ae1            000000014013cff8     imgui_draw.obj
 0002:0002dffc       __real@3e9eb852            000000014013cffc     imgui_draw.obj
 0002:0002e000       __real@3ea3d70a            000000014013d000     imgui_draw.obj
 0002:0002e004       __real@3ec7ae14            000000014013d004     imgui_draw.obj
 0002:0002e008       __real@3ed1eb85            000000014013d008     imgui_draw.obj
 0002:0002e00c       __real@3ed70a3d            000000014013d00c     imgui_draw.obj
 0002:0002e010       __real@3edc28f6            000000014013d010     imgui_draw.obj
 0002:0002e014       __real@3ee147ae            000000014013d014     imgui_draw.obj
 0002:0002e018       __real@3ee66666            000000014013d018     imgui_draw.obj
 0002:0002e01c       __real@3eeb851f            000000014013d01c     imgui_draw.obj
 0002:0002e020       __real@3ef0a3d7            000000014013d020     imgui_draw.obj
 0002:0002e024       __real@3ef5c28f            000000014013d024     imgui_draw.obj
 0002:0002e028       __real@3efae148            000000014013d028     imgui_draw.obj
 0002:0002e02c       __real@3f028f5c            000000014013d02c     imgui_draw.obj
 0002:0002e030       __real@3f051eb8            000000014013d030     imgui_draw.obj
 0002:0002e034       __real@3f07ae14            000000014013d034     imgui_draw.obj
 0002:0002e038       __real@3f0a3d71            000000014013d038     imgui_draw.obj
 0002:0002e03c       __real@3f0f5c29            000000014013d03c     imgui_draw.obj
 0002:0002e040       __real@3f170a3d            000000014013d040     imgui_draw.obj
 0002:0002e044       __real@3f1c28f6            000000014013d044     imgui_draw.obj
 0002:0002e048       __real@3f1eb852            000000014013d048     imgui_draw.obj
 0002:0002e04c       __real@3f2147ae            000000014013d04c     imgui_draw.obj
 0002:0002e050       __real@3f23d70a            000000014013d050     imgui_draw.obj
 0002:0002e054       __real@3f30a3d7            000000014013d054     imgui_draw.obj
 0002:0002e058       __real@3f35c28f            000000014013d058     imgui_draw.obj
 0002:0002e05c       __real@3f47ae14            000000014013d05c     imgui_draw.obj
 0002:0002e060       __real@3f4a3d71            000000014013d060     imgui_draw.obj
 0002:0002e064       __real@3f51eb85            000000014013d064     imgui_draw.obj
 0002:0002e068       __real@3f547ae1            000000014013d068     imgui_draw.obj
 0002:0002e06c       __real@3f59999a            000000014013d06c     imgui_draw.obj
 0002:0002e070       __real@3f5c28f6            000000014013d070     imgui_draw.obj
 0002:0002e074       __real@3f5eb852            000000014013d074     imgui_draw.obj
 0002:0002e078       __real@3f6147ae            000000014013d078     imgui_draw.obj
 0002:0002e07c       __real@3f6b851f            000000014013d07c     imgui_draw.obj
 0002:0002e080       __real@3f70a3d7            000000014013d080     imgui_draw.obj
 0002:0002e084       __real@3f75c28f            000000014013d084     imgui_draw.obj
 0002:0002e088       __real@3f7ae148            000000014013d088     imgui_draw.obj
 0002:0002e08c       __real@3f8147ae            000000014013d08c     imgui_draw.obj
 0002:0002e090       __real@3ffeb852            000000014013d090     imgui_draw.obj
 0002:0002e094       __real@41300000            000000014013d094     imgui_draw.obj
 0002:0002e098       __real@41500000            000000014013d098     imgui_draw.obj
 0002:0002e09c       __real@41880000            000000014013d09c     imgui_draw.obj
 0002:0002e0a0       __real@41b00000            000000014013d0a0     imgui_draw.obj
 0002:0002e0a4       __real@41b80000            000000014013d0a4     imgui_draw.obj
 0002:0002e0a8       __real@425c0000            000000014013d0a8     imgui_draw.obj
 0002:0002e0ac       __real@42920000            000000014013d0ac     imgui_draw.obj
 0002:0002e0b0       __real@42b60000            000000014013d0b0     imgui_draw.obj
 0002:0002e0b4       __real@42da0000            000000014013d0b4     imgui_draw.obj
 0002:0002e0b8       __real@44333333            000000014013d0b8     imgui_draw.obj
 0002:0002e0bc       __real@44b33333            000000014013d0bc     imgui_draw.obj
 0002:0002e0c0       __real@45333333            000000014013d0c0     imgui_draw.obj
 0002:0002e0c4       __real@46000000            000000014013d0c4     imgui_draw.obj
 0002:0002e0c8       __real@46800000            000000014013d0c8     imgui_draw.obj
 0002:0002e0cc       __real@47800000            000000014013d0cc     imgui_draw.obj
 0002:0002e0d0       __real@bf5db22d            000000014013d0d0     imgui_draw.obj
 0002:0002e0d4       __real@c6000000            000000014013d0d4     imgui_draw.obj
 0002:0002e0e0       ??_C@_0GC@KIFEGHB@03000000fa2d0000010000000000000@ 000000014013d0e0     glfw3:init.obj
 0002:0002e150       ??_C@_0BBN@FMDJFAID@0300000002200000009000000000000@ 000000014013d150     glfw3:init.obj
 0002:0002e270       ??_C@_0BBN@DDIMFOMP@0300000020380000090000000000000@ 000000014013d270     glfw3:init.obj
 0002:0002e390       ??_C@_0KC@BDMHLJAH@0300000010280000090000000000000@ 000000014013d390     glfw3:init.obj
 0002:0002e440       ??_C@_0LK@IEAMBPJF@03000000a0050000323200000000000@ 000000014013d440     glfw3:init.obj
 0002:0002e500       ??_C@_0BAP@JLLKEDGG@030000008f0e0000120000000000000@ 000000014013d500     glfw3:init.obj
 0002:0002e610       ??_C@_0BCN@GIEEMMPB@03000000341a0000360800000000000@ 000000014013d610     glfw3:init.obj
 0002:0002e740       ??_C@_0JO@HBLEAOAI@03000000c0110000135200000000000@ 000000014013d740     glfw3:init.obj
 0002:0002e7e0       ??_C@_0BCL@HMJAKFPC@030000006b140000005500000000000@ 000000014013d7e0     glfw3:init.obj
 0002:0002e910       ??_C@_0BBL@EFBOJJAL@0300000066f70000050000000000000@ 000000014013d910     glfw3:init.obj
 0002:0002ea30       ??_C@_0BCF@BIADCONP@03000000d81d00000b0000000000000@ 000000014013da30     glfw3:init.obj
 0002:0002eb60       ??_C@_0BBH@EKFHCAMB@03000000e8200000605800000000000@ 000000014013db60     glfw3:init.obj
 0002:0002ec80       ??_C@_0BBL@JOMIAFLN@030000005e0400008e0200000000000@ 000000014013dc80     glfw3:init.obj
 0002:0002eda0       ??_C@_0PH@HDPKEOEB@0300000026090000888800000000000@ 000000014013dda0     glfw3:init.obj
 0002:0002eea0       ??_C@_0BCC@ICCBMGAM@03000000a306000022f600000000000@ 000000014013dea0     glfw3:init.obj
 0002:0002efd0       ??_C@_0BAE@PFJOMAIP@03000000791d0000010300000000000@ 000000014013dfd0     glfw3:init.obj
 0002:0002f0e0       ??_C@_0BBO@PKEFDNGG@030000004f04000023b300000000000@ 000000014013e0e0     glfw3:init.obj
 0002:0002f200       ??_C@_0BAC@DNICHFEF@03000000341a0000010800000000000@ 000000014013e200     glfw3:init.obj
 0002:0002f310       ??_C@_0BDA@CMOFFENL@030000000d0f0000850000000000000@ 000000014013e310     glfw3:init.obj
 0002:0002f440       ??_C@_0BCJ@GDBCPJIF@030000000d0f0000840000000000000@ 000000014013e440     glfw3:init.obj
 0002:0002f570       ??_C@_0OH@FOPKIOOK@030000000d0f0000880000000000000@ 000000014013e570     glfw3:init.obj
 0002:0002f660       ??_C@_0OH@PKEJNDDF@030000000d0f0000870000000000000@ 000000014013e660     glfw3:init.obj
 0002:0002f750       ??_C@_0OD@GOLNACF@030000000d0f0000270000000000000@ 000000014013e750     glfw3:init.obj
 0002:0002f840       ??_C@_0OA@BPMCGMAH@78696e7075740300000000000000000@ 000000014013e840     glfw3:init.obj
 0002:0002f920       ??_C@_0BBL@LKPHLJJA@0300000079000000060000000000000@ 000000014013e920     glfw3:init.obj
 0002:0002fa40       ??_C@_0OB@DOLNAILH@0300000026090000262500000000000@ 000000014013ea40     glfw3:init.obj
 0002:0002fb30       ??_C@_0BCE@HLGICLNK@030000008f0e00000d3100000000000@ 000000014013eb30     glfw3:init.obj
 0002:0002fc60       ??_C@_0LK@DEPDOLNO@0300000028040000014000000000000@ 000000014013ec60     glfw3:init.obj
 0002:0002fd20       ??_C@_0BBL@BABJOOFG@03000000ffff0000000000000000000@ 000000014013ed20     glfw3:init.obj
 0002:0002fe40       ??_C@_0BBP@PMDLBCBI@0300000045130000001000000000000@ 000000014013ee40     glfw3:init.obj
 0002:0002ff60       ??_C@_0BCB@CDNPOFJG@03000000341a0000030200000000000@ 000000014013ef60     glfw3:init.obj
 0002:00030090       ??_C@_0BDA@KMJLBBJI@030000000d0f0000490000000000000@ 000000014013f090     glfw3:init.obj
 0002:000301c0       ??_C@_0OJ@OOLHGLBN@03000000d8140000086200000000000@ 000000014013f1c0     glfw3:init.obj
 0002:000302b0       ??_C@_0BBH@LKFOHLNE@030000000d0f00005f0000000000000@ 000000014013f2b0     glfw3:init.obj
 0002:000303d0       ??_C@_0BBH@LCHOLIJA@030000000d0f00005e0000000000000@ 000000014013f3d0     glfw3:init.obj
 0002:000304f0       ??_C@_0OM@PAPEIDEH@030000000d0f0000400000000000000@ 000000014013f4f0     glfw3:init.obj
 0002:000305e0       ??_C@_0BCE@JNCBHNAG@030000000d0f00006e0000000000000@ 000000014013f5e0     glfw3:init.obj
 0002:00030710       ??_C@_0BCE@LONHMMNE@030000000d0f0000660000000000000@ 000000014013f710     glfw3:init.obj
 0002:00030840       ??_C@_0BCC@ICCBFEBO@030000000d0f0000ee0000000000000@ 000000014013f840     glfw3:init.obj
 0002:00030970       ??_C@_0BBP@MIJPCIGF@030000000d0f00004d0000000000000@ 000000014013f970     glfw3:init.obj
 0002:00030a90       ??_C@_0MP@NNGGKFCK@0300000025090000001700000000000@ 000000014013fa90     glfw3:init.obj
 0002:00030b60       ??_C@_0LL@KLNOPNHB@030000008f0e0000133000000000000@ 000000014013fb60     glfw3:init.obj
 0002:00030c20       ??_C@_0BCD@KBOGKJIK@03000000d81d00000f0000000000000@ 000000014013fc20     glfw3:init.obj
 0002:00030d50       ??_C@_0BCE@PHFLGEEP@03000000d81d0000100000000000000@ 000000014013fd50     glfw3:init.obj
 0002:00030e80       ??_C@_0LN@ELDHBANA@0300000083050000602000000000000@ 000000014013fe80     glfw3:init.obj
 0002:00030f40       ??_C@_0OI@PJKINAML@03000000b5070000140300000000000@ 000000014013ff40     glfw3:init.obj
 0002:00031030       ??_C@_0OO@JIILGAHM@030000006f0e0000240100000000000@ 0000000140140030     glfw3:init.obj
 0002:00031120       ??_C@_0BBK@GEMHLGCN@0300000049190000020400000000000@ 0000000140140120     glfw3:init.obj
 0002:00031240       ??_C@_0BBF@GOLEDGAH@030000006d04000011c200000000000@ 0000000140140240     glfw3:init.obj
 0002:00031360       ??_C@_0BBP@NCCKJBD@030000006d04000016c200000000000@ 0000000140140360     glfw3:init.obj
 0002:00031480       ??_C@_0BCA@IDEGIHPL@030000006d04000018c200000000000@ 0000000140140480     glfw3:init.obj
 0002:000315a0       ??_C@_0BCA@PDBJCLJJ@030000006d04000019c200000000000@ 00000001401405a0     glfw3:init.obj
 0002:000316c0       ??_C@_0BDA@PJFOCFDI@0300000038070000503200000000000@ 00000001401406c0     glfw3:init.obj
 0002:000317f0       ??_C@_0BDA@HBJEDFJC@0300000038070000508200000000000@ 00000001401407f0     glfw3:init.obj
 0002:00031920       ??_C@_0OP@DKGLPNPK@0300000038070000843300000000000@ 0000000140140920     glfw3:init.obj
 0002:00031a10       ??_C@_0BDC@MKHPLOHI@0300000038070000848300000000000@ 0000000140140a10     glfw3:init.obj
 0002:00031b50       ??_C@_0BDB@PPKHIPGK@0300000038070000813400000000000@ 0000000140140b50     glfw3:init.obj
 0002:00031c90       ??_C@_0BDB@OHAMDKML@0300000038070000818400000000000@ 0000000140140c90     glfw3:init.obj
 0002:00031dd0       ??_C@_0BBD@FGLPEKLC@0300000038070000803400000000000@ 0000000140140dd0     glfw3:init.obj
 0002:00031ef0       ??_C@_0BBD@GHNGPLFD@0300000038070000808400000000000@ 0000000140140ef0     glfw3:init.obj
 0002:00032010       ??_C@_0BBK@FBBILDLI@0300000038070000853200000000000@ 0000000140141010     glfw3:init.obj
 0002:00032130       ??_C@_0BBL@JKCMMIPG@0300000038070000388800000000000@ 0000000140141130     glfw3:init.obj
 0002:00032250       ??_C@_0BBD@LABNEKLL@0300000038070000188800000000000@ 0000000140141250     glfw3:init.obj
 0002:00032370       ??_C@_0BBP@KNBKPMNJ@0300000038070000808100000000000@ 0000000140141370     glfw3:init.obj
 0002:00032490       ??_C@_0BBJ@JDAOMACH@030000008305000031b000000000000@ 0000000140141490     glfw3:init.obj
 0002:000325b0       ??_C@_0MA@LPHGGGL@0300000025090000012800000000000@ 00000001401415b0     glfw3:init.obj
 0002:00032670       ??_C@_0PC@EBDFKGFN@0300000079000000441800000000000@ 0000000140141670     glfw3:init.obj
 0002:00032770       ??_C@_0BDG@JHAIGEPC@0300000079000000431800000000000@ 0000000140141770     glfw3:init.obj
 0002:000328b0       ??_C@_0PI@JHAKKPHF@030000008f0e0000103000000000000@ 00000001401418b0     glfw3:init.obj
 0002:000329b0       ??_C@_0BBD@DBNHIIMF@0300000025090000e80300000000000@ 00000001401419b0     glfw3:init.obj
 0002:00032ad0       ??_C@_0BDN@CCAJAJCK@0300000079000000001800000000000@ 0000000140141ad0     glfw3:init.obj
 0002:00032c10       ??_C@_0LJ@GGIFBABN@030000001008000001e500000000000@ 0000000140141c10     glfw3:init.obj
 0002:00032cd0       ??_C@_0MA@ECCMLEBD@03000000bd12000015d000000000000@ 0000000140141cd0     glfw3:init.obj
 0002:00032d90       ??_C@_0BDD@DODHFLKI@030000007e050000092000000000000@ 0000000140141d90     glfw3:init.obj
 0002:00032ed0       ??_C@_0BCH@DECMPLLD@030000004b120000014d00000000000@ 0000000140141ed0     glfw3:init.obj
 0002:00033000       ??_C@_0BBB@PJOPHLEI@0300000036280000010000000000000@ 0000000140142000     glfw3:init.obj
 0002:00033120       ??_C@_0OC@FELEMKIB@03000000120c0000f60e00000000000@ 0000000140142120     glfw3:init.obj
 0002:00033210       ??_C@_0BBJ@KBEDPJIE@030000008f0e0000030000000000000@ 0000000140142210     glfw3:init.obj
 0002:00033330       ??_C@_0BCC@FJIJNHMA@03000000d62000006dca00000000000@ 0000000140142330     glfw3:init.obj
 0002:00033460       ??_C@_0BBO@DLNBHCGB@030000008f0e0000753000000000000@ 0000000140142460     glfw3:init.obj
 0002:00033580       ??_C@_0BCC@CJMNKOGI@03000000e3050000960500000000000@ 0000000140142580     glfw3:init.obj
 0002:000336b0       ??_C@_0BBC@EEECNPCM@0300000010080000010000000000000@ 00000001401426b0     glfw3:init.obj
 0002:000337d0       ??_C@_0BBC@NOMIFJEF@0300000010080000030000000000000@ 00000001401427d0     glfw3:init.obj
 0002:000338f0       ??_C@_0BCD@DJDMNCGP@0300000088880000080300000000000@ 00000001401428f0     glfw3:init.obj
 0002:00033a20       ??_C@_0BBP@IOECCAGN@030000004c050000680200000000000@ 0000000140142a20     glfw3:init.obj
 0002:00033b40       ??_C@_0BBI@KAHKIEPM@0300000025090000050000000000000@ 0000000140142b40     glfw3:init.obj
 0002:00033c60       ??_C@_0OJ@KFMPHKBC@0300000010000000820000000000000@ 0000000140142c60     glfw3:init.obj
 0002:00033d50       ??_C@_0BCD@JIBGPOCI@030000004c050000a00b00000000000@ 0000000140142d50     glfw3:init.obj
 0002:00033e80       ??_C@_0BCD@GAJAFIPA@030000004c050000c40500000000000@ 0000000140142e80     glfw3:init.obj
 0002:00033fb0       ??_C@_0BCD@BABDCDPH@030000004c050000cc0900000000000@ 0000000140142fb0     glfw3:init.obj
 0002:000340e0       ??_C@_0PF@JBCCEDOB@03000000300f0000001100000000000@ 00000001401430e0     glfw3:init.obj
 0002:000341e0       ??_C@_0OM@HGBIMFGF@03000000300f0000161100000000000@ 00000001401431e0     glfw3:init.obj
 0002:000342d0       ??_C@_0ON@KEJKIAHI@03000000222c0000002000000000000@ 00000001401432d0     glfw3:init.obj
 0002:000343c0       ??_C@_0LE@DMNOHJBL@03000000300f0000121000000000000@ 00000001401433c0     glfw3:init.obj
 0002:00034480       ??_C@_0PI@OKGGAFMJ@03000000341a0000010400000000000@ 0000000140143480     glfw3:init.obj
 0002:00034580       ??_C@_0BDM@IEGKPAEF@03000000222c0000022300000000000@ 0000000140143580     glfw3:init.obj
 0002:000346c0       ??_C@_0BDN@OKDOLNP@03000000222c0000002300000000000@ 00000001401436c0     glfw3:init.obj
 0002:00034800       ??_C@_0BAF@EBPNLKIJ@0300000032150000000300000000000@ 0000000140143800     glfw3:init.obj
 0002:00034910       ??_C@_0BAA@HNPCOCLG@030000000d0f0000110000000000000@ 0000000140143910     glfw3:init.obj
 0002:00034a10       ??_C@_0BCG@KCOGNPFA@030000000d0f00008b0000000000000@ 0000000140143a10     glfw3:init.obj
 0002:00034b40       ??_C@_0BCG@NPOEDNBE@030000000d0f00008a0000000000000@ 0000000140143b40     glfw3:init.obj
 0002:00034c70       ??_C@_0BCG@OOIEPIIL@030000000d0f00006b0000000000000@ 0000000140143c70     glfw3:init.obj
 0002:00034da0       ??_C@_0BCG@JDIGBKMP@030000000d0f00006a0000000000000@ 0000000140143da0     glfw3:init.obj
 0002:00034ed0       ??_C@_0BAE@KADGKHDN@030000000d0f0000700000000000000@ 0000000140143ed0     glfw3:init.obj
